(lp0
I16
aI11
a.(F61.14285714285731
F57.14285714285731
tp0
.(lp0
I0
aI0
aI5
aI2
aI1
aI4
aI3
aI6
aI10
aI8
aI7
aI9
a.I1
.(F160.1428571428573
F270.14285714285734
tp0
.S'srv1 '
p0
.(I97
I151
I200
tp0
.I0
.S'10'
p0
.S''
p0
.S'10'
p0
.S'/usr/share/icaro/imagenes/componentes/servo1.png'
p0
.I6
.I0
.I0
.I0
.I1
.I1
.I0
.I2
.(F160.1428571428573
F362.14285714285734
tp0
.S'srv3 '
p0
.(I200
I97
I104
tp0
.I0
.S'12'
p0
.S''
p0
.S'12'
p0
.S'/usr/share/icaro/imagenes/componentes/servo3.png'
p0
.I6
.I0
.I0
.I0
.I1
.I2
.I0
.I3
.(F160.1428571428573
F123.14285714285731
tp0
.S'srv2 '
p0
.(I200
I97
I108
tp0
.I0
.S'11'
p0
.S''
p0
.S'11'
p0
.S'/usr/share/icaro/imagenes/componentes/servo2.png'
p0
.I6
.I0
.I0
.I0
.I1
.I3
.I0
.I5
.(F160.1428571428573
F399.14285714285734
tp0
.V94
p0
.(I97
I200
I149
tp0
.I1
.S'1'
p0
.S''
p0
.V94
p0
.S'/usr/share/icaro/imagenes/componentes/datos.png'
p0
.I7
.I1
.I0
.I0
.I1
.I2
.I1
.I6
.(F160.1428571428573
F307.14285714285734
tp0
.V94
p0
.(I97
I200
I149
tp0
.I1
.S'1'
p0
.S''
p0
.V94
p0
.S'/usr/share/icaro/imagenes/componentes/datos.png'
p0
.I7
.I1
.I0
.I0
.I1
.I1
.I1
.I7
.(F160.1428571428573
F160.1428571428573
tp0
.V98
p0
.(I97
I200
I149
tp0
.I1
.S'1'
p0
.S''
p0
.V98
p0
.S'/usr/share/icaro/imagenes/componentes/datos.png'
p0
.I7
.I1
.I0
.I0
.I1
.I3
.I1
.I8
.(F160.1428571428573
F215.1428571428573
tp0
.V1000
p0
.(I97
I200
I149
tp0
.I1
.S'1'
p0
.S''
p0
.V1000
p0
.S'/usr/share/icaro/imagenes/componentes/datos.png'
p0
.I7
.I1
.I0
.I0
.I1
.I4
.I0
.I9
.(F160.1428571428573
F454.14285714285734
tp0
.V1000
p0
.(I97
I200
I149
tp0
.I1
.S'1'
p0
.S''
p0
.V1000
p0
.S'/usr/share/icaro/imagenes/componentes/datos.png'
p0
.I7
.I1
.I0
.I0
.I1
.I5
.I0
.I10
.(F160.1428571428573
F509.14285714285734
tp0
.S'srv2 '
p0
.(I200
I97
I108
tp0
.I0
.S'11'
p0
.S''
p0
.S'11'
p0
.S'/usr/share/icaro/imagenes/componentes/servo2.png'
p0
.I6
.I0
.I0
.I0
.I1
.I6
.I0
.I11
.(F160.1428571428573
F748.1428571428573
tp0
.S'srv3 '
p0
.(I200
I97
I104
tp0
.I0
.S'12'
p0
.S''
p0
.S'12'
p0
.S'/usr/share/icaro/imagenes/componentes/servo3.png'
p0
.I6
.I0
.I0
.I0
.I1
.I8
.I0
.I12
.(F160.1428571428573
F656.1428571428573
tp0
.S'srv1 '
p0
.(I97
I151
I200
tp0
.I0
.S'10'
p0
.S''
p0
.S'10'
p0
.S'/usr/share/icaro/imagenes/componentes/servo1.png'
p0
.I6
.I0
.I0
.I0
.I1
.I7
.I0
.I13
.(F160.1428571428573
F546.1428571428573
tp0
.V158
p0
.(I97
I200
I149
tp0
.I1
.S'1'
p0
.S''
p0
.V158
p0
.S'/usr/share/icaro/imagenes/componentes/datos.png'
p0
.I7
.I1
.I0
.I0
.I1
.I6
.I1
.I15
.(F160.1428571428573
F601.1428571428573
tp0
.V1000
p0
.(I97
I200
I149
tp0
.I1
.S'1'
p0
.S''
p0
.V1000
p0
.S'/usr/share/icaro/imagenes/componentes/datos.png'
p0
.I7
.I1
.I0
.I0
.I1
.I9
.I0
.I16
.(F160.1428571428573
F693.1428571428573
tp0
.V162
p0
.(I97
I200
I149
tp0
.I1
.S'1'
p0
.S''
p0
.V162
p0
.S'/usr/share/icaro/imagenes/componentes/datos.png'
p0
.I7
.I1
.I0
.I0
.I1
.I7
.I1
.I17
.(F160.1428571428573
F785.1428571428573
tp0
.V162
p0
.(I97
I200
I149
tp0
.I1
.S'1'
p0
.S''
p0
.V162
p0
.S'/usr/share/icaro/imagenes/componentes/datos.png'
p0
.I7
.I1
.I0
.I0
.I1
.I8
.I1
.I18
.(F160.1428571428573
F840.1428571428573
tp0
.V100
p0
.(I97
I200
I149
tp0
.I1
.S'1'
p0
.S''
p0
.V100
p0
.S'/usr/share/icaro/imagenes/componentes/datos.png'
p0
.I7
.I1
.I0
.I0
.I1
.I10
.I0
.I1
.(F45.14285714285731
F259.14285714285734
tp0
.S'servo'
p0
.I2
.I2
.(I97
I200
I100
tp0
.S'servo'
p0
.I4
.I1
.(F45.14285714285731
F351.14285714285734
tp0
.S'servo'
p0
.I2
.I3
.(I97
I200
I100
tp0
.S'servo'
p0
.I1
.I1
.(F45.14285714285731
F112.14285714285731
tp0
.S'servo'
p0
.I2
.I4
.(I97
I200
I100
tp0
.S'servo'
p0
.I0
.I1
.(F45.14285714285731
F204.1428571428573
tp0
.S'pausa'
p0
.I1
.I5
.(I97
I200
I157
tp0
.S'pausa'
p0
.I3
.I1
.(F45.14285714285731
F443.14285714285734
tp0
.S'pausa'
p0
.I1
.I6
.(I97
I200
I157
tp0
.S'pausa'
p0
.I2
.I1
.(F45.14285714285731
F498.14285714285734
tp0
.S'servo'
p0
.I2
.I7
.(I97
I200
I100
tp0
.S'servo'
p0
.I5
.I1
.(F45.14285714285731
F645.1428571428573
tp0
.S'servo'
p0
.I2
.I8
.(I97
I200
I100
tp0
.S'servo'
p0
.I9
.I1
.(F45.14285714285731
F737.1428571428573
tp0
.S'servo'
p0
.I2
.I9
.(I97
I200
I100
tp0
.S'servo'
p0
.I7
.I1
.(F45.14285714285731
F590.1428571428573
tp0
.S'pausa'
p0
.I1
.I10
.(I97
I200
I157
tp0
.S'pausa'
p0
.I6
.I1
.(F45.14285714285731
F829.1428571428573
tp0
.S'pausa'
p0
.I1
.I11
.(I97
I200
I157
tp0
.S'pausa'
p0
.I8
.