gplink-1.3.0 #1017 (Aug 16 2014)
Map File - Created 9-18-2015  14:20:56

                                 Section Info
                  Section       Type    Address   Location Size(Bytes)
                ---------  ---------  ---------  ---------  ---------
                 .idata_i    romdata   0x003ff2    program   0x00000e
                   .cinit    romdata   0x00797e    program   0x00000e
S_boot_iface__boot_goto_table       code   0x00001c    program   0x00005e
S_application_iface__application_data       code   0x002000    program   0x00001a
S_crt0ipinguino__application_main       code   0x00201a    program   0x000004
S_usb_descriptors__null_function       code   0x00201e    program   0x000002
S_main__high_priority_isr       code   0x002020    program   0x000050
            S_main__print       code   0x002070    program   0x00074a
 S_main__SortServoTimings       code   0x0027ba    program   0x0003f6
         S_fsadd____fsadd       code   0x002bb0    program   0x0003ae
                    .code       code   0x002f5e    program   0x000394
         S_fsmul____fsmul       code   0x0032f2    program   0x000394
         S_fsdiv____fsdiv       code   0x003686    program   0x00037a
           S_main__printi       code   0x003a00    program   0x00030e
       S_main__printFloat       code   0x003d0e    program   0x0002b8
            S_main__write       code   0x003fc6    program   0x00002c
 S_main__low_priority_isr       code   0x004000    program   0x000046
     S_main__serial_write       code   0x004046    program   0x0002fe
          S_main__pinmode       code   0x004344    program   0x0002ae
     S_main__digitalwrite       code   0x0045f2    program   0x0002ae
             S_main__mens       code   0x0048a0    program   0x000274
           S_main__prints       code   0x004b14    program   0x000230
          S_main__caminar       code   0x004d44    program   0x0001fc
         S_main__uitoamod       code   0x004f40    program   0x0001ee
      S_main__digitalread       code   0x00512e    program   0x0001d0
      S_main__printNumber       code   0x0052fe    program   0x0001c4
             S_main__init       code   0x0054c2    program   0x00017c
   S_ulong2fs____ulong2fs       code   0x00563e    program   0x000176
             S_main__loop       code   0x0057b4    program   0x00016e
            S_main__begin       code   0x005922    program   0x000158
         S_fssub____fssub       code   0x005a7a    program   0x000154
    S_modulong___modulong       code   0x005bce    program   0x00013a
              S_main__lcd       code   0x005d08    program   0x00012c
      S_main__ServoAttach       code   0x005e34    program   0x000124
    S_divulong___divulong       code   0x005f58    program   0x000120
            S_main__setup       code   0x006078    program   0x00011e
           S_fslt____fslt       code   0x006196    program   0x00011e
S_main__PWM_set_dutycycle       code   0x0062b4    program   0x00010c
        S_main__printchar       code   0x0063c0    program   0x0000f8
   S_slong2fs____slong2fs       code   0x0064b8    program   0x0000f6
   S_fs2ulong____fs2ulong       code   0x0065ae    program   0x0000f4
     S_main__serial_begin       code   0x0066a2    program   0x0000dc
S_main__PWM_set_percent_dutycycle       code   0x00677e    program   0x0000d8
S_main__PWM_set_frequency       code   0x006856    program   0x0000d6
      S_main__ServoDetach       code   0x00692c    program   0x0000d4
          S_main__set_PWM       code   0x006a00    program   0x0000d2
      S_moduint___moduint       code   0x006ad2    program   0x0000ba
      S_divuint___divuint       code   0x006b8c    program   0x0000b0
       S_main__write8bits       code   0x006c3c    program   0x0000ac
       S_main__write4bits       code   0x006ce8    program   0x0000ac
        S_main__printfmod       code   0x006d94    program   0x0000a8
             S_main__ping       code   0x006e3c    program   0x0000a0
  S_main__ServosPulseDown       code   0x006edc    program   0x0000a0
          S_main__Delayms       code   0x006f7c    program   0x00009a
S_crt0ipinguino___do_cinit       code   0x007016    program   0x000098
         S_main__lcdPrint       code   0x0070ae    program   0x000092
     S_fs2uint____fs2uint       code   0x007140    program   0x000090
        S_main__setCursor       code   0x0071d0    program   0x00008a
      S_main__pulseEnable       code   0x00725a    program   0x000078
     S_sint2fs____sint2fs       code   0x0072d2    program   0x000074
             S_main__send       code   0x007346    program   0x000072
    S_main__serial_printf       code   0x0073b8    program   0x000072
 S_main__serial_interrupt       code   0x00742a    program   0x000068
       S_main__ServoWrite       code   0x007492    program   0x000068
          S_main__Delayus       code   0x0074fa    program   0x00005c
      S_main__serial_read       code   0x007556    program   0x000052
           S_main__parado       code   0x0075a8    program   0x000050
      S_main__servos_init       code   0x0075f8    program   0x000048
 S_main__servos_interrupt       code   0x007640    program   0x000046
S_main__ServoMaximumPulse       code   0x007686    program   0x000046
        S_main__ServoRead       code   0x0076cc    program   0x000046
S_main__ServoMinimumPulse       code   0x007712    program   0x000044
          S_main__command       code   0x007756    program   0x00002a
 S_main__serial_available       code   0x007780    program   0x000026
 S_main__serial_putchar11       code   0x0077a6    program   0x000024
     S_main__noAutoscroll       code   0x0077ca    program   0x000022
      S_main__rightToLeft       code   0x0077ec    program   0x000022
          S_main__noBlink       code   0x00780e    program   0x000022
         S_main__noCursor       code   0x007830    program   0x000022
        S_main__noDisplay       code   0x007852    program   0x000022
    S_main__pinguino_main       code   0x007874    program   0x000020
    S_main__serial_getkey       code   0x007894    program   0x000020
            S_main__clear       code   0x0078b4    program   0x00001c
             S_main__home       code   0x0078d0    program   0x00001c
S_crt0ipinguino___startup       code   0x0078ec    program   0x000018
       S_main__autoscroll       code   0x007904    program   0x000012
      S_main__leftToRight       code   0x007916    program   0x000012
            S_main__blink       code   0x007928    program   0x000012
           S_main__cursor       code   0x00793a    program   0x000012
          S_main__display       code   0x00794c    program   0x000012
       S_main__init_PWM12       code   0x00795e    program   0x000010
       S_main__init_PWM11       code   0x00796e    program   0x000010
S_main__scrollDisplayRight       code   0x00798c    program   0x00000c
S_main__scrollDisplayLeft       code   0x007998    program   0x00000c
     S_main__serial_flush       code   0x0079a4    program   0x00000c
    S_main__ServosPulseUp       code   0x0079b0    program   0x00000a
     S_main__epapout_init       code   0x0079ba    program   0x000002
      S_main__epapin_init       code   0x0079bc    program   0x000002
         S_main__epap_out       code   0x0079be    program   0x000002
          S_main__epap_in       code   0x0079c0    program   0x000002
                   .idata      idata   0x000348       data   0x00000e
               .registers      udata   0x000000       data   0x00001b
      ustat_boot_iface_00      udata   0x00005d       data   0x000003
            stack_section      udata   0x000100       data   0x000100
            udata_main_13      udata   0x000200       data   0x000080
            udata_main_21      udata   0x000280       data   0x00004a
            udata_main_18      udata   0x0002ca       data   0x000020
             udata_main_4      udata   0x0002ea       data   0x000012
             udata_fslt_0      udata   0x0002fc       data   0x000004
             udata_main_6      udata   0x000300       data   0x000048
             udata_main_9      udata   0x000356       data   0x00000c
            udata_main_14      udata   0x000362       data   0x000008
            udata_main_16      udata   0x00036a       data   0x000008
            udata_main_23      udata   0x000372       data   0x000008
            udata_main_24      udata   0x00037a       data   0x000008
            udata_main_25      udata   0x000382       data   0x000008
            udata_main_26      udata   0x00038a       data   0x000008
             udata_fslt_1      udata   0x000392       data   0x000004
            udata_fsmul_0      udata   0x000396       data   0x000004
            udata_fsmul_1      udata   0x00039a       data   0x000004
            udata_fsdiv_0      udata   0x00039e       data   0x000004
            udata_fsdiv_1      udata   0x0003a2       data   0x000004
         udata_fs2ulong_0      udata   0x0003a6       data   0x000004
            udata_fssub_0      udata   0x0003aa       data   0x000004
            udata_fssub_1      udata   0x0003ae       data   0x000004
            udata_fsadd_0      udata   0x0003b2       data   0x000004
            udata_fsadd_1      udata   0x0003b6       data   0x000004
         udata_ulong2fs_0      udata   0x0003ba       data   0x000004
             udata_main_1      udata   0x0003be       data   0x000003
             udata_main_7      udata   0x0003c1       data   0x000003
            udata_main_10      udata   0x0003c4       data   0x000002
            udata_main_22      udata   0x0003c6       data   0x000002
            udata_main_27      udata   0x0003c8       data   0x000002
             udata_main_0      udata   0x0003ca       data   0x000001
             udata_main_2      udata   0x0003cb       data   0x000001
             udata_main_3      udata   0x0003cc       data   0x000001
             udata_main_5      udata   0x0003cd       data   0x000001
             udata_main_8      udata   0x0003ce       data   0x000001
            udata_main_11      udata   0x0003cf       data   0x000001
            udata_main_12      udata   0x0003d0       data   0x000001
            udata_main_15      udata   0x0003d1       data   0x000001
            udata_main_17      udata   0x0003d2       data   0x000001
            udata_main_19      udata   0x0003d3       data   0x000001
            udata_main_20      udata   0x0003d4       data   0x000001
      ustat_pic18f4550_00      udata   0x000f62       data   0x000023
      ustat_pic18f4550_01      udata   0x000f89       data   0x000005
      ustat_pic18f4550_02      udata   0x000f92       data   0x000005
      ustat_pic18f4550_03      udata   0x000f9b       data   0x000001
      ustat_pic18f4550_04      udata   0x000f9d       data   0x000006
      ustat_pic18f4550_05      udata   0x000fa6       data   0x000004
      ustat_pic18f4550_06      udata   0x000fab       data   0x00000e
      ustat_pic18f4550_07      udata   0x000fba       data   0x00001a
      ustat_pic18f4550_08      udata   0x000fd5       data   0x00002b



                              Program Memory Usage
                               Start         End
                           ---------   ---------
                            0x00201e    0x00201f
                            0x002f5e    0x0032f1
                            0x003ff2    0x003fff
                            0x007016    0x0070ad
                            0x0078ec    0x007903
                            0x00201a    0x00201d
                            0x002000    0x002019
                            0x002020    0x00206f
                            0x004000    0x004045
                            0x007874    0x007893
                            0x0057b4    0x005921
                            0x0075a8    0x0075f7
                            0x004d44    0x004f3f
                            0x0048a0    0x004b13
                            0x006078    0x006195
                            0x006e3c    0x006edb
                            0x005d08    0x005e33
                            0x0054c2    0x00563d
                            0x005922    0x005a79
                            0x0077ca    0x0077eb
                            0x007904    0x007915
                            0x0077ec    0x00780d
                            0x007916    0x007927
                            0x00798c    0x007997
                            0x007998    0x0079a3
                            0x007928    0x007939
                            0x00780e    0x00782f
                            0x00793a    0x00794b
                            0x007830    0x007851
                            0x00794c    0x00795d
                            0x007852    0x007873
                            0x0078b4    0x0078cf
                            0x0078d0    0x0078eb
                            0x003d0e    0x003fc5
                            0x0052fe    0x0054c1
                            0x0070ae    0x00713f
                            0x0071d0    0x007259
                            0x007756    0x00777f
                            0x003fc6    0x003ff1
                            0x007346    0x0073b7
                            0x006c3c    0x006ce7
                            0x006ce8    0x006d93
                            0x00725a    0x0072d1
                            0x004046    0x004343
                            0x004f40    0x00512d
                            0x0073b8    0x007429
                            0x007894    0x0078b3
                            0x0079a4    0x0079af
                            0x007556    0x0075a7
                            0x00742a    0x007491
                            0x0077a6    0x0077c9
                            0x007780    0x0077a5
                            0x0066a2    0x00677d
                            0x006d94    0x006e3b
                            0x002070    0x0027b9
                            0x003a00    0x003d0d
                            0x004b14    0x004d43
                            0x0063c0    0x0064b7
                            0x0079ba    0x0079bb
                            0x0079bc    0x0079bd
                            0x0079be    0x0079bf
                            0x0079c0    0x0079c1
                            0x006a00    0x006ad1
                            0x00795e    0x00796d
                            0x00796e    0x00797d
                            0x00677e    0x006855
                            0x0062b4    0x0063bf
                            0x006856    0x00692b
                            0x0074fa    0x007555
                            0x006f7c    0x007015
                            0x007640    0x007685
                            0x007686    0x0076cb
                            0x007712    0x007755
                            0x0076cc    0x007711
                            0x007492    0x0074f9
                            0x00692c    0x0069ff
                            0x005e34    0x005f57
                            0x0027ba    0x002baf
                            0x0079b0    0x0079b9
                            0x006edc    0x006f7b
                            0x0075f8    0x00763f
                            0x004344    0x0045f1
                            0x00512e    0x0052fd
                            0x0045f2    0x00489f
                            0x00001c    0x000079
                            0x005bce    0x005d07
                            0x006196    0x0062b3
                            0x0072d2    0x007345
                            0x0032f2    0x003685
                            0x0064b8    0x0065ad
                            0x007140    0x0071cf
                            0x006b8c    0x006c3b
                            0x003686    0x0039ff
                            0x0065ae    0x0066a1
                            0x006ad2    0x006b8b
                            0x005f58    0x006077
                            0x005a7a    0x005bcd
                            0x002bb0    0x002f5d
                            0x00563e    0x0057b3
                            0x00797e    0x00798b
                            23072 program addresses used



                              Symbols - Sorted by Name
                     Name    Address   Location    Storage File
                ---------  ---------  ---------  --------- ---------
               _00105_DS_   0x004690    program     static /home/valentin/.icaro/firmware/temporal/main.asm
               _00105_DS_   0x0033a2    program     static fsmul.asm
               _00105_DS_   0x00660e    program     static fs2ulong.asm
               _00106_DS_   0x006256    program     static fslt.asm
               _00106_DS_   0x0033ac    program     static fsmul.asm
               _00106_DS_   0x006554    program     static slong2fs.asm
               _00106_DS_   0x0071b4    program     static fs2uint.asm
               _00106_DS_   0x0037c4    program     static fsdiv.asm
               _00106_DS_   0x006618    program     static fs2ulong.asm
               _00106_DS_   0x006b38    program     static moduint.asm
               _00106_DS_   0x005b12    program     static fssub.asm
               _00106_DS_   0x002c76    program     static fsadd.asm
               _00107_DS_   0x0046c4    program     static /home/valentin/.icaro/firmware/temporal/main.asm
               _00107_DS_   0x0071ba    program     static fs2uint.asm
               _00107_DS_   0x006b12    program     static moduint.asm
               _00107_DS_   0x0056a8    program     static ulong2fs.asm
               _00108_DS_   0x005c84    program     static modulong.asm
               _00108_DS_   0x00625a    program     static fslt.asm
               _00108_DS_   0x006588    program     static slong2fs.asm
               _00108_DS_   0x0037da    program     static fsdiv.asm
               _00108_DS_   0x006684    program     static fs2ulong.asm
               _00108_DS_   0x005b40    program     static fssub.asm
               _00108_DS_   0x002c94    program     static fsadd.asm
               _00109_DS_   0x0046f4    program     static /home/valentin/.icaro/firmware/temporal/main.asm
               _00109_DS_   0x005c4a    program     static modulong.asm
               _00109_DS_   0x003566    program     static fsmul.asm
               _00109_DS_   0x006bd4    program     static divuint.asm
               _00109_DS_   0x005fd4    program     static divulong.asm
               _00109_DS_   0x005ba8    program     static fssub.asm
               _00110_DS_   0x003588    program     static fsmul.asm
               _00110_DS_   0x006c04    program     static divuint.asm
               _00110_DS_   0x003836    program     static fsdiv.asm
               _00110_DS_   0x006020    program     static divulong.asm
               _00110_DS_   0x002cde    program     static fsadd.asm
               _00110_DS_   0x0056dc    program     static ulong2fs.asm
               _00111_DS_   0x004728    program     static /home/valentin/.icaro/firmware/temporal/main.asm
               _00111_DS_   0x00628c    program     static fslt.asm
               _00111_DS_   0x006b54    program     static moduint.asm
               _00112_DS_   0x00628e    program     static fslt.asm
               _00112_DS_   0x0035de    program     static fsmul.asm
               _00112_DS_   0x0071ac    program     static fs2uint.asm
               _00112_DS_   0x0038aa    program     static fsdiv.asm
               _00112_DS_   0x006b40    program     static moduint.asm
               _00112_DS_   0x002d0c    program     static fsadd.asm
               _00113_DS_   0x004758    program     static /home/valentin/.icaro/firmware/temporal/main.asm
               _00113_DS_   0x005cb4    program     static modulong.asm
               _00113_DS_   0x00651c    program     static slong2fs.asm
               _00113_DS_   0x003848    program     static fsdiv.asm
               _00114_DS_   0x005c8c    program     static modulong.asm
               _00114_DS_   0x002d56    program     static fsadd.asm
               _00114_DS_   0x00570c    program     static ulong2fs.asm
               _00115_DS_   0x00478c    program     static /home/valentin/.icaro/firmware/temporal/main.asm
               _00115_DS_   0x0035ca    program     static fsmul.asm
               _00115_DS_   0x0038c0    program     static fsdiv.asm
               _00116_DS_   0x003634    program     static fsmul.asm
               _00116_DS_   0x002d78    program     static fsadd.asm
               _00116_DS_   0x005740    program     static ulong2fs.asm
               _00117_DS_   0x0047bc    program     static /home/valentin/.icaro/firmware/temporal/main.asm
               _00117_DS_   0x005cd6    program     static modulong.asm
               _00117_DS_   0x003644    program     static fsmul.asm
               _00117_DS_   0x003938    program     static fsdiv.asm
               _00117_DS_   0x006676    program     static fs2ulong.asm
               _00117_DS_   0x00577e    program     static ulong2fs.asm
               _00118_DS_   0x00665a    program     static fs2ulong.asm
               _00118_DS_   0x002dc2    program     static fsadd.asm
               _00119_DS_   0x0047f0    program     static /home/valentin/.icaro/firmware/temporal/main.asm
               _00119_DS_   0x0035a8    program     static fsmul.asm
               _00119_DS_   0x00666a    program     static fs2ulong.asm
               _00119_DS_   0x002dfe    program     static fsadd.asm
               _00120_DS_   0x0035b0    program     static fsmul.asm
               _00120_DS_   0x003924    program     static fsdiv.asm
               _00120_DS_   0x006668    program     static fs2ulong.asm
               _00121_DS_   0x004820    program     static /home/valentin/.icaro/firmware/temporal/main.asm
               _00121_DS_   0x0035ee    program     static fsmul.asm
               _00121_DS_   0x00398e    program     static fsdiv.asm
               _00121_DS_   0x0056a2    program     static ulong2fs.asm
               _00122_DS_   0x005c48    program     static modulong.asm
               _00122_DS_   0x0035f6    program     static fsmul.asm
               _00122_DS_   0x00399e    program     static fsdiv.asm
               _00123_DS_   0x004854    program     static /home/valentin/.icaro/firmware/temporal/main.asm
               _00123_DS_   0x002e36    program     static fsadd.asm
               _00124_DS_   0x003902    program     static fsdiv.asm
               _00124_DS_   0x0056bc    program     static ulong2fs.asm
               _00125_DS_   0x00390a    program     static fsdiv.asm
               _00125_DS_   0x002e4a    program     static fsadd.asm
               _00126_DS_   0x00487e    program     static /home/valentin/.icaro/firmware/temporal/main.asm
               _00126_DS_   0x006250    program     static fslt.asm
               _00126_DS_   0x003948    program     static fsdiv.asm
               _00127_DS_   0x006286    program     static fslt.asm
               _00127_DS_   0x006bf8    program     static divuint.asm
               _00127_DS_   0x003950    program     static fsdiv.asm
               _00127_DS_   0x00600c    program     static divulong.asm
               _00129_DS_   0x002ea6    program     static fsadd.asm
               _00130_DS_   0x002e84    program     static fsadd.asm
               _00132_DS_   0x002eb6    program     static fsadd.asm
               _00133_DS_   0x002f14    program     static fsadd.asm
               _00136_DS_   0x006b2e    program     static moduint.asm
               _00137_DS_   0x006b4a    program     static moduint.asm
               _00141_DS_   0x005c76    program     static modulong.asm
               _00141_DS_   0x0056da    program     static ulong2fs.asm
               _00142_DS_   0x005ca2    program     static modulong.asm
               _00142_DS_   0x005702    program     static ulong2fs.asm
               _00144_DS_   0x005732    program     static ulong2fs.asm
               _00145_DS_   0x005734    program     static ulong2fs.asm
               _00147_DS_   0x00467c    program     static /home/valentin/.icaro/firmware/temporal/main.asm
               _00152_DS_   0x0051b8    program     static /home/valentin/.icaro/firmware/temporal/main.asm
               _00152_DS_   0x003596    program     static fsmul.asm
               _00154_DS_   0x0051ee    program     static /home/valentin/.icaro/firmware/temporal/main.asm
               _00156_DS_   0x0051f4    program     static /home/valentin/.icaro/firmware/temporal/main.asm
               _00158_DS_   0x00522a    program     static /home/valentin/.icaro/firmware/temporal/main.asm
               _00160_DS_   0x005230    program     static /home/valentin/.icaro/firmware/temporal/main.asm
               _00162_DS_   0x005266    program     static /home/valentin/.icaro/firmware/temporal/main.asm
               _00164_DS_   0x00526c    program     static /home/valentin/.icaro/firmware/temporal/main.asm
               _00165_DS_   0x003824    program     static fsdiv.asm
               _00166_DS_   0x0052a2    program     static /home/valentin/.icaro/firmware/temporal/main.asm
               _00166_DS_   0x003870    program     static fsdiv.asm
               _00168_DS_   0x0052a8    program     static /home/valentin/.icaro/firmware/temporal/main.asm
               _00168_DS_   0x0038cc    program     static fsdiv.asm
               _00170_DS_   0x0052da    program     static /home/valentin/.icaro/firmware/temporal/main.asm
               _00170_DS_   0x0038f0    program     static fsdiv.asm
               _00172_DS_   0x0052e0    program     static /home/valentin/.icaro/firmware/temporal/main.asm
               _00173_DS_   0x0052e4    program     static /home/valentin/.icaro/firmware/temporal/main.asm
               _00181_DS_   0x002cca    program     static fsadd.asm
               _00182_DS_   0x002cf8    program     static fsadd.asm
               _00189_DS_   0x002d8a    program     static fsadd.asm
               _00190_DS_   0x002dc0    program     static fsadd.asm
               _00191_DS_   0x002da0    program     static fsadd.asm
               _00192_DS_   0x002db4    program     static fsadd.asm
               _00193_DS_   0x002db2    program     static fsadd.asm
               _00194_DS_   0x0051a4    program     static /home/valentin/.icaro/firmware/temporal/main.asm
               _00194_DS_   0x002df6    program     static fsadd.asm
               _00195_DS_   0x002dd6    program     static fsadd.asm
               _00196_DS_   0x002dea    program     static fsadd.asm
               _00197_DS_   0x002de8    program     static fsadd.asm
               _00198_DS_   0x002e2a    program     static fsadd.asm
               _00199_DS_   0x0043e2    program     static /home/valentin/.icaro/firmware/temporal/main.asm
               _00199_DS_   0x002e70    program     static fsadd.asm
               _00201_DS_   0x004416    program     static /home/valentin/.icaro/firmware/temporal/main.asm
               _00203_DS_   0x004446    program     static /home/valentin/.icaro/firmware/temporal/main.asm
               _00205_DS_   0x00447a    program     static /home/valentin/.icaro/firmware/temporal/main.asm
               _00207_DS_   0x0044aa    program     static /home/valentin/.icaro/firmware/temporal/main.asm
               _00209_DS_   0x0044de    program     static /home/valentin/.icaro/firmware/temporal/main.asm
               _00211_DS_   0x00450e    program     static /home/valentin/.icaro/firmware/temporal/main.asm
               _00213_DS_   0x004542    program     static /home/valentin/.icaro/firmware/temporal/main.asm
               _00215_DS_   0x004572    program     static /home/valentin/.icaro/firmware/temporal/main.asm
               _00217_DS_   0x0045a6    program     static /home/valentin/.icaro/firmware/temporal/main.asm
               _00220_DS_   0x0045d0    program     static /home/valentin/.icaro/firmware/temporal/main.asm
               _00241_DS_   0x0043ce    program     static /home/valentin/.icaro/firmware/temporal/main.asm
               _00247_DS_   0x007606    program     static /home/valentin/.icaro/firmware/temporal/main.asm
               _00264_DS_   0x006f56    program     static /home/valentin/.icaro/firmware/temporal/main.asm
               _00266_DS_   0x006ef4    program     static /home/valentin/.icaro/firmware/temporal/main.asm
               _00294_DS_   0x002906    program     static /home/valentin/.icaro/firmware/temporal/main.asm
               _00302_DS_   0x0029e6    program     static /home/valentin/.icaro/firmware/temporal/main.asm
               _00310_DS_   0x002ae6    program     static /home/valentin/.icaro/firmware/temporal/main.asm
               _00316_DS_   0x002a26    program     static /home/valentin/.icaro/firmware/temporal/main.asm
               _00319_DS_   0x00291e    program     static /home/valentin/.icaro/firmware/temporal/main.asm
               _00322_DS_   0x002846    program     static /home/valentin/.icaro/firmware/temporal/main.asm
               _00324_DS_   0x002b76    program     static /home/valentin/.icaro/firmware/temporal/main.asm
               _00325_DS_   0x0027f8    program     static /home/valentin/.icaro/firmware/temporal/main.asm
               _00327_DS_   0x002854    program     static /home/valentin/.icaro/firmware/temporal/main.asm
               _00328_DS_   0x002b22    program     static /home/valentin/.icaro/firmware/temporal/main.asm
               _00391_DS_   0x00291a    program     static /home/valentin/.icaro/firmware/temporal/main.asm
               _00396_DS_   0x0029fa    program     static /home/valentin/.icaro/firmware/temporal/main.asm
               _00411_DS_   0x005efa    program     static /home/valentin/.icaro/firmware/temporal/main.asm
               _00414_DS_   0x005eac    program     static /home/valentin/.icaro/firmware/temporal/main.asm
               _00416_DS_   0x005f3e    program     static /home/valentin/.icaro/firmware/temporal/main.asm
               _00439_DS_   0x0069be    program     static /home/valentin/.icaro/firmware/temporal/main.asm
               _00442_DS_   0x006988    program     static /home/valentin/.icaro/firmware/temporal/main.asm
               _00444_DS_   0x0069ea    program     static /home/valentin/.icaro/firmware/temporal/main.asm
               _00466_DS_   0x0074c2    program     static /home/valentin/.icaro/firmware/temporal/main.asm
               _00468_DS_   0x0074cc    program     static /home/valentin/.icaro/firmware/temporal/main.asm
               _00469_DS_   0x0074e8    program     static /home/valentin/.icaro/firmware/temporal/main.asm
               _00488_DS_   0x0076ec    program     static /home/valentin/.icaro/firmware/temporal/main.asm
               _00489_DS_   0x007704    program     static /home/valentin/.icaro/firmware/temporal/main.asm
               _00501_DS_   0x007748    program     static /home/valentin/.icaro/firmware/temporal/main.asm
               _00513_DS_   0x0076be    program     static /home/valentin/.icaro/firmware/temporal/main.asm
               _00526_DS_   0x007664    program     static /home/valentin/.icaro/firmware/temporal/main.asm
               _00530_DS_   0x007684    program     static /home/valentin/.icaro/firmware/temporal/main.asm
               _00537_DS_   0x006fc4    program     static /home/valentin/.icaro/firmware/temporal/main.asm
               _00539_DS_   0x006ff0    program     static /home/valentin/.icaro/firmware/temporal/main.asm
               _00548_DS_   0x006fda    program     static /home/valentin/.icaro/firmware/temporal/main.asm
               _00549_DS_   0x006fee    program     static /home/valentin/.icaro/firmware/temporal/main.asm
               _00556_DS_   0x007526    program     static /home/valentin/.icaro/firmware/temporal/main.asm
               _00558_DS_   0x00753c    program     static /home/valentin/.icaro/firmware/temporal/main.asm
               _00567_DS_   0x007534    program     static /home/valentin/.icaro/firmware/temporal/main.asm
               _00573_DS_   0x006900    program     static /home/valentin/.icaro/firmware/temporal/main.asm
               _00576_DS_   0x0068dc    program     static /home/valentin/.icaro/firmware/temporal/main.asm
               _00580_DS_   0x006916    program     static /home/valentin/.icaro/firmware/temporal/main.asm
               _00591_DS_   0x0068c6    program     static /home/valentin/.icaro/firmware/temporal/main.asm
               _00592_DS_   0x0068d4    program     static /home/valentin/.icaro/firmware/temporal/main.asm
               _00593_DS_   0x0068e8    program     static /home/valentin/.icaro/firmware/temporal/main.asm
               _00599_DS_   0x0062fe    program     static /home/valentin/.icaro/firmware/temporal/main.asm
               _00601_DS_   0x00634e    program     static /home/valentin/.icaro/firmware/temporal/main.asm
               _00603_DS_   0x00637a    program     static /home/valentin/.icaro/firmware/temporal/main.asm
               _00604_DS_   0x006382    program     static /home/valentin/.icaro/firmware/temporal/main.asm
               _00624_DS_   0x0062f6    program     static /home/valentin/.icaro/firmware/temporal/main.asm
               _00636_DS_   0x0067ca    program     static /home/valentin/.icaro/firmware/temporal/main.asm
               _00639_DS_   0x0067b4    program     static /home/valentin/.icaro/firmware/temporal/main.asm
               _00640_DS_   0x006814    program     static /home/valentin/.icaro/firmware/temporal/main.asm
               _00667_DS_   0x006a74    program     static /home/valentin/.icaro/firmware/temporal/main.asm
               _00672_DS_   0x006ab4    program     static /home/valentin/.icaro/firmware/temporal/main.asm
               _00686_DS_   0x006a42    program     static /home/valentin/.icaro/firmware/temporal/main.asm
               _00687_DS_   0x006a44    program     static /home/valentin/.icaro/firmware/temporal/main.asm
               _00692_DS_   0x006a7e    program     static /home/valentin/.icaro/firmware/temporal/main.asm
               _00693_DS_   0x006a80    program     static /home/valentin/.icaro/firmware/temporal/main.asm
               _00720_DS_   0x00646a    program     static /home/valentin/.icaro/firmware/temporal/main.asm
               _00722_DS_   0x006496    program     static /home/valentin/.icaro/firmware/temporal/main.asm
               _00727_DS_   0x00644e    program     static /home/valentin/.icaro/firmware/temporal/main.asm
               _00728_DS_   0x006494    program     static /home/valentin/.icaro/firmware/temporal/main.asm
               _00733_DS_   0x004bec    program     static /home/valentin/.icaro/firmware/temporal/main.asm
               _00735_DS_   0x004c06    program     static /home/valentin/.icaro/firmware/temporal/main.asm
               _00736_DS_   0x004c0e    program     static /home/valentin/.icaro/firmware/temporal/main.asm
               _00740_DS_   0x004c16    program     static /home/valentin/.icaro/firmware/temporal/main.asm
               _00745_DS_   0x004cec    program     static /home/valentin/.icaro/firmware/temporal/main.asm
               _00747_DS_   0x004bca    program     static /home/valentin/.icaro/firmware/temporal/main.asm
               _00750_DS_   0x004c26    program     static /home/valentin/.icaro/firmware/temporal/main.asm
               _00753_DS_   0x004c70    program     static /home/valentin/.icaro/firmware/temporal/main.asm
               _00756_DS_   0x004cba    program     static /home/valentin/.icaro/firmware/temporal/main.asm
               _00768_DS_   0x004c68    program     static /home/valentin/.icaro/firmware/temporal/main.asm
               _00770_DS_   0x004caa    program     static /home/valentin/.icaro/firmware/temporal/main.asm
               _00772_DS_   0x004c58    program     static /home/valentin/.icaro/firmware/temporal/main.asm
               _00799_DS_   0x004bb8    program     static /home/valentin/.icaro/firmware/temporal/main.asm
               _00800_DS_   0x004bea    program     static /home/valentin/.icaro/firmware/temporal/main.asm
               _00801_DS_   0x004bfe    program     static /home/valentin/.icaro/firmware/temporal/main.asm
               _00804_DS_   0x004c32    program     static /home/valentin/.icaro/firmware/temporal/main.asm
               _00805_DS_   0x004ca8    program     static /home/valentin/.icaro/firmware/temporal/main.asm
               _00806_DS_   0x004cc6    program     static /home/valentin/.icaro/firmware/temporal/main.asm
               _00812_DS_   0x003b2a    program     static /home/valentin/.icaro/firmware/temporal/main.asm
               _00814_DS_   0x003b56    program     static /home/valentin/.icaro/firmware/temporal/main.asm
               _00818_DS_   0x003bbe    program     static /home/valentin/.icaro/firmware/temporal/main.asm
               _00819_DS_   0x003b82    program     static /home/valentin/.icaro/firmware/temporal/main.asm
               _00823_DS_   0x003c3e    program     static /home/valentin/.icaro/firmware/temporal/main.asm
               _00827_DS_   0x003c58    program     static /home/valentin/.icaro/firmware/temporal/main.asm
               _00828_DS_   0x003c9c    program     static /home/valentin/.icaro/firmware/temporal/main.asm
               _00840_DS_   0x003bfc    program     static /home/valentin/.icaro/firmware/temporal/main.asm
               _00861_DS_   0x003b3a    program     static /home/valentin/.icaro/firmware/temporal/main.asm
               _00862_DS_   0x003b3c    program     static /home/valentin/.icaro/firmware/temporal/main.asm
               _00864_DS_   0x003bb8    program     static /home/valentin/.icaro/firmware/temporal/main.asm
               _00876_DS_   0x00217e    program     static /home/valentin/.icaro/firmware/temporal/main.asm
               _00881_DS_   0x0022c6    program     static /home/valentin/.icaro/firmware/temporal/main.asm
               _00883_DS_   0x002358    program     static /home/valentin/.icaro/firmware/temporal/main.asm
               _00885_DS_   0x0023e8    program     static /home/valentin/.icaro/firmware/temporal/main.asm
               _00887_DS_   0x002478    program     static /home/valentin/.icaro/firmware/temporal/main.asm
               _00889_DS_   0x002508    program     static /home/valentin/.icaro/firmware/temporal/main.asm
               _00891_DS_   0x002598    program     static /home/valentin/.icaro/firmware/temporal/main.asm
               _00893_DS_   0x002628    program     static /home/valentin/.icaro/firmware/temporal/main.asm
               _00895_DS_   0x0026ac    program     static /home/valentin/.icaro/firmware/temporal/main.asm
               _00898_DS_   0x0026f2    program     static /home/valentin/.icaro/firmware/temporal/main.asm
               _00902_DS_   0x00271a    program     static /home/valentin/.icaro/firmware/temporal/main.asm
               _00903_DS_   0x002726    program     static /home/valentin/.icaro/firmware/temporal/main.asm
               _00905_DS_   0x002756    program     static /home/valentin/.icaro/firmware/temporal/main.asm
               _00908_DS_   0x00219c    program     static /home/valentin/.icaro/firmware/temporal/main.asm
               _00911_DS_   0x00210a    program     static /home/valentin/.icaro/firmware/temporal/main.asm
               _00914_DS_   0x002278    program     static /home/valentin/.icaro/firmware/temporal/main.asm
               _00915_DS_   0x002284    program     static /home/valentin/.icaro/firmware/temporal/main.asm
               _00922_DS_   0x002172    program     static /home/valentin/.icaro/firmware/temporal/main.asm
               _00939_DS_   0x0021f6    program     static /home/valentin/.icaro/firmware/temporal/main.asm
               _00985_DS_   0x002122    program     static /home/valentin/.icaro/firmware/temporal/main.asm
               _00987_DS_   0x00212c    program     static /home/valentin/.icaro/firmware/temporal/main.asm
               _00988_DS_   0x002134    program     static /home/valentin/.icaro/firmware/temporal/main.asm
               _00990_DS_   0x00215e    program     static /home/valentin/.icaro/firmware/temporal/main.asm
               _00993_DS_   0x00216c    program     static /home/valentin/.icaro/firmware/temporal/main.asm
               _00996_DS_   0x002198    program     static /home/valentin/.icaro/firmware/temporal/main.asm
               _01000_DS_   0x0021f4    program     static /home/valentin/.icaro/firmware/temporal/main.asm
               _01002_DS_   0x002218    program     static /home/valentin/.icaro/firmware/temporal/main.asm
               _01004_DS_   0x0022ce    program     static /home/valentin/.icaro/firmware/temporal/main.asm
               _01006_DS_   0x002360    program     static /home/valentin/.icaro/firmware/temporal/main.asm
               _01008_DS_   0x0023f0    program     static /home/valentin/.icaro/firmware/temporal/main.asm
               _01010_DS_   0x002480    program     static /home/valentin/.icaro/firmware/temporal/main.asm
               _01012_DS_   0x002510    program     static /home/valentin/.icaro/firmware/temporal/main.asm
               _01014_DS_   0x0025a0    program     static /home/valentin/.icaro/firmware/temporal/main.asm
               _01016_DS_   0x002630    program     static /home/valentin/.icaro/firmware/temporal/main.asm
               _01019_DS_   0x002722    program     static /home/valentin/.icaro/firmware/temporal/main.asm
               _01037_DS_   0x007792    program     static /home/valentin/.icaro/firmware/temporal/main.asm
               _01042_DS_   0x0077b8    program     static /home/valentin/.icaro/firmware/temporal/main.asm
               _01051_DS_   0x00744c    program     static /home/valentin/.icaro/firmware/temporal/main.asm
               _01052_DS_   0x007450    program     static /home/valentin/.icaro/firmware/temporal/main.asm
               _01054_DS_   0x007476    program     static /home/valentin/.icaro/firmware/temporal/main.asm
               _01057_DS_   0x007484    program     static /home/valentin/.icaro/firmware/temporal/main.asm
               _01069_DS_   0x007444    program     static /home/valentin/.icaro/firmware/temporal/main.asm
               _01081_DS_   0x007598    program     static /home/valentin/.icaro/firmware/temporal/main.asm
               _01101_DS_   0x007898    program     static /home/valentin/.icaro/firmware/temporal/main.asm
               _01114_DS_   0x004fbc    program     static /home/valentin/.icaro/firmware/temporal/main.asm
               _01117_DS_   0x005088    program     static /home/valentin/.icaro/firmware/temporal/main.asm
               _01121_DS_   0x00500a    program     static /home/valentin/.icaro/firmware/temporal/main.asm
               _01123_DS_   0x0050d4    program     static /home/valentin/.icaro/firmware/temporal/main.asm
               _01126_DS_   0x0050b4    program     static /home/valentin/.icaro/firmware/temporal/main.asm
               _01127_DS_   0x0050b8    program     static /home/valentin/.icaro/firmware/temporal/main.asm
               _01133_DS_   0x005006    program     static /home/valentin/.icaro/firmware/temporal/main.asm
               _01150_DS_   0x004fe4    program     static /home/valentin/.icaro/firmware/temporal/main.asm
               _01151_DS_   0x00507e    program     static /home/valentin/.icaro/firmware/temporal/main.asm
               _01152_DS_   0x00509c    program     static /home/valentin/.icaro/firmware/temporal/main.asm
               _01153_DS_   0x0050ac    program     static /home/valentin/.icaro/firmware/temporal/main.asm
               _01158_DS_   0x0040dc    program     static /home/valentin/.icaro/firmware/temporal/main.asm
               _01159_DS_   0x004128    program     static /home/valentin/.icaro/firmware/temporal/main.asm
               _01160_DS_   0x004174    program     static /home/valentin/.icaro/firmware/temporal/main.asm
               _01161_DS_   0x0041b8    program     static /home/valentin/.icaro/firmware/temporal/main.asm
               _01162_DS_   0x004234    program     static /home/valentin/.icaro/firmware/temporal/main.asm
               _01163_DS_   0x0042b0    program     static /home/valentin/.icaro/firmware/temporal/main.asm
               _01165_DS_   0x004318    program     static /home/valentin/.icaro/firmware/temporal/main.asm
               _01175_DS_   0x0040c8    program     static /home/valentin/.icaro/firmware/temporal/main.asm
               _01186_DS_   0x006d12    program     static /home/valentin/.icaro/firmware/temporal/main.asm
               _01197_DS_   0x006d46    program     static /home/valentin/.icaro/firmware/temporal/main.asm
               _01198_DS_   0x006d36    program     static /home/valentin/.icaro/firmware/temporal/main.asm
               _01199_DS_   0x006d40    program     static /home/valentin/.icaro/firmware/temporal/main.asm
               _01200_DS_   0x006d3e    program     static /home/valentin/.icaro/firmware/temporal/main.asm
               _01202_DS_   0x006d70    program     static /home/valentin/.icaro/firmware/temporal/main.asm
               _01208_DS_   0x006c66    program     static /home/valentin/.icaro/firmware/temporal/main.asm
               _01219_DS_   0x006c9a    program     static /home/valentin/.icaro/firmware/temporal/main.asm
               _01220_DS_   0x006c8a    program     static /home/valentin/.icaro/firmware/temporal/main.asm
               _01221_DS_   0x006c94    program     static /home/valentin/.icaro/firmware/temporal/main.asm
               _01222_DS_   0x006c92    program     static /home/valentin/.icaro/firmware/temporal/main.asm
               _01224_DS_   0x006cc4    program     static /home/valentin/.icaro/firmware/temporal/main.asm
               _01230_DS_   0x007390    program     static /home/valentin/.icaro/firmware/temporal/main.asm
               _01232_DS_   0x0073a6    program     static /home/valentin/.icaro/firmware/temporal/main.asm
               _01253_DS_   0x007214    program     static /home/valentin/.icaro/firmware/temporal/main.asm
               _01266_DS_   0x0070e8    program     static /home/valentin/.icaro/firmware/temporal/main.asm
               _01268_DS_   0x00711e    program     static /home/valentin/.icaro/firmware/temporal/main.asm
               _01275_DS_   0x005382    program     static /home/valentin/.icaro/firmware/temporal/main.asm
               _01280_DS_   0x00542c    program     static /home/valentin/.icaro/firmware/temporal/main.asm
               _01282_DS_   0x00547c    program     static /home/valentin/.icaro/firmware/temporal/main.asm
               _01286_DS_   0x005460    program     static /home/valentin/.icaro/firmware/temporal/main.asm
               _01287_DS_   0x005466    program     static /home/valentin/.icaro/firmware/temporal/main.asm
               _01290_DS_   0x00537a    program     static /home/valentin/.icaro/firmware/temporal/main.asm
               _01293_DS_   0x00541c    program     static /home/valentin/.icaro/firmware/temporal/main.asm
               _01308_DS_   0x0053a2    program     static /home/valentin/.icaro/firmware/temporal/main.asm
               _01315_DS_   0x003d9a    program     static /home/valentin/.icaro/firmware/temporal/main.asm
               _01316_DS_   0x003de2    program     static /home/valentin/.icaro/firmware/temporal/main.asm
               _01319_DS_   0x003ec4    program     static /home/valentin/.icaro/firmware/temporal/main.asm
               _01323_DS_   0x003da6    program     static /home/valentin/.icaro/firmware/temporal/main.asm
               _01325_DS_   0x003f8c    program     static /home/valentin/.icaro/firmware/temporal/main.asm
               _01425_DS_   0x00595e    program     static /home/valentin/.icaro/firmware/temporal/main.asm
               _01428_DS_   0x0059f8    program     static /home/valentin/.icaro/firmware/temporal/main.asm
               _01429_DS_   0x005a40    program     static /home/valentin/.icaro/firmware/temporal/main.asm
               _01447_DS_   0x00595a    program     static /home/valentin/.icaro/firmware/temporal/main.asm
               _01457_DS_   0x0055ce    program     static /home/valentin/.icaro/firmware/temporal/main.asm
               _01459_DS_   0x005590    program     static /home/valentin/.icaro/firmware/temporal/main.asm
               _01461_DS_   0x0055d8    program     static /home/valentin/.icaro/firmware/temporal/main.asm
               _01463_DS_   0x005614    program     static /home/valentin/.icaro/firmware/temporal/main.asm
               _01479_DS_   0x0055ca    program     static /home/valentin/.icaro/firmware/temporal/main.asm
               _01480_DS_   0x005612    program     static /home/valentin/.icaro/firmware/temporal/main.asm
               _01487_DS_   0x005dbe    program     static /home/valentin/.icaro/firmware/temporal/main.asm
               _01488_DS_   0x005dc0    program     static /home/valentin/.icaro/firmware/temporal/main.asm
               _01493_DS_   0x006e48    program     static /home/valentin/.icaro/firmware/temporal/main.asm
               _01496_DS_   0x006e98    program     static /home/valentin/.icaro/firmware/temporal/main.asm
               _01498_DS_   0x006ec8    program     static /home/valentin/.icaro/firmware/temporal/main.asm
               _01504_DS_   0x006e94    program     static /home/valentin/.icaro/firmware/temporal/main.asm
               _01514_DS_   0x006eb2    program     static /home/valentin/.icaro/firmware/temporal/main.asm
               _01515_DS_   0x006eb4    program     static /home/valentin/.icaro/firmware/temporal/main.asm
               _01529_DS_   0x004a68    program     static /home/valentin/.icaro/firmware/temporal/main.asm
               _01531_DS_   0x004a9c    program     static /home/valentin/.icaro/firmware/temporal/main.asm
               _01533_DS_   0x004ac0    program     static /home/valentin/.icaro/firmware/temporal/main.asm
               _01536_DS_   0x0049c2    program     static /home/valentin/.icaro/firmware/temporal/main.asm
               _01537_DS_   0x004a1a    program     static /home/valentin/.icaro/firmware/temporal/main.asm
               _01538_DS_   0x004aee    program     static /home/valentin/.icaro/firmware/temporal/main.asm
               _01561_DS_   0x0049ea    program     static /home/valentin/.icaro/firmware/temporal/main.asm
               _01562_DS_   0x0049ec    program     static /home/valentin/.icaro/firmware/temporal/main.asm
               _01563_DS_   0x004a32    program     static /home/valentin/.icaro/firmware/temporal/main.asm
               _01564_DS_   0x004a3e    program     static /home/valentin/.icaro/firmware/temporal/main.asm
               _01565_DS_   0x004a40    program     static /home/valentin/.icaro/firmware/temporal/main.asm
               _01566_DS_   0x004a72    program     static /home/valentin/.icaro/firmware/temporal/main.asm
               _01567_DS_   0x004a74    program     static /home/valentin/.icaro/firmware/temporal/main.asm
               _01568_DS_   0x004aa6    program     static /home/valentin/.icaro/firmware/temporal/main.asm
               _01569_DS_   0x004aa8    program     static /home/valentin/.icaro/firmware/temporal/main.asm
               _01570_DS_   0x004aca    program     static /home/valentin/.icaro/firmware/temporal/main.asm
               _01571_DS_   0x004acc    program     static /home/valentin/.icaro/firmware/temporal/main.asm
               _01577_DS_   0x004e00    program     static /home/valentin/.icaro/firmware/temporal/main.asm
               _01585_DS_   0x004f06    program     static /home/valentin/.icaro/firmware/temporal/main.asm
               _01596_DS_   0x00584c    program     static /home/valentin/.icaro/firmware/temporal/main.asm
               _01598_DS_   0x005884    program     static /home/valentin/.icaro/firmware/temporal/main.asm
               _01600_DS_   0x0058bc    program     static /home/valentin/.icaro/firmware/temporal/main.asm
               _01601_DS_   0x0058e4    program     static /home/valentin/.icaro/firmware/temporal/main.asm
               _01608_DS_   0x005910    program     static /home/valentin/.icaro/firmware/temporal/main.asm
               _01631_DS_   0x0057f2    program     static /home/valentin/.icaro/firmware/temporal/main.asm
               _01632_DS_   0x0057f4    program     static /home/valentin/.icaro/firmware/temporal/main.asm
               _01633_DS_   0x005858    program     static /home/valentin/.icaro/firmware/temporal/main.asm
               _01634_DS_   0x00585a    program     static /home/valentin/.icaro/firmware/temporal/main.asm
               _01635_DS_   0x005890    program     static /home/valentin/.icaro/firmware/temporal/main.asm
               _01636_DS_   0x005892    program     static /home/valentin/.icaro/firmware/temporal/main.asm
               _01637_DS_   0x0058d4    program     static /home/valentin/.icaro/firmware/temporal/main.asm
               _01638_DS_   0x0058d6    program     static /home/valentin/.icaro/firmware/temporal/main.asm
               _01640_DS_   0x0058f0    program     static /home/valentin/.icaro/firmware/temporal/main.asm
               _01646_DS_   0x00788c    program     static /home/valentin/.icaro/firmware/temporal/main.asm
               _11660_DS_   0x005948    program     static /home/valentin/.icaro/firmware/temporal/main.asm
                  _ADCON0   0x000fc2       data     extern libdev18f4550_a-pic18f4550.asm
              _ADCON0bits   0x000fc2       data     extern libdev18f4550_a-pic18f4550.asm
                  _ADCON1   0x000fc1       data     extern libdev18f4550_a-pic18f4550.asm
              _ADCON1bits   0x000fc1       data     extern libdev18f4550_a-pic18f4550.asm
                  _ADCON2   0x000fc0       data     extern libdev18f4550_a-pic18f4550.asm
              _ADCON2bits   0x000fc0       data     extern libdev18f4550_a-pic18f4550.asm
                  _ADRESH   0x000fc4       data     extern libdev18f4550_a-pic18f4550.asm
                  _ADRESL   0x000fc3       data     extern libdev18f4550_a-pic18f4550.asm
                 _BAUDCON   0x000fb8       data     extern libdev18f4550_a-pic18f4550.asm
             _BAUDCONbits   0x000fb8       data     extern libdev18f4550_a-pic18f4550.asm
                     _BSR   0x000fe0       data     extern libdev18f4550_a-pic18f4550.asm
                 _BSRbits   0x000fe0       data     extern libdev18f4550_a-pic18f4550.asm
                 _CCP1CON   0x000fbd       data     extern libdev18f4550_a-pic18f4550.asm
             _CCP1CONbits   0x000fbd       data     extern libdev18f4550_a-pic18f4550.asm
                 _CCP2CON   0x000fba       data     extern libdev18f4550_a-pic18f4550.asm
             _CCP2CONbits   0x000fba       data     extern libdev18f4550_a-pic18f4550.asm
                  _CCPR1H   0x000fbf       data     extern libdev18f4550_a-pic18f4550.asm
                  _CCPR1L   0x000fbe       data     extern libdev18f4550_a-pic18f4550.asm
                  _CCPR2H   0x000fbc       data     extern libdev18f4550_a-pic18f4550.asm
                  _CCPR2L   0x000fbb       data     extern libdev18f4550_a-pic18f4550.asm
                   _CMCON   0x000fb4       data     extern libdev18f4550_a-pic18f4550.asm
               _CMCONbits   0x000fb4       data     extern libdev18f4550_a-pic18f4550.asm
                  _CVRCON   0x000fb5       data     extern libdev18f4550_a-pic18f4550.asm
              _CVRCONbits   0x000fb5       data     extern libdev18f4550_a-pic18f4550.asm
                 _Delayms   0x006f7c    program     extern /home/valentin/.icaro/firmware/temporal/main.asm
                 _Delayus   0x0074fa    program     extern /home/valentin/.icaro/firmware/temporal/main.asm
                 _ECCP1AS   0x000fb6       data     extern libdev18f4550_a-pic18f4550.asm
             _ECCP1ASbits   0x000fb6       data     extern libdev18f4550_a-pic18f4550.asm
                _ECCP1DEL   0x000fb7       data     extern libdev18f4550_a-pic18f4550.asm
            _ECCP1DELbits   0x000fb7       data     extern libdev18f4550_a-pic18f4550.asm
                   _EEADR   0x000fa9       data     extern libdev18f4550_a-pic18f4550.asm
                  _EECON1   0x000fa6       data     extern libdev18f4550_a-pic18f4550.asm
              _EECON1bits   0x000fa6       data     extern libdev18f4550_a-pic18f4550.asm
                  _EECON2   0x000fa7       data     extern libdev18f4550_a-pic18f4550.asm
                  _EEDATA   0x000fa8       data     extern libdev18f4550_a-pic18f4550.asm
                   _FSR0H   0x000fea       data     extern libdev18f4550_a-pic18f4550.asm
               _FSR0Hbits   0x000fea       data     extern libdev18f4550_a-pic18f4550.asm
                   _FSR0L   0x000fe9       data     extern libdev18f4550_a-pic18f4550.asm
                   _FSR1H   0x000fe2       data     extern libdev18f4550_a-pic18f4550.asm
               _FSR1Hbits   0x000fe2       data     extern libdev18f4550_a-pic18f4550.asm
                   _FSR1L   0x000fe1       data     extern libdev18f4550_a-pic18f4550.asm
                   _FSR2H   0x000fda       data     extern libdev18f4550_a-pic18f4550.asm
               _FSR2Hbits   0x000fda       data     extern libdev18f4550_a-pic18f4550.asm
                   _FSR2L   0x000fd9       data     extern libdev18f4550_a-pic18f4550.asm
                 _HLVDCON   0x000fd2       data     extern libdev18f4550_a-pic18f4550.asm
             _HLVDCONbits   0x000fd2       data     extern libdev18f4550_a-pic18f4550.asm
                   _INDF0   0x000fef       data     extern libdev18f4550_a-pic18f4550.asm
                   _INDF1   0x000fe7       data     extern libdev18f4550_a-pic18f4550.asm
                   _INDF2   0x000fdf       data     extern libdev18f4550_a-pic18f4550.asm
                  _INTCON   0x000ff2       data     extern libdev18f4550_a-pic18f4550.asm
                 _INTCON2   0x000ff1       data     extern libdev18f4550_a-pic18f4550.asm
             _INTCON2bits   0x000ff1       data     extern libdev18f4550_a-pic18f4550.asm
                 _INTCON3   0x000ff0       data     extern libdev18f4550_a-pic18f4550.asm
             _INTCON3bits   0x000ff0       data     extern libdev18f4550_a-pic18f4550.asm
              _INTCONbits   0x000ff2       data     extern libdev18f4550_a-pic18f4550.asm
                    _IPR1   0x000f9f       data     extern libdev18f4550_a-pic18f4550.asm
                _IPR1bits   0x000f9f       data     extern libdev18f4550_a-pic18f4550.asm
                    _IPR2   0x000fa2       data     extern libdev18f4550_a-pic18f4550.asm
                _IPR2bits   0x000fa2       data     extern libdev18f4550_a-pic18f4550.asm
                    _LATA   0x000f89       data     extern libdev18f4550_a-pic18f4550.asm
                _LATAbits   0x000f89       data     extern libdev18f4550_a-pic18f4550.asm
                    _LATB   0x000f8a       data     extern libdev18f4550_a-pic18f4550.asm
                _LATBbits   0x000f8a       data     extern libdev18f4550_a-pic18f4550.asm
                    _LATC   0x000f8b       data     extern libdev18f4550_a-pic18f4550.asm
                _LATCbits   0x000f8b       data     extern libdev18f4550_a-pic18f4550.asm
                    _LATD   0x000f8c       data     extern libdev18f4550_a-pic18f4550.asm
                _LATDbits   0x000f8c       data     extern libdev18f4550_a-pic18f4550.asm
                    _LATE   0x000f8d       data     extern libdev18f4550_a-pic18f4550.asm
                _LATEbits   0x000f8d       data     extern libdev18f4550_a-pic18f4550.asm
                  _OSCCON   0x000fd3       data     extern libdev18f4550_a-pic18f4550.asm
              _OSCCONbits   0x000fd3       data     extern libdev18f4550_a-pic18f4550.asm
                 _OSCTUNE   0x000f9b       data     extern libdev18f4550_a-pic18f4550.asm
             _OSCTUNEbits   0x000f9b       data     extern libdev18f4550_a-pic18f4550.asm
                     _PCL   0x000ff9       data     extern libdev18f4550_a-pic18f4550.asm
                  _PCLATH   0x000ffa       data     extern libdev18f4550_a-pic18f4550.asm
              _PCLATHbits   0x000ffa       data     extern libdev18f4550_a-pic18f4550.asm
                  _PCLATU   0x000ffb       data     extern libdev18f4550_a-pic18f4550.asm
              _PCLATUbits   0x000ffb       data     extern libdev18f4550_a-pic18f4550.asm
                    _PIE1   0x000f9d       data     extern libdev18f4550_a-pic18f4550.asm
                _PIE1bits   0x000f9d       data     extern libdev18f4550_a-pic18f4550.asm
                    _PIE2   0x000fa0       data     extern libdev18f4550_a-pic18f4550.asm
                _PIE2bits   0x000fa0       data     extern libdev18f4550_a-pic18f4550.asm
                    _PIR1   0x000f9e       data     extern libdev18f4550_a-pic18f4550.asm
                _PIR1bits   0x000f9e       data     extern libdev18f4550_a-pic18f4550.asm
                    _PIR2   0x000fa1       data     extern libdev18f4550_a-pic18f4550.asm
                _PIR2bits   0x000fa1       data     extern libdev18f4550_a-pic18f4550.asm
                  _PLUSW0   0x000feb       data     extern libdev18f4550_a-pic18f4550.asm
                  _PLUSW1   0x000fe3       data     extern libdev18f4550_a-pic18f4550.asm
                  _PLUSW2   0x000fdb       data     extern libdev18f4550_a-pic18f4550.asm
                   _PORTA   0x000f80       data     extern libdev18f4550_a-pic18f4550.asm
               _PORTAbits   0x000f80       data     extern libdev18f4550_a-pic18f4550.asm
                   _PORTB   0x000f81       data     extern libdev18f4550_a-pic18f4550.asm
               _PORTBbits   0x000f81       data     extern libdev18f4550_a-pic18f4550.asm
                   _PORTC   0x000f82       data     extern libdev18f4550_a-pic18f4550.asm
               _PORTCbits   0x000f82       data     extern libdev18f4550_a-pic18f4550.asm
                   _PORTD   0x000f83       data     extern libdev18f4550_a-pic18f4550.asm
               _PORTDbits   0x000f83       data     extern libdev18f4550_a-pic18f4550.asm
                   _PORTE   0x000f84       data     extern libdev18f4550_a-pic18f4550.asm
               _PORTEbits   0x000f84       data     extern libdev18f4550_a-pic18f4550.asm
                _POSTDEC0   0x000fed       data     extern libdev18f4550_a-pic18f4550.asm
                _POSTDEC1   0x000fe5       data     extern libdev18f4550_a-pic18f4550.asm
                _POSTDEC2   0x000fdd       data     extern libdev18f4550_a-pic18f4550.asm
                _POSTINC0   0x000fee       data     extern libdev18f4550_a-pic18f4550.asm
                _POSTINC1   0x000fe6       data     extern libdev18f4550_a-pic18f4550.asm
                _POSTINC2   0x000fde       data     extern libdev18f4550_a-pic18f4550.asm
                     _PR2   0x000fcb       data     extern libdev18f4550_a-pic18f4550.asm
                 _PREINC0   0x000fec       data     extern libdev18f4550_a-pic18f4550.asm
                 _PREINC1   0x000fe4       data     extern libdev18f4550_a-pic18f4550.asm
                 _PREINC2   0x000fdc       data     extern libdev18f4550_a-pic18f4550.asm
                   _PRODH   0x000ff4       data     extern libdev18f4550_a-pic18f4550.asm
                   _PRODL   0x000ff3       data     extern libdev18f4550_a-pic18f4550.asm
       _PWM_set_dutycycle   0x0062b4    program     extern /home/valentin/.icaro/firmware/temporal/main.asm
       _PWM_set_frequency   0x006856    program     extern /home/valentin/.icaro/firmware/temporal/main.asm
_PWM_set_percent_dutycycle   0x00677e    program     extern /home/valentin/.icaro/firmware/temporal/main.asm
                    _RCON   0x000fd0       data     extern libdev18f4550_a-pic18f4550.asm
                _RCONbits   0x000fd0       data     extern libdev18f4550_a-pic18f4550.asm
                   _RCREG   0x000fae       data     extern libdev18f4550_a-pic18f4550.asm
                   _RCSTA   0x000fab       data     extern libdev18f4550_a-pic18f4550.asm
               _RCSTAbits   0x000fab       data     extern libdev18f4550_a-pic18f4550.asm
                   _SPBRG   0x000faf       data     extern libdev18f4550_a-pic18f4550.asm
                  _SPBRGH   0x000fb0       data     extern libdev18f4550_a-pic18f4550.asm
                  _SPPCFG   0x000f63       data     extern libdev18f4550_a-pic18f4550.asm
              _SPPCFGbits   0x000f63       data     extern libdev18f4550_a-pic18f4550.asm
                  _SPPCON   0x000f65       data     extern libdev18f4550_a-pic18f4550.asm
              _SPPCONbits   0x000f65       data     extern libdev18f4550_a-pic18f4550.asm
                 _SPPDATA   0x000f62       data     extern libdev18f4550_a-pic18f4550.asm
             _SPPDATAbits   0x000f62       data     extern libdev18f4550_a-pic18f4550.asm
                  _SPPEPS   0x000f64       data     extern libdev18f4550_a-pic18f4550.asm
              _SPPEPSbits   0x000f64       data     extern libdev18f4550_a-pic18f4550.asm
                  _SSPADD   0x000fc8       data     extern libdev18f4550_a-pic18f4550.asm
                  _SSPBUF   0x000fc9       data     extern libdev18f4550_a-pic18f4550.asm
                 _SSPCON1   0x000fc6       data     extern libdev18f4550_a-pic18f4550.asm
             _SSPCON1bits   0x000fc6       data     extern libdev18f4550_a-pic18f4550.asm
                 _SSPCON2   0x000fc5       data     extern libdev18f4550_a-pic18f4550.asm
             _SSPCON2bits   0x000fc5       data     extern libdev18f4550_a-pic18f4550.asm
                 _SSPSTAT   0x000fc7       data     extern libdev18f4550_a-pic18f4550.asm
             _SSPSTATbits   0x000fc7       data     extern libdev18f4550_a-pic18f4550.asm
                  _STATUS   0x000fd8       data     extern libdev18f4550_a-pic18f4550.asm
              _STATUSbits   0x000fd8       data     extern libdev18f4550_a-pic18f4550.asm
                  _STKPTR   0x000ffc       data     extern libdev18f4550_a-pic18f4550.asm
              _STKPTRbits   0x000ffc       data     extern libdev18f4550_a-pic18f4550.asm
             _ServoAttach   0x005e34    program     extern /home/valentin/.icaro/firmware/temporal/main.asm
             _ServoDetach   0x00692c    program     extern /home/valentin/.icaro/firmware/temporal/main.asm
       _ServoMaximumPulse   0x007686    program     extern /home/valentin/.icaro/firmware/temporal/main.asm
       _ServoMinimumPulse   0x007712    program     extern /home/valentin/.icaro/firmware/temporal/main.asm
               _ServoRead   0x0076cc    program     extern /home/valentin/.icaro/firmware/temporal/main.asm
              _ServoWrite   0x007492    program     extern /home/valentin/.icaro/firmware/temporal/main.asm
         _ServosPulseDown   0x006edc    program     static /home/valentin/.icaro/firmware/temporal/main.asm
           _ServosPulseUp   0x0079b0    program     static /home/valentin/.icaro/firmware/temporal/main.asm
        _SortServoTimings   0x0027ba    program     static /home/valentin/.icaro/firmware/temporal/main.asm
_SortServoTimings_mascaratotal_1_27   0x0003c1       data     static /home/valentin/.icaro/firmware/temporal/main.asm
                   _T0CON   0x000fd5       data     extern libdev18f4550_a-pic18f4550.asm
               _T0CONbits   0x000fd5       data     extern libdev18f4550_a-pic18f4550.asm
                   _T1CON   0x000fcd       data     extern libdev18f4550_a-pic18f4550.asm
               _T1CONbits   0x000fcd       data     extern libdev18f4550_a-pic18f4550.asm
                   _T2CON   0x000fca       data     extern libdev18f4550_a-pic18f4550.asm
               _T2CONbits   0x000fca       data     extern libdev18f4550_a-pic18f4550.asm
                   _T3CON   0x000fb1       data     extern libdev18f4550_a-pic18f4550.asm
               _T3CONbits   0x000fb1       data     extern libdev18f4550_a-pic18f4550.asm
                  _TABLAT   0x000ff5       data     extern libdev18f4550_a-pic18f4550.asm
                 _TBLPTRH   0x000ff7       data     extern libdev18f4550_a-pic18f4550.asm
                 _TBLPTRL   0x000ff6       data     extern libdev18f4550_a-pic18f4550.asm
                 _TBLPTRU   0x000ff8       data     extern libdev18f4550_a-pic18f4550.asm
             _TBLPTRUbits   0x000ff8       data     extern libdev18f4550_a-pic18f4550.asm
                   _TMR0H   0x000fd7       data     extern libdev18f4550_a-pic18f4550.asm
                   _TMR0L   0x000fd6       data     extern libdev18f4550_a-pic18f4550.asm
                   _TMR1H   0x000fcf       data     extern libdev18f4550_a-pic18f4550.asm
                   _TMR1L   0x000fce       data     extern libdev18f4550_a-pic18f4550.asm
                    _TMR2   0x000fcc       data     extern libdev18f4550_a-pic18f4550.asm
                   _TMR3H   0x000fb3       data     extern libdev18f4550_a-pic18f4550.asm
                   _TMR3L   0x000fb2       data     extern libdev18f4550_a-pic18f4550.asm
                    _TOSH   0x000ffe       data     extern libdev18f4550_a-pic18f4550.asm
                    _TOSL   0x000ffd       data     extern libdev18f4550_a-pic18f4550.asm
                    _TOSU   0x000fff       data     extern libdev18f4550_a-pic18f4550.asm
                _TOSUbits   0x000fff       data     extern libdev18f4550_a-pic18f4550.asm
                   _TRISA   0x000f92       data     extern libdev18f4550_a-pic18f4550.asm
               _TRISAbits   0x000f92       data     extern libdev18f4550_a-pic18f4550.asm
                   _TRISB   0x000f93       data     extern libdev18f4550_a-pic18f4550.asm
               _TRISBbits   0x000f93       data     extern libdev18f4550_a-pic18f4550.asm
                   _TRISC   0x000f94       data     extern libdev18f4550_a-pic18f4550.asm
               _TRISCbits   0x000f94       data     extern libdev18f4550_a-pic18f4550.asm
                   _TRISD   0x000f95       data     extern libdev18f4550_a-pic18f4550.asm
               _TRISDbits   0x000f95       data     extern libdev18f4550_a-pic18f4550.asm
                   _TRISE   0x000f96       data     extern libdev18f4550_a-pic18f4550.asm
               _TRISEbits   0x000f96       data     extern libdev18f4550_a-pic18f4550.asm
                   _TXREG   0x000fad       data     extern libdev18f4550_a-pic18f4550.asm
                   _TXSTA   0x000fac       data     extern libdev18f4550_a-pic18f4550.asm
               _TXSTAbits   0x000fac       data     extern libdev18f4550_a-pic18f4550.asm
                   _UADDR   0x000f6e       data     extern libdev18f4550_a-pic18f4550.asm
               _UADDRbits   0x000f6e       data     extern libdev18f4550_a-pic18f4550.asm
                    _UCFG   0x000f6f       data     extern libdev18f4550_a-pic18f4550.asm
                _UCFGbits   0x000f6f       data     extern libdev18f4550_a-pic18f4550.asm
                    _UCON   0x000f6d       data     extern libdev18f4550_a-pic18f4550.asm
                _UCONbits   0x000f6d       data     extern libdev18f4550_a-pic18f4550.asm
                    _UEIE   0x000f6b       data     extern libdev18f4550_a-pic18f4550.asm
                _UEIEbits   0x000f6b       data     extern libdev18f4550_a-pic18f4550.asm
                    _UEIR   0x000f6a       data     extern libdev18f4550_a-pic18f4550.asm
                _UEIRbits   0x000f6a       data     extern libdev18f4550_a-pic18f4550.asm
                    _UEP0   0x000f70       data     extern libdev18f4550_a-pic18f4550.asm
                _UEP0bits   0x000f70       data     extern libdev18f4550_a-pic18f4550.asm
                    _UEP1   0x000f71       data     extern libdev18f4550_a-pic18f4550.asm
                   _UEP10   0x000f7a       data     extern libdev18f4550_a-pic18f4550.asm
               _UEP10bits   0x000f7a       data     extern libdev18f4550_a-pic18f4550.asm
                   _UEP11   0x000f7b       data     extern libdev18f4550_a-pic18f4550.asm
               _UEP11bits   0x000f7b       data     extern libdev18f4550_a-pic18f4550.asm
                   _UEP12   0x000f7c       data     extern libdev18f4550_a-pic18f4550.asm
               _UEP12bits   0x000f7c       data     extern libdev18f4550_a-pic18f4550.asm
                   _UEP13   0x000f7d       data     extern libdev18f4550_a-pic18f4550.asm
               _UEP13bits   0x000f7d       data     extern libdev18f4550_a-pic18f4550.asm
                   _UEP14   0x000f7e       data     extern libdev18f4550_a-pic18f4550.asm
               _UEP14bits   0x000f7e       data     extern libdev18f4550_a-pic18f4550.asm
                   _UEP15   0x000f7f       data     extern libdev18f4550_a-pic18f4550.asm
               _UEP15bits   0x000f7f       data     extern libdev18f4550_a-pic18f4550.asm
                _UEP1bits   0x000f71       data     extern libdev18f4550_a-pic18f4550.asm
                    _UEP2   0x000f72       data     extern libdev18f4550_a-pic18f4550.asm
                _UEP2bits   0x000f72       data     extern libdev18f4550_a-pic18f4550.asm
                    _UEP3   0x000f73       data     extern libdev18f4550_a-pic18f4550.asm
                _UEP3bits   0x000f73       data     extern libdev18f4550_a-pic18f4550.asm
                    _UEP4   0x000f74       data     extern libdev18f4550_a-pic18f4550.asm
                _UEP4bits   0x000f74       data     extern libdev18f4550_a-pic18f4550.asm
                    _UEP5   0x000f75       data     extern libdev18f4550_a-pic18f4550.asm
                _UEP5bits   0x000f75       data     extern libdev18f4550_a-pic18f4550.asm
                    _UEP6   0x000f76       data     extern libdev18f4550_a-pic18f4550.asm
                _UEP6bits   0x000f76       data     extern libdev18f4550_a-pic18f4550.asm
                    _UEP7   0x000f77       data     extern libdev18f4550_a-pic18f4550.asm
                _UEP7bits   0x000f77       data     extern libdev18f4550_a-pic18f4550.asm
                    _UEP8   0x000f78       data     extern libdev18f4550_a-pic18f4550.asm
                _UEP8bits   0x000f78       data     extern libdev18f4550_a-pic18f4550.asm
                    _UEP9   0x000f79       data     extern libdev18f4550_a-pic18f4550.asm
                _UEP9bits   0x000f79       data     extern libdev18f4550_a-pic18f4550.asm
                   _UFRMH   0x000f67       data     extern libdev18f4550_a-pic18f4550.asm
               _UFRMHbits   0x000f67       data     extern libdev18f4550_a-pic18f4550.asm
                   _UFRML   0x000f66       data     extern libdev18f4550_a-pic18f4550.asm
               _UFRMLbits   0x000f66       data     extern libdev18f4550_a-pic18f4550.asm
                     _UIE   0x000f69       data     extern libdev18f4550_a-pic18f4550.asm
                 _UIEbits   0x000f69       data     extern libdev18f4550_a-pic18f4550.asm
                     _UIR   0x000f68       data     extern libdev18f4550_a-pic18f4550.asm
                 _UIRbits   0x000f68       data     extern libdev18f4550_a-pic18f4550.asm
                   _USTAT   0x000f6c       data     extern libdev18f4550_a-pic18f4550.asm
               _USTATbits   0x000f6c       data     extern libdev18f4550_a-pic18f4550.asm
                  _WDTCON   0x000fd1       data     extern libdev18f4550_a-pic18f4550.asm
              _WDTCONbits   0x000fd1       data     extern libdev18f4550_a-pic18f4550.asm
                    _WREG   0x000fe8       data     extern libdev18f4550_a-pic18f4550.asm
               ___fs2uint   0x007140    program     extern fs2uint.asm
              ___fs2ulong   0x0065ae    program     extern fs2ulong.asm
     ___fs2ulong_fl1_1_22   0x0003a6       data     static fs2ulong.asm
                 ___fsadd   0x002bb0    program     extern fsadd.asm
        ___fsadd_fl1_1_22   0x0003b2       data     static fsadd.asm
        ___fsadd_fl2_1_22   0x0003b6       data     static fsadd.asm
                 ___fsdiv   0x003686    program     extern fsdiv.asm
        ___fsdiv_fl1_1_22   0x00039e       data     static fsdiv.asm
        ___fsdiv_fl2_1_22   0x0003a2       data     static fsdiv.asm
                  ___fslt   0x006196    program     extern fslt.asm
         ___fslt_fl1_1_22   0x0002fc       data     static fslt.asm
         ___fslt_fl2_1_22   0x000392       data     static fslt.asm
                 ___fsmul   0x0032f2    program     extern fsmul.asm
        ___fsmul_fl1_1_22   0x000396       data     static fsmul.asm
        ___fsmul_fl2_1_22   0x00039a       data     static fsmul.asm
                 ___fssub   0x005a7a    program     extern fssub.asm
        ___fssub_fl1_1_22   0x0003aa       data     static fssub.asm
        ___fssub_fl2_1_22   0x0003ae       data     static fssub.asm
               ___sint2fs   0x0072d2    program     extern sint2fs.asm
              ___slong2fs   0x0064b8    program     extern slong2fs.asm
                 ___str_0   0x0032c8    program     static /home/valentin/.icaro/firmware/temporal/main.asm
                 ___str_1   0x0032d0    program     static /home/valentin/.icaro/firmware/temporal/main.asm
                 ___str_2   0x0032e6    program     static /home/valentin/.icaro/firmware/temporal/main.asm
                 ___str_3   0x0032ea    program     static /home/valentin/.icaro/firmware/temporal/main.asm
                 ___str_5   0x0032ee    program     static /home/valentin/.icaro/firmware/temporal/main.asm
                 ___str_6   0x0032f0    program     static /home/valentin/.icaro/firmware/temporal/main.asm
                ___uflags   0x000348       data     extern obj/Debug/crt0ipinguino.asm
              ___ulong2fs   0x00563e    program     extern ulong2fs.asm
      ___ulong2fs_fl_1_22   0x0003ba       data     static ulong2fs.asm
               __currline   0x0003cc       data     extern /home/valentin/.icaro/firmware/temporal/main.asm
              __data_pins   0x000362       data     extern /home/valentin/.icaro/firmware/temporal/main.asm
         __displaycontrol   0x0003d3       data     extern /home/valentin/.icaro/firmware/temporal/main.asm
        __displayfunction   0x0003d1       data     extern /home/valentin/.icaro/firmware/temporal/main.asm
            __displaymode   0x0003d4       data     extern /home/valentin/.icaro/firmware/temporal/main.asm
                __divuint   0x006b8c    program     extern divuint.asm
               __divulong   0x005f58    program     extern divulong.asm
               __do_cinit   0x007016    program     extern obj/Debug/crt0ipinguino.asm
             __enable_pin   0x000353       data     extern /home/valentin/.icaro/firmware/temporal/main.asm
               __gptrget1   0x000052    program     extern boot_iface.asm
               __gptrget2   0x000056    program     extern boot_iface.asm
               __gptrget3   0x00005a    program     extern boot_iface.asm
               __gptrget4   0x00005e    program     extern boot_iface.asm
               __gptrput1   0x000062    program     extern boot_iface.asm
               __gptrput2   0x000066    program     extern boot_iface.asm
               __gptrput3   0x00006a    program     extern boot_iface.asm
                      __i   0x000354       data     extern /home/valentin/.icaro/firmware/temporal/main.asm
            __initialized   0x0003cb       data     extern /home/valentin/.icaro/firmware/temporal/main.asm
                __moduint   0x006ad2    program     extern moduint.asm
               __modulong   0x005bce    program     extern modulong.asm
                 __mulint   0x00004e    program     extern boot_iface.asm
                __mullong   0x00004a    program     extern boot_iface.asm
               __numlines   0x0003d2       data     extern /home/valentin/.icaro/firmware/temporal/main.asm
              __pr2_plus1   0x00034f       data     extern /home/valentin/.icaro/firmware/temporal/main.asm
                 __rs_pin   0x000351       data     extern /home/valentin/.icaro/firmware/temporal/main.asm
                 __rw_pin   0x000352       data     extern /home/valentin/.icaro/firmware/temporal/main.asm
                __startup   0x0078ec    program     extern obj/Debug/crt0ipinguino.asm
                  __t2con   0x0003ce       data     extern /home/valentin/.icaro/firmware/temporal/main.asm
         _activatedservos   0x00034c       data     extern /home/valentin/.icaro/firmware/temporal/main.asm
         _application_cfg   0x002fa2    program     extern usb_descriptors.asm
        _application_data   0x002000    program     extern application_iface.asm
        _application_main   0x00201a    program     extern obj/Debug/crt0ipinguino.asm
              _autoscroll   0x007904    program     extern /home/valentin/.icaro/firmware/temporal/main.asm
                   _begin   0x005922    program     extern /home/valentin/.icaro/firmware/temporal/main.asm
                   _blink   0x007928    program     extern /home/valentin/.icaro/firmware/temporal/main.asm
         _boot_goto_table   0x00001c    program     extern boot_iface.asm
            _boot_version   0x00001c    program     extern boot_iface.asm
                 _caminar   0x004d44    program     extern /home/valentin/.icaro/firmware/temporal/main.asm
      _caminar_cder_1_314   0x000382       data     static /home/valentin/.icaro/firmware/temporal/main.asm
      _caminar_cizq_1_314   0x00038a       data     static /home/valentin/.icaro/firmware/temporal/main.asm
      _caminar_pder_1_314   0x000372       data     static /home/valentin/.icaro/firmware/temporal/main.asm
      _caminar_pizq_1_314   0x00037a       data     static /home/valentin/.icaro/firmware/temporal/main.asm
               _caractere   0x0003c8       data     extern /home/valentin/.icaro/firmware/temporal/main.asm
                   _cinit   0x00797e    program     extern 
                   _clear   0x0078b4    program     extern /home/valentin/.icaro/firmware/temporal/main.asm
                 _command   0x007756    program     extern /home/valentin/.icaro/firmware/temporal/main.asm
_configuration_descriptor   0x002fc2    program     extern usb_descriptors.asm
                  _cursor   0x00793a    program     extern /home/valentin/.icaro/firmware/temporal/main.asm
             _default_cfg   0x002f70    program     extern usb_descriptors.asm
             _delay10ktcy   0x00006e    program     extern boot_iface.asm
              _delay10tcy   0x000076    program     extern boot_iface.asm
              _delay1ktcy   0x000072    program     extern boot_iface.asm
       _device_descriptor   0x002f5e    program     extern usb_descriptors.asm
             _digitalread   0x00512e    program     extern /home/valentin/.icaro/firmware/temporal/main.asm
            _digitalwrite   0x0045f2    program     extern /home/valentin/.icaro/firmware/temporal/main.asm
      _dispatch_usb_event   0x00001e    program     extern boot_iface.asm
                 _display   0x00794c    program     extern /home/valentin/.icaro/firmware/temporal/main.asm
                  _ep0_in   0x000032    program     extern boot_iface.asm
                _ep0_init   0x00002e    program     extern boot_iface.asm
               _ep0_setup   0x000036    program     extern boot_iface.asm
                _ep1_init   0x00003a    program     extern boot_iface.asm
                 _ep1_out   0x00003e    program     extern boot_iface.asm
                  _ep2_in   0x000046    program     extern boot_iface.asm
                _ep2_init   0x000042    program     extern boot_iface.asm
                   _ep_in   0x003196    program     extern usb_descriptors.asm
              _ep_in_cfg0   0x003106    program     static usb_descriptors.asm
              _ep_in_cfg1   0x003136    program     static usb_descriptors.asm
              _ep_in_cfg2   0x003166    program     static usb_descriptors.asm
                 _ep_init   0x0030fa    program     extern usb_descriptors.asm
            _ep_init_cfg0   0x00306a    program     static usb_descriptors.asm
            _ep_init_cfg1   0x00309a    program     static usb_descriptors.asm
            _ep_init_cfg2   0x0030ca    program     static usb_descriptors.asm
                  _ep_out   0x003232    program     extern usb_descriptors.asm
             _ep_out_cfg0   0x0031a2    program     static usb_descriptors.asm
             _ep_out_cfg1   0x0031d2    program     static usb_descriptors.asm
             _ep_out_cfg2   0x003202    program     static usb_descriptors.asm
                _ep_setup   0x00326e    program     extern usb_descriptors.asm
           _ep_setup_cfg0   0x00323e    program     static usb_descriptors.asm
                 _epap_in   0x0079c0    program     extern /home/valentin/.icaro/firmware/temporal/main.asm
                _epap_out   0x0079be    program     extern /home/valentin/.icaro/firmware/temporal/main.asm
             _epapin_init   0x0079bc    program     extern /home/valentin/.icaro/firmware/temporal/main.asm
            _epapout_init   0x0079ba    program     extern /home/valentin/.icaro/firmware/temporal/main.asm
          _fill_in_buffer   0x00002a    program     extern boot_iface.asm
               _flash_cfg   0x002f82    program     extern usb_descriptors.asm
       _high_priority_isr   0x002020    program     extern /home/valentin/.icaro/firmware/temporal/main.asm
                    _home   0x0078d0    program     extern /home/valentin/.icaro/firmware/temporal/main.asm
                    _init   0x0054c2    program     extern /home/valentin/.icaro/firmware/temporal/main.asm
              _init_PWM11   0x00796e    program     extern /home/valentin/.icaro/firmware/temporal/main.asm
              _init_PWM12   0x00795e    program     extern /home/valentin/.icaro/firmware/temporal/main.asm
                     _lcd   0x005d08    program     extern /home/valentin/.icaro/firmware/temporal/main.asm
                _lcdPrint   0x0070ae    program     extern /home/valentin/.icaro/firmware/temporal/main.asm
             _leftToRight   0x007916    program     extern /home/valentin/.icaro/firmware/temporal/main.asm
                    _loop   0x0057b4    program     extern /home/valentin/.icaro/firmware/temporal/main.asm
                 _loopvar   0x0003ca       data     extern /home/valentin/.icaro/firmware/temporal/main.asm
        _low_priority_isr   0x004000    program     extern /home/valentin/.icaro/firmware/temporal/main.asm
                    _mask   0x00327a    program     extern /home/valentin/.icaro/firmware/temporal/main.asm
                    _mens   0x0048a0    program     extern /home/valentin/.icaro/firmware/temporal/main.asm
            _mens_n_1_306   0x0003c6       data     static /home/valentin/.icaro/firmware/temporal/main.asm
            _mens_p_1_306   0x000280       data     static /home/valentin/.icaro/firmware/temporal/main.asm
          _needreordering   0x00034a       data     extern /home/valentin/.icaro/firmware/temporal/main.asm
            _noAutoscroll   0x0077ca    program     extern /home/valentin/.icaro/firmware/temporal/main.asm
                 _noBlink   0x00780e    program     extern /home/valentin/.icaro/firmware/temporal/main.asm
                _noCursor   0x007830    program     extern /home/valentin/.icaro/firmware/temporal/main.asm
               _noDisplay   0x007852    program     extern /home/valentin/.icaro/firmware/temporal/main.asm
           _null_function   0x00201e    program     extern usb_descriptors.asm
                  _parado   0x0075a8    program     extern /home/valentin/.icaro/firmware/temporal/main.asm
                   _phase   0x000349       data     extern /home/valentin/.icaro/firmware/temporal/main.asm
                    _ping   0x006e3c    program     extern /home/valentin/.icaro/firmware/temporal/main.asm
           _pinguino_main   0x007874    program     extern /home/valentin/.icaro/firmware/temporal/main.asm
                 _pinmode   0x004344    program     extern /home/valentin/.icaro/firmware/temporal/main.asm
                    _port   0x003298    program     extern /home/valentin/.icaro/firmware/temporal/main.asm
                   _print   0x002070    program     static /home/valentin/.icaro/firmware/temporal/main.asm
              _printFloat   0x003d0e    program     extern /home/valentin/.icaro/firmware/temporal/main.asm
             _printNumber   0x0052fe    program     extern /home/valentin/.icaro/firmware/temporal/main.asm
   _printNumber_buf_1_260   0x0002ca       data     static /home/valentin/.icaro/firmware/temporal/main.asm
         _print_scr_1_164   0x0003c4       data     static /home/valentin/.icaro/firmware/temporal/main.asm
               _printchar   0x0063c0    program     static /home/valentin/.icaro/firmware/temporal/main.asm
               _printfmod   0x006d94    program     extern /home/valentin/.icaro/firmware/temporal/main.asm
                  _printi   0x003a00    program     static /home/valentin/.icaro/firmware/temporal/main.asm
  _printi_print_buf_1_156   0x000356       data     static /home/valentin/.icaro/firmware/temporal/main.asm
                  _prints   0x004b14    program     static /home/valentin/.icaro/firmware/temporal/main.asm
             _pulseEnable   0x00725a    program     extern /home/valentin/.icaro/firmware/temporal/main.asm
                _putchar1   0x0003be       data     static /home/valentin/.icaro/firmware/temporal/main.asm
               _reset_usb   0x000022    program     extern boot_iface.asm
             _rightToLeft   0x0077ec    program     extern /home/valentin/.icaro/firmware/temporal/main.asm
                _rpointer   0x0003d0       data     extern /home/valentin/.icaro/firmware/temporal/main.asm
                      _rx   0x000200       data     extern /home/valentin/.icaro/firmware/temporal/main.asm
       _scrollDisplayLeft   0x007998    program     extern /home/valentin/.icaro/firmware/temporal/main.asm
      _scrollDisplayRight   0x00798c    program     extern /home/valentin/.icaro/firmware/temporal/main.asm
                    _send   0x007346    program     extern /home/valentin/.icaro/firmware/temporal/main.asm
        _serial_available   0x007780    program     extern /home/valentin/.icaro/firmware/temporal/main.asm
            _serial_begin   0x0066a2    program     extern /home/valentin/.icaro/firmware/temporal/main.asm
            _serial_flush   0x0079a4    program     extern /home/valentin/.icaro/firmware/temporal/main.asm
           _serial_getkey   0x007894    program     extern /home/valentin/.icaro/firmware/temporal/main.asm
        _serial_interrupt   0x00742a    program     extern /home/valentin/.icaro/firmware/temporal/main.asm
           _serial_printf   0x0073b8    program     extern /home/valentin/.icaro/firmware/temporal/main.asm
        _serial_putchar11   0x0077a6    program     extern /home/valentin/.icaro/firmware/temporal/main.asm
             _serial_read   0x007556    program     extern /home/valentin/.icaro/firmware/temporal/main.asm
            _serial_write   0x004046    program     extern /home/valentin/.icaro/firmware/temporal/main.asm
              _servomasks   0x0032b6    program     extern /home/valentin/.icaro/firmware/temporal/main.asm
             _servos_init   0x0075f8    program     extern /home/valentin/.icaro/firmware/temporal/main.asm
        _servos_interrupt   0x007640    program     extern /home/valentin/.icaro/firmware/temporal/main.asm
             _servovalues   0x0002ea       data     extern /home/valentin/.icaro/firmware/temporal/main.asm
               _setCursor   0x0071d0    program     extern /home/valentin/.icaro/firmware/temporal/main.asm
_setCursor_row_offsets_1_254   0x00036a       data     static /home/valentin/.icaro/firmware/temporal/main.asm
                 _set_PWM   0x006a00    program     extern /home/valentin/.icaro/firmware/temporal/main.asm
                   _setup   0x006078    program     extern /home/valentin/.icaro/firmware/temporal/main.asm
                   _stack   0x000100       data     extern stack/stack.S
               _stack_end   0x0001ff       data     extern stack/stack.S
                    _str0   0x002fcc    program     extern usb_descriptors.asm
                    _str1   0x002fd0    program     extern usb_descriptors.asm
                    _str2   0x002ff6    program     extern usb_descriptors.asm
                    _str3   0x003018    program     extern usb_descriptors.asm
                    _str4   0x00301c    program     extern usb_descriptors.asm
                    _str5   0x00302c    program     extern usb_descriptors.asm
                    _str6   0x003038    program     extern usb_descriptors.asm
       _string_descriptor   0x003054    program     extern usb_descriptors.asm
            _timedivision   0x00034b       data     extern /home/valentin/.icaro/firmware/temporal/main.asm
             _timingindex   0x0003cd       data     extern /home/valentin/.icaro/firmware/temporal/main.asm
                 _timings   0x000300       data     extern /home/valentin/.icaro/firmware/temporal/main.asm
                _uitoamod   0x004f40    program     static /home/valentin/.icaro/firmware/temporal/main.asm
  _usb_active_alt_setting   0x00005d       data     extern boot_iface.asm
          _usb_active_cfg   0x00005e       data     extern boot_iface.asm
        _usb_device_state   0x00005f       data     extern boot_iface.asm
               _usb_sleep   0x000026    program     extern boot_iface.asm
                _wpointer   0x0003cf       data     extern /home/valentin/.icaro/firmware/temporal/main.asm
                   _write   0x003fc6    program     extern /home/valentin/.icaro/firmware/temporal/main.asm
              _write4bits   0x006ce8    program     extern /home/valentin/.icaro/firmware/temporal/main.asm
              _write8bits   0x006c3c    program     extern /home/valentin/.icaro/firmware/temporal/main.asm
                    bucle   0x006f5a    program     static /home/valentin/.icaro/firmware/temporal/main.asm
                    cont1   0x007036    program     static obj/Debug/crt0ipinguino.asm
                copy_loop   0x007084    program     static obj/Debug/crt0ipinguino.asm
            copy_one_byte   0x00708a    program     static obj/Debug/crt0ipinguino.asm
                     done   0x0070ac    program     static obj/Debug/crt0ipinguino.asm
             done_copying   0x007098    program     static obj/Debug/crt0ipinguino.asm
                   lockup   0x007902    program     static obj/Debug/crt0ipinguino.asm
                    r0x00   0x000000       data     static /home/valentin/.icaro/firmware/temporal/main.asm
                    r0x00   0x000000       data     static modulong.asm
                    r0x00   0x000000       data     static fslt.asm
                    r0x00   0x000000       data     static sint2fs.asm
                    r0x00   0x000000       data     static fsmul.asm
                    r0x00   0x000000       data     static slong2fs.asm
                    r0x00   0x000000       data     static fs2uint.asm
                    r0x00   0x000000       data     static divuint.asm
                    r0x00   0x000000       data     static fsdiv.asm
                    r0x00   0x000000       data     static fs2ulong.asm
                    r0x00   0x000000       data     static moduint.asm
                    r0x00   0x000000       data     static divulong.asm
                    r0x00   0x000000       data     static fssub.asm
                    r0x00   0x000000       data     static fsadd.asm
                    r0x00   0x000000       data     static ulong2fs.asm
                    r0x01   0x000001       data     static /home/valentin/.icaro/firmware/temporal/main.asm
                    r0x01   0x000001       data     static modulong.asm
                    r0x01   0x000001       data     static fslt.asm
                    r0x01   0x000001       data     static sint2fs.asm
                    r0x01   0x000001       data     static fsmul.asm
                    r0x01   0x000001       data     static slong2fs.asm
                    r0x01   0x000001       data     static fs2uint.asm
                    r0x01   0x000001       data     static divuint.asm
                    r0x01   0x000001       data     static fsdiv.asm
                    r0x01   0x000001       data     static fs2ulong.asm
                    r0x01   0x000001       data     static moduint.asm
                    r0x01   0x000001       data     static divulong.asm
                    r0x01   0x000001       data     static fssub.asm
                    r0x01   0x000001       data     static fsadd.asm
                    r0x01   0x000001       data     static ulong2fs.asm
                    r0x02   0x000002       data     static /home/valentin/.icaro/firmware/temporal/main.asm
                    r0x02   0x000002       data     static modulong.asm
                    r0x02   0x000002       data     static fslt.asm
                    r0x02   0x000002       data     static sint2fs.asm
                    r0x02   0x000002       data     static fsmul.asm
                    r0x02   0x000002       data     static slong2fs.asm
                    r0x02   0x000002       data     static fs2uint.asm
                    r0x02   0x000002       data     static divuint.asm
                    r0x02   0x000002       data     static fsdiv.asm
                    r0x02   0x000002       data     static fs2ulong.asm
                    r0x02   0x000002       data     static moduint.asm
                    r0x02   0x000002       data     static divulong.asm
                    r0x02   0x000002       data     static fssub.asm
                    r0x02   0x000002       data     static fsadd.asm
                    r0x02   0x000002       data     static ulong2fs.asm
                    r0x03   0x000003       data     static /home/valentin/.icaro/firmware/temporal/main.asm
                    r0x03   0x000003       data     static modulong.asm
                    r0x03   0x000003       data     static fslt.asm
                    r0x03   0x000003       data     static sint2fs.asm
                    r0x03   0x000003       data     static fsmul.asm
                    r0x03   0x000003       data     static slong2fs.asm
                    r0x03   0x000003       data     static fs2uint.asm
                    r0x03   0x000003       data     static divuint.asm
                    r0x03   0x000003       data     static fsdiv.asm
                    r0x03   0x000003       data     static fs2ulong.asm
                    r0x03   0x000003       data     static moduint.asm
                    r0x03   0x000003       data     static divulong.asm
                    r0x03   0x000003       data     static fssub.asm
                    r0x03   0x000003       data     static fsadd.asm
                    r0x03   0x000003       data     static ulong2fs.asm
                    r0x04   0x000004       data     static /home/valentin/.icaro/firmware/temporal/main.asm
                    r0x04   0x000004       data     static modulong.asm
                    r0x04   0x000004       data     static fslt.asm
                    r0x04   0x000004       data     static fsmul.asm
                    r0x04   0x000004       data     static slong2fs.asm
                    r0x04   0x000004       data     static divuint.asm
                    r0x04   0x000004       data     static fsdiv.asm
                    r0x04   0x000004       data     static fs2ulong.asm
                    r0x04   0x000004       data     static moduint.asm
                    r0x04   0x000004       data     static divulong.asm
                    r0x04   0x000004       data     static fssub.asm
                    r0x04   0x000004       data     static fsadd.asm
                    r0x04   0x000004       data     static ulong2fs.asm
                    r0x05   0x000005       data     static /home/valentin/.icaro/firmware/temporal/main.asm
                    r0x05   0x000005       data     static modulong.asm
                    r0x05   0x000005       data     static fslt.asm
                    r0x05   0x000005       data     static fsmul.asm
                    r0x05   0x000005       data     static slong2fs.asm
                    r0x05   0x000005       data     static divuint.asm
                    r0x05   0x000005       data     static fsdiv.asm
                    r0x05   0x000005       data     static fs2ulong.asm
                    r0x05   0x000005       data     static moduint.asm
                    r0x05   0x000005       data     static divulong.asm
                    r0x05   0x000005       data     static fssub.asm
                    r0x05   0x000005       data     static fsadd.asm
                    r0x05   0x000005       data     static ulong2fs.asm
                    r0x06   0x000006       data     static /home/valentin/.icaro/firmware/temporal/main.asm
                    r0x06   0x000006       data     static modulong.asm
                    r0x06   0x000006       data     static fslt.asm
                    r0x06   0x000006       data     static fsmul.asm
                    r0x06   0x000006       data     static slong2fs.asm
                    r0x06   0x000006       data     static divuint.asm
                    r0x06   0x000006       data     static fsdiv.asm
                    r0x06   0x000006       data     static moduint.asm
                    r0x06   0x000006       data     static divulong.asm
                    r0x06   0x000006       data     static fssub.asm
                    r0x06   0x000006       data     static fsadd.asm
                    r0x06   0x000006       data     static ulong2fs.asm
                    r0x07   0x000007       data     static /home/valentin/.icaro/firmware/temporal/main.asm
                    r0x07   0x000007       data     static modulong.asm
                    r0x07   0x000007       data     static fslt.asm
                    r0x07   0x000007       data     static fsmul.asm
                    r0x07   0x000007       data     static slong2fs.asm
                    r0x07   0x000007       data     static divuint.asm
                    r0x07   0x000007       data     static fsdiv.asm
                    r0x07   0x000007       data     static divulong.asm
                    r0x07   0x000007       data     static fssub.asm
                    r0x07   0x000007       data     static fsadd.asm
                    r0x07   0x000007       data     static ulong2fs.asm
                    r0x08   0x000008       data     static /home/valentin/.icaro/firmware/temporal/main.asm
                    r0x08   0x000008       data     static modulong.asm
                    r0x08   0x000008       data     static fsmul.asm
                    r0x08   0x000008       data     static fsdiv.asm
                    r0x08   0x000008       data     static divulong.asm
                    r0x08   0x000008       data     static fsadd.asm
                    r0x08   0x000008       data     static ulong2fs.asm
                    r0x09   0x000009       data     static /home/valentin/.icaro/firmware/temporal/main.asm
                    r0x09   0x000009       data     static modulong.asm
                    r0x09   0x000009       data     static fsmul.asm
                    r0x09   0x000009       data     static fsdiv.asm
                    r0x09   0x000009       data     static divulong.asm
                    r0x09   0x000009       data     static fsadd.asm
                    r0x09   0x000009       data     static ulong2fs.asm
                    r0x0a   0x00000a       data     static /home/valentin/.icaro/firmware/temporal/main.asm
                    r0x0a   0x00000a       data     static modulong.asm
                    r0x0a   0x00000a       data     static fsmul.asm
                    r0x0a   0x00000a       data     static fsdiv.asm
                    r0x0a   0x00000a       data     static divulong.asm
                    r0x0a   0x00000a       data     static fsadd.asm
                    r0x0a   0x00000a       data     static ulong2fs.asm
                    r0x0b   0x00000b       data     static /home/valentin/.icaro/firmware/temporal/main.asm
                    r0x0b   0x00000b       data     static fsmul.asm
                    r0x0b   0x00000b       data     static fsdiv.asm
                    r0x0b   0x00000b       data     static divulong.asm
                    r0x0b   0x00000b       data     static fsadd.asm
                    r0x0b   0x00000b       data     static ulong2fs.asm
                    r0x0c   0x00000c       data     static /home/valentin/.icaro/firmware/temporal/main.asm
                    r0x0c   0x00000c       data     static fsmul.asm
                    r0x0c   0x00000c       data     static fsdiv.asm
                    r0x0c   0x00000c       data     static divulong.asm
                    r0x0c   0x00000c       data     static fsadd.asm
                    r0x0d   0x00000d       data     static /home/valentin/.icaro/firmware/temporal/main.asm
                    r0x0d   0x00000d       data     static fsmul.asm
                    r0x0d   0x00000d       data     static fsdiv.asm
                    r0x0d   0x00000d       data     static divulong.asm
                    r0x0d   0x00000d       data     static fsadd.asm
                    r0x0e   0x00000e       data     static /home/valentin/.icaro/firmware/temporal/main.asm
                    r0x0e   0x00000e       data     static fsmul.asm
                    r0x0e   0x00000e       data     static fsdiv.asm
                    r0x0e   0x00000e       data     static fsadd.asm
                    r0x0f   0x00000f       data     static /home/valentin/.icaro/firmware/temporal/main.asm
                    r0x0f   0x00000f       data     static fsmul.asm
                    r0x0f   0x00000f       data     static fsdiv.asm
                    r0x0f   0x00000f       data     static fsadd.asm
                    r0x10   0x000010       data     static /home/valentin/.icaro/firmware/temporal/main.asm
                    r0x10   0x000010       data     static fsdiv.asm
                    r0x10   0x000010       data     static fsadd.asm
                    r0x11   0x000011       data     static /home/valentin/.icaro/firmware/temporal/main.asm
                    r0x11   0x000011       data     static fsdiv.asm
                    r0x12   0x000012       data     static /home/valentin/.icaro/firmware/temporal/main.asm
                    r0x12   0x000012       data     static fsdiv.asm
                    r0x13   0x000013       data     static /home/valentin/.icaro/firmware/temporal/main.asm
                    r0x13   0x000013       data     static fsdiv.asm
                    r0x14   0x000014       data     static /home/valentin/.icaro/firmware/temporal/main.asm
                    r0x14   0x000014       data     static fsdiv.asm
                    r0x15   0x000015       data     static /home/valentin/.icaro/firmware/temporal/main.asm
                    r0x15   0x000015       data     static fsdiv.asm
                    r0x16   0x000016       data     static /home/valentin/.icaro/firmware/temporal/main.asm
                    r0x16   0x000016       data     static fsdiv.asm
                    r0x17   0x000017       data     static /home/valentin/.icaro/firmware/temporal/main.asm
                    r0x18   0x000018       data     static /home/valentin/.icaro/firmware/temporal/main.asm
                    r0x19   0x000019       data     static /home/valentin/.icaro/firmware/temporal/main.asm
                    r0x1a   0x00001a       data     static /home/valentin/.icaro/firmware/temporal/main.asm
                     test   0x007030    program     static obj/Debug/crt0ipinguino.asm



                              Symbols - Sorted by Address
                     Name    Address   Location    Storage File
                ---------  ---------  ---------  --------- ---------
                    r0x00   0x000000       data     static /home/valentin/.icaro/firmware/temporal/main.asm
                    r0x00   0x000000       data     static modulong.asm
                    r0x00   0x000000       data     static fslt.asm
                    r0x00   0x000000       data     static sint2fs.asm
                    r0x00   0x000000       data     static fsmul.asm
                    r0x00   0x000000       data     static slong2fs.asm
                    r0x00   0x000000       data     static fs2uint.asm
                    r0x00   0x000000       data     static divuint.asm
                    r0x00   0x000000       data     static fsdiv.asm
                    r0x00   0x000000       data     static fs2ulong.asm
                    r0x00   0x000000       data     static moduint.asm
                    r0x00   0x000000       data     static divulong.asm
                    r0x00   0x000000       data     static fssub.asm
                    r0x00   0x000000       data     static fsadd.asm
                    r0x00   0x000000       data     static ulong2fs.asm
                    r0x01   0x000001       data     static /home/valentin/.icaro/firmware/temporal/main.asm
                    r0x01   0x000001       data     static modulong.asm
                    r0x01   0x000001       data     static fslt.asm
                    r0x01   0x000001       data     static sint2fs.asm
                    r0x01   0x000001       data     static fsmul.asm
                    r0x01   0x000001       data     static slong2fs.asm
                    r0x01   0x000001       data     static fs2uint.asm
                    r0x01   0x000001       data     static divuint.asm
                    r0x01   0x000001       data     static fsdiv.asm
                    r0x01   0x000001       data     static fs2ulong.asm
                    r0x01   0x000001       data     static moduint.asm
                    r0x01   0x000001       data     static divulong.asm
                    r0x01   0x000001       data     static fssub.asm
                    r0x01   0x000001       data     static fsadd.asm
                    r0x01   0x000001       data     static ulong2fs.asm
                    r0x02   0x000002       data     static /home/valentin/.icaro/firmware/temporal/main.asm
                    r0x02   0x000002       data     static modulong.asm
                    r0x02   0x000002       data     static fslt.asm
                    r0x02   0x000002       data     static sint2fs.asm
                    r0x02   0x000002       data     static fsmul.asm
                    r0x02   0x000002       data     static slong2fs.asm
                    r0x02   0x000002       data     static fs2uint.asm
                    r0x02   0x000002       data     static divuint.asm
                    r0x02   0x000002       data     static fsdiv.asm
                    r0x02   0x000002       data     static fs2ulong.asm
                    r0x02   0x000002       data     static moduint.asm
                    r0x02   0x000002       data     static divulong.asm
                    r0x02   0x000002       data     static fssub.asm
                    r0x02   0x000002       data     static fsadd.asm
                    r0x02   0x000002       data     static ulong2fs.asm
                    r0x03   0x000003       data     static /home/valentin/.icaro/firmware/temporal/main.asm
                    r0x03   0x000003       data     static modulong.asm
                    r0x03   0x000003       data     static fslt.asm
                    r0x03   0x000003       data     static sint2fs.asm
                    r0x03   0x000003       data     static fsmul.asm
                    r0x03   0x000003       data     static slong2fs.asm
                    r0x03   0x000003       data     static fs2uint.asm
                    r0x03   0x000003       data     static divuint.asm
                    r0x03   0x000003       data     static fsdiv.asm
                    r0x03   0x000003       data     static fs2ulong.asm
                    r0x03   0x000003       data     static moduint.asm
                    r0x03   0x000003       data     static divulong.asm
                    r0x03   0x000003       data     static fssub.asm
                    r0x03   0x000003       data     static fsadd.asm
                    r0x03   0x000003       data     static ulong2fs.asm
                    r0x04   0x000004       data     static /home/valentin/.icaro/firmware/temporal/main.asm
                    r0x04   0x000004       data     static modulong.asm
                    r0x04   0x000004       data     static fslt.asm
                    r0x04   0x000004       data     static fsmul.asm
                    r0x04   0x000004       data     static slong2fs.asm
                    r0x04   0x000004       data     static divuint.asm
                    r0x04   0x000004       data     static fsdiv.asm
                    r0x04   0x000004       data     static fs2ulong.asm
                    r0x04   0x000004       data     static moduint.asm
                    r0x04   0x000004       data     static divulong.asm
                    r0x04   0x000004       data     static fssub.asm
                    r0x04   0x000004       data     static fsadd.asm
                    r0x04   0x000004       data     static ulong2fs.asm
                    r0x05   0x000005       data     static /home/valentin/.icaro/firmware/temporal/main.asm
                    r0x05   0x000005       data     static modulong.asm
                    r0x05   0x000005       data     static fslt.asm
                    r0x05   0x000005       data     static fsmul.asm
                    r0x05   0x000005       data     static slong2fs.asm
                    r0x05   0x000005       data     static divuint.asm
                    r0x05   0x000005       data     static fsdiv.asm
                    r0x05   0x000005       data     static fs2ulong.asm
                    r0x05   0x000005       data     static moduint.asm
                    r0x05   0x000005       data     static divulong.asm
                    r0x05   0x000005       data     static fssub.asm
                    r0x05   0x000005       data     static fsadd.asm
                    r0x05   0x000005       data     static ulong2fs.asm
                    r0x06   0x000006       data     static /home/valentin/.icaro/firmware/temporal/main.asm
                    r0x06   0x000006       data     static modulong.asm
                    r0x06   0x000006       data     static fslt.asm
                    r0x06   0x000006       data     static fsmul.asm
                    r0x06   0x000006       data     static slong2fs.asm
                    r0x06   0x000006       data     static divuint.asm
                    r0x06   0x000006       data     static fsdiv.asm
                    r0x06   0x000006       data     static moduint.asm
                    r0x06   0x000006       data     static divulong.asm
                    r0x06   0x000006       data     static fssub.asm
                    r0x06   0x000006       data     static fsadd.asm
                    r0x06   0x000006       data     static ulong2fs.asm
                    r0x07   0x000007       data     static /home/valentin/.icaro/firmware/temporal/main.asm
                    r0x07   0x000007       data     static modulong.asm
                    r0x07   0x000007       data     static fslt.asm
                    r0x07   0x000007       data     static fsmul.asm
                    r0x07   0x000007       data     static slong2fs.asm
                    r0x07   0x000007       data     static divuint.asm
                    r0x07   0x000007       data     static fsdiv.asm
                    r0x07   0x000007       data     static divulong.asm
                    r0x07   0x000007       data     static fssub.asm
                    r0x07   0x000007       data     static fsadd.asm
                    r0x07   0x000007       data     static ulong2fs.asm
                    r0x08   0x000008       data     static /home/valentin/.icaro/firmware/temporal/main.asm
                    r0x08   0x000008       data     static modulong.asm
                    r0x08   0x000008       data     static fsmul.asm
                    r0x08   0x000008       data     static fsdiv.asm
                    r0x08   0x000008       data     static divulong.asm
                    r0x08   0x000008       data     static fsadd.asm
                    r0x08   0x000008       data     static ulong2fs.asm
                    r0x09   0x000009       data     static /home/valentin/.icaro/firmware/temporal/main.asm
                    r0x09   0x000009       data     static modulong.asm
                    r0x09   0x000009       data     static fsmul.asm
                    r0x09   0x000009       data     static fsdiv.asm
                    r0x09   0x000009       data     static divulong.asm
                    r0x09   0x000009       data     static fsadd.asm
                    r0x09   0x000009       data     static ulong2fs.asm
                    r0x0a   0x00000a       data     static /home/valentin/.icaro/firmware/temporal/main.asm
                    r0x0a   0x00000a       data     static modulong.asm
                    r0x0a   0x00000a       data     static fsmul.asm
                    r0x0a   0x00000a       data     static fsdiv.asm
                    r0x0a   0x00000a       data     static divulong.asm
                    r0x0a   0x00000a       data     static fsadd.asm
                    r0x0a   0x00000a       data     static ulong2fs.asm
                    r0x0b   0x00000b       data     static /home/valentin/.icaro/firmware/temporal/main.asm
                    r0x0b   0x00000b       data     static fsmul.asm
                    r0x0b   0x00000b       data     static fsdiv.asm
                    r0x0b   0x00000b       data     static divulong.asm
                    r0x0b   0x00000b       data     static fsadd.asm
                    r0x0b   0x00000b       data     static ulong2fs.asm
                    r0x0c   0x00000c       data     static /home/valentin/.icaro/firmware/temporal/main.asm
                    r0x0c   0x00000c       data     static fsmul.asm
                    r0x0c   0x00000c       data     static fsdiv.asm
                    r0x0c   0x00000c       data     static divulong.asm
                    r0x0c   0x00000c       data     static fsadd.asm
                    r0x0d   0x00000d       data     static /home/valentin/.icaro/firmware/temporal/main.asm
                    r0x0d   0x00000d       data     static fsmul.asm
                    r0x0d   0x00000d       data     static fsdiv.asm
                    r0x0d   0x00000d       data     static divulong.asm
                    r0x0d   0x00000d       data     static fsadd.asm
                    r0x0e   0x00000e       data     static /home/valentin/.icaro/firmware/temporal/main.asm
                    r0x0e   0x00000e       data     static fsmul.asm
                    r0x0e   0x00000e       data     static fsdiv.asm
                    r0x0e   0x00000e       data     static fsadd.asm
                    r0x0f   0x00000f       data     static /home/valentin/.icaro/firmware/temporal/main.asm
                    r0x0f   0x00000f       data     static fsmul.asm
                    r0x0f   0x00000f       data     static fsdiv.asm
                    r0x0f   0x00000f       data     static fsadd.asm
                    r0x10   0x000010       data     static /home/valentin/.icaro/firmware/temporal/main.asm
                    r0x10   0x000010       data     static fsdiv.asm
                    r0x10   0x000010       data     static fsadd.asm
                    r0x11   0x000011       data     static /home/valentin/.icaro/firmware/temporal/main.asm
                    r0x11   0x000011       data     static fsdiv.asm
                    r0x12   0x000012       data     static /home/valentin/.icaro/firmware/temporal/main.asm
                    r0x12   0x000012       data     static fsdiv.asm
                    r0x13   0x000013       data     static /home/valentin/.icaro/firmware/temporal/main.asm
                    r0x13   0x000013       data     static fsdiv.asm
                    r0x14   0x000014       data     static /home/valentin/.icaro/firmware/temporal/main.asm
                    r0x14   0x000014       data     static fsdiv.asm
                    r0x15   0x000015       data     static /home/valentin/.icaro/firmware/temporal/main.asm
                    r0x15   0x000015       data     static fsdiv.asm
                    r0x16   0x000016       data     static /home/valentin/.icaro/firmware/temporal/main.asm
                    r0x16   0x000016       data     static fsdiv.asm
                    r0x17   0x000017       data     static /home/valentin/.icaro/firmware/temporal/main.asm
                    r0x18   0x000018       data     static /home/valentin/.icaro/firmware/temporal/main.asm
                    r0x19   0x000019       data     static /home/valentin/.icaro/firmware/temporal/main.asm
                    r0x1a   0x00001a       data     static /home/valentin/.icaro/firmware/temporal/main.asm
         _boot_goto_table   0x00001c    program     extern boot_iface.asm
            _boot_version   0x00001c    program     extern boot_iface.asm
      _dispatch_usb_event   0x00001e    program     extern boot_iface.asm
               _reset_usb   0x000022    program     extern boot_iface.asm
               _usb_sleep   0x000026    program     extern boot_iface.asm
          _fill_in_buffer   0x00002a    program     extern boot_iface.asm
                _ep0_init   0x00002e    program     extern boot_iface.asm
                  _ep0_in   0x000032    program     extern boot_iface.asm
               _ep0_setup   0x000036    program     extern boot_iface.asm
                _ep1_init   0x00003a    program     extern boot_iface.asm
                 _ep1_out   0x00003e    program     extern boot_iface.asm
                _ep2_init   0x000042    program     extern boot_iface.asm
                  _ep2_in   0x000046    program     extern boot_iface.asm
                __mullong   0x00004a    program     extern boot_iface.asm
                 __mulint   0x00004e    program     extern boot_iface.asm
               __gptrget1   0x000052    program     extern boot_iface.asm
               __gptrget2   0x000056    program     extern boot_iface.asm
               __gptrget3   0x00005a    program     extern boot_iface.asm
  _usb_active_alt_setting   0x00005d       data     extern boot_iface.asm
               __gptrget4   0x00005e    program     extern boot_iface.asm
          _usb_active_cfg   0x00005e       data     extern boot_iface.asm
        _usb_device_state   0x00005f       data     extern boot_iface.asm
               __gptrput1   0x000062    program     extern boot_iface.asm
               __gptrput2   0x000066    program     extern boot_iface.asm
               __gptrput3   0x00006a    program     extern boot_iface.asm
             _delay10ktcy   0x00006e    program     extern boot_iface.asm
              _delay1ktcy   0x000072    program     extern boot_iface.asm
              _delay10tcy   0x000076    program     extern boot_iface.asm
                   _stack   0x000100       data     extern stack/stack.S
               _stack_end   0x0001ff       data     extern stack/stack.S
                      _rx   0x000200       data     extern /home/valentin/.icaro/firmware/temporal/main.asm
            _mens_p_1_306   0x000280       data     static /home/valentin/.icaro/firmware/temporal/main.asm
   _printNumber_buf_1_260   0x0002ca       data     static /home/valentin/.icaro/firmware/temporal/main.asm
             _servovalues   0x0002ea       data     extern /home/valentin/.icaro/firmware/temporal/main.asm
         ___fslt_fl1_1_22   0x0002fc       data     static fslt.asm
                 _timings   0x000300       data     extern /home/valentin/.icaro/firmware/temporal/main.asm
                ___uflags   0x000348       data     extern obj/Debug/crt0ipinguino.asm
                   _phase   0x000349       data     extern /home/valentin/.icaro/firmware/temporal/main.asm
          _needreordering   0x00034a       data     extern /home/valentin/.icaro/firmware/temporal/main.asm
            _timedivision   0x00034b       data     extern /home/valentin/.icaro/firmware/temporal/main.asm
         _activatedservos   0x00034c       data     extern /home/valentin/.icaro/firmware/temporal/main.asm
              __pr2_plus1   0x00034f       data     extern /home/valentin/.icaro/firmware/temporal/main.asm
                 __rs_pin   0x000351       data     extern /home/valentin/.icaro/firmware/temporal/main.asm
                 __rw_pin   0x000352       data     extern /home/valentin/.icaro/firmware/temporal/main.asm
             __enable_pin   0x000353       data     extern /home/valentin/.icaro/firmware/temporal/main.asm
                      __i   0x000354       data     extern /home/valentin/.icaro/firmware/temporal/main.asm
  _printi_print_buf_1_156   0x000356       data     static /home/valentin/.icaro/firmware/temporal/main.asm
              __data_pins   0x000362       data     extern /home/valentin/.icaro/firmware/temporal/main.asm
_setCursor_row_offsets_1_254   0x00036a       data     static /home/valentin/.icaro/firmware/temporal/main.asm
      _caminar_pder_1_314   0x000372       data     static /home/valentin/.icaro/firmware/temporal/main.asm
      _caminar_pizq_1_314   0x00037a       data     static /home/valentin/.icaro/firmware/temporal/main.asm
      _caminar_cder_1_314   0x000382       data     static /home/valentin/.icaro/firmware/temporal/main.asm
      _caminar_cizq_1_314   0x00038a       data     static /home/valentin/.icaro/firmware/temporal/main.asm
         ___fslt_fl2_1_22   0x000392       data     static fslt.asm
        ___fsmul_fl1_1_22   0x000396       data     static fsmul.asm
        ___fsmul_fl2_1_22   0x00039a       data     static fsmul.asm
        ___fsdiv_fl1_1_22   0x00039e       data     static fsdiv.asm
        ___fsdiv_fl2_1_22   0x0003a2       data     static fsdiv.asm
     ___fs2ulong_fl1_1_22   0x0003a6       data     static fs2ulong.asm
        ___fssub_fl1_1_22   0x0003aa       data     static fssub.asm
        ___fssub_fl2_1_22   0x0003ae       data     static fssub.asm
        ___fsadd_fl1_1_22   0x0003b2       data     static fsadd.asm
        ___fsadd_fl2_1_22   0x0003b6       data     static fsadd.asm
      ___ulong2fs_fl_1_22   0x0003ba       data     static ulong2fs.asm
                _putchar1   0x0003be       data     static /home/valentin/.icaro/firmware/temporal/main.asm
_SortServoTimings_mascaratotal_1_27   0x0003c1       data     static /home/valentin/.icaro/firmware/temporal/main.asm
         _print_scr_1_164   0x0003c4       data     static /home/valentin/.icaro/firmware/temporal/main.asm
            _mens_n_1_306   0x0003c6       data     static /home/valentin/.icaro/firmware/temporal/main.asm
               _caractere   0x0003c8       data     extern /home/valentin/.icaro/firmware/temporal/main.asm
                 _loopvar   0x0003ca       data     extern /home/valentin/.icaro/firmware/temporal/main.asm
            __initialized   0x0003cb       data     extern /home/valentin/.icaro/firmware/temporal/main.asm
               __currline   0x0003cc       data     extern /home/valentin/.icaro/firmware/temporal/main.asm
             _timingindex   0x0003cd       data     extern /home/valentin/.icaro/firmware/temporal/main.asm
                  __t2con   0x0003ce       data     extern /home/valentin/.icaro/firmware/temporal/main.asm
                _wpointer   0x0003cf       data     extern /home/valentin/.icaro/firmware/temporal/main.asm
                _rpointer   0x0003d0       data     extern /home/valentin/.icaro/firmware/temporal/main.asm
        __displayfunction   0x0003d1       data     extern /home/valentin/.icaro/firmware/temporal/main.asm
               __numlines   0x0003d2       data     extern /home/valentin/.icaro/firmware/temporal/main.asm
         __displaycontrol   0x0003d3       data     extern /home/valentin/.icaro/firmware/temporal/main.asm
            __displaymode   0x0003d4       data     extern /home/valentin/.icaro/firmware/temporal/main.asm
                 _SPPDATA   0x000f62       data     extern libdev18f4550_a-pic18f4550.asm
             _SPPDATAbits   0x000f62       data     extern libdev18f4550_a-pic18f4550.asm
                  _SPPCFG   0x000f63       data     extern libdev18f4550_a-pic18f4550.asm
              _SPPCFGbits   0x000f63       data     extern libdev18f4550_a-pic18f4550.asm
                  _SPPEPS   0x000f64       data     extern libdev18f4550_a-pic18f4550.asm
              _SPPEPSbits   0x000f64       data     extern libdev18f4550_a-pic18f4550.asm
                  _SPPCON   0x000f65       data     extern libdev18f4550_a-pic18f4550.asm
              _SPPCONbits   0x000f65       data     extern libdev18f4550_a-pic18f4550.asm
                   _UFRML   0x000f66       data     extern libdev18f4550_a-pic18f4550.asm
               _UFRMLbits   0x000f66       data     extern libdev18f4550_a-pic18f4550.asm
                   _UFRMH   0x000f67       data     extern libdev18f4550_a-pic18f4550.asm
               _UFRMHbits   0x000f67       data     extern libdev18f4550_a-pic18f4550.asm
                     _UIR   0x000f68       data     extern libdev18f4550_a-pic18f4550.asm
                 _UIRbits   0x000f68       data     extern libdev18f4550_a-pic18f4550.asm
                     _UIE   0x000f69       data     extern libdev18f4550_a-pic18f4550.asm
                 _UIEbits   0x000f69       data     extern libdev18f4550_a-pic18f4550.asm
                    _UEIR   0x000f6a       data     extern libdev18f4550_a-pic18f4550.asm
                _UEIRbits   0x000f6a       data     extern libdev18f4550_a-pic18f4550.asm
                    _UEIE   0x000f6b       data     extern libdev18f4550_a-pic18f4550.asm
                _UEIEbits   0x000f6b       data     extern libdev18f4550_a-pic18f4550.asm
                   _USTAT   0x000f6c       data     extern libdev18f4550_a-pic18f4550.asm
               _USTATbits   0x000f6c       data     extern libdev18f4550_a-pic18f4550.asm
                    _UCON   0x000f6d       data     extern libdev18f4550_a-pic18f4550.asm
                _UCONbits   0x000f6d       data     extern libdev18f4550_a-pic18f4550.asm
                   _UADDR   0x000f6e       data     extern libdev18f4550_a-pic18f4550.asm
               _UADDRbits   0x000f6e       data     extern libdev18f4550_a-pic18f4550.asm
                    _UCFG   0x000f6f       data     extern libdev18f4550_a-pic18f4550.asm
                _UCFGbits   0x000f6f       data     extern libdev18f4550_a-pic18f4550.asm
                    _UEP0   0x000f70       data     extern libdev18f4550_a-pic18f4550.asm
                _UEP0bits   0x000f70       data     extern libdev18f4550_a-pic18f4550.asm
                    _UEP1   0x000f71       data     extern libdev18f4550_a-pic18f4550.asm
                _UEP1bits   0x000f71       data     extern libdev18f4550_a-pic18f4550.asm
                    _UEP2   0x000f72       data     extern libdev18f4550_a-pic18f4550.asm
                _UEP2bits   0x000f72       data     extern libdev18f4550_a-pic18f4550.asm
                    _UEP3   0x000f73       data     extern libdev18f4550_a-pic18f4550.asm
                _UEP3bits   0x000f73       data     extern libdev18f4550_a-pic18f4550.asm
                    _UEP4   0x000f74       data     extern libdev18f4550_a-pic18f4550.asm
                _UEP4bits   0x000f74       data     extern libdev18f4550_a-pic18f4550.asm
                    _UEP5   0x000f75       data     extern libdev18f4550_a-pic18f4550.asm
                _UEP5bits   0x000f75       data     extern libdev18f4550_a-pic18f4550.asm
                    _UEP6   0x000f76       data     extern libdev18f4550_a-pic18f4550.asm
                _UEP6bits   0x000f76       data     extern libdev18f4550_a-pic18f4550.asm
                    _UEP7   0x000f77       data     extern libdev18f4550_a-pic18f4550.asm
                _UEP7bits   0x000f77       data     extern libdev18f4550_a-pic18f4550.asm
                    _UEP8   0x000f78       data     extern libdev18f4550_a-pic18f4550.asm
                _UEP8bits   0x000f78       data     extern libdev18f4550_a-pic18f4550.asm
                    _UEP9   0x000f79       data     extern libdev18f4550_a-pic18f4550.asm
                _UEP9bits   0x000f79       data     extern libdev18f4550_a-pic18f4550.asm
                   _UEP10   0x000f7a       data     extern libdev18f4550_a-pic18f4550.asm
               _UEP10bits   0x000f7a       data     extern libdev18f4550_a-pic18f4550.asm
                   _UEP11   0x000f7b       data     extern libdev18f4550_a-pic18f4550.asm
               _UEP11bits   0x000f7b       data     extern libdev18f4550_a-pic18f4550.asm
                   _UEP12   0x000f7c       data     extern libdev18f4550_a-pic18f4550.asm
               _UEP12bits   0x000f7c       data     extern libdev18f4550_a-pic18f4550.asm
                   _UEP13   0x000f7d       data     extern libdev18f4550_a-pic18f4550.asm
               _UEP13bits   0x000f7d       data     extern libdev18f4550_a-pic18f4550.asm
                   _UEP14   0x000f7e       data     extern libdev18f4550_a-pic18f4550.asm
               _UEP14bits   0x000f7e       data     extern libdev18f4550_a-pic18f4550.asm
                   _UEP15   0x000f7f       data     extern libdev18f4550_a-pic18f4550.asm
               _UEP15bits   0x000f7f       data     extern libdev18f4550_a-pic18f4550.asm
                   _PORTA   0x000f80       data     extern libdev18f4550_a-pic18f4550.asm
               _PORTAbits   0x000f80       data     extern libdev18f4550_a-pic18f4550.asm
                   _PORTB   0x000f81       data     extern libdev18f4550_a-pic18f4550.asm
               _PORTBbits   0x000f81       data     extern libdev18f4550_a-pic18f4550.asm
                   _PORTC   0x000f82       data     extern libdev18f4550_a-pic18f4550.asm
               _PORTCbits   0x000f82       data     extern libdev18f4550_a-pic18f4550.asm
                   _PORTD   0x000f83       data     extern libdev18f4550_a-pic18f4550.asm
               _PORTDbits   0x000f83       data     extern libdev18f4550_a-pic18f4550.asm
                   _PORTE   0x000f84       data     extern libdev18f4550_a-pic18f4550.asm
               _PORTEbits   0x000f84       data     extern libdev18f4550_a-pic18f4550.asm
                    _LATA   0x000f89       data     extern libdev18f4550_a-pic18f4550.asm
                _LATAbits   0x000f89       data     extern libdev18f4550_a-pic18f4550.asm
                    _LATB   0x000f8a       data     extern libdev18f4550_a-pic18f4550.asm
                _LATBbits   0x000f8a       data     extern libdev18f4550_a-pic18f4550.asm
                    _LATC   0x000f8b       data     extern libdev18f4550_a-pic18f4550.asm
                _LATCbits   0x000f8b       data     extern libdev18f4550_a-pic18f4550.asm
                    _LATD   0x000f8c       data     extern libdev18f4550_a-pic18f4550.asm
                _LATDbits   0x000f8c       data     extern libdev18f4550_a-pic18f4550.asm
                    _LATE   0x000f8d       data     extern libdev18f4550_a-pic18f4550.asm
                _LATEbits   0x000f8d       data     extern libdev18f4550_a-pic18f4550.asm
                   _TRISA   0x000f92       data     extern libdev18f4550_a-pic18f4550.asm
               _TRISAbits   0x000f92       data     extern libdev18f4550_a-pic18f4550.asm
                   _TRISB   0x000f93       data     extern libdev18f4550_a-pic18f4550.asm
               _TRISBbits   0x000f93       data     extern libdev18f4550_a-pic18f4550.asm
                   _TRISC   0x000f94       data     extern libdev18f4550_a-pic18f4550.asm
               _TRISCbits   0x000f94       data     extern libdev18f4550_a-pic18f4550.asm
                   _TRISD   0x000f95       data     extern libdev18f4550_a-pic18f4550.asm
               _TRISDbits   0x000f95       data     extern libdev18f4550_a-pic18f4550.asm
                   _TRISE   0x000f96       data     extern libdev18f4550_a-pic18f4550.asm
               _TRISEbits   0x000f96       data     extern libdev18f4550_a-pic18f4550.asm
                 _OSCTUNE   0x000f9b       data     extern libdev18f4550_a-pic18f4550.asm
             _OSCTUNEbits   0x000f9b       data     extern libdev18f4550_a-pic18f4550.asm
                    _PIE1   0x000f9d       data     extern libdev18f4550_a-pic18f4550.asm
                _PIE1bits   0x000f9d       data     extern libdev18f4550_a-pic18f4550.asm
                    _PIR1   0x000f9e       data     extern libdev18f4550_a-pic18f4550.asm
                _PIR1bits   0x000f9e       data     extern libdev18f4550_a-pic18f4550.asm
                    _IPR1   0x000f9f       data     extern libdev18f4550_a-pic18f4550.asm
                _IPR1bits   0x000f9f       data     extern libdev18f4550_a-pic18f4550.asm
                    _PIE2   0x000fa0       data     extern libdev18f4550_a-pic18f4550.asm
                _PIE2bits   0x000fa0       data     extern libdev18f4550_a-pic18f4550.asm
                    _PIR2   0x000fa1       data     extern libdev18f4550_a-pic18f4550.asm
                _PIR2bits   0x000fa1       data     extern libdev18f4550_a-pic18f4550.asm
                    _IPR2   0x000fa2       data     extern libdev18f4550_a-pic18f4550.asm
                _IPR2bits   0x000fa2       data     extern libdev18f4550_a-pic18f4550.asm
                  _EECON1   0x000fa6       data     extern libdev18f4550_a-pic18f4550.asm
              _EECON1bits   0x000fa6       data     extern libdev18f4550_a-pic18f4550.asm
                  _EECON2   0x000fa7       data     extern libdev18f4550_a-pic18f4550.asm
                  _EEDATA   0x000fa8       data     extern libdev18f4550_a-pic18f4550.asm
                   _EEADR   0x000fa9       data     extern libdev18f4550_a-pic18f4550.asm
                   _RCSTA   0x000fab       data     extern libdev18f4550_a-pic18f4550.asm
               _RCSTAbits   0x000fab       data     extern libdev18f4550_a-pic18f4550.asm
                   _TXSTA   0x000fac       data     extern libdev18f4550_a-pic18f4550.asm
               _TXSTAbits   0x000fac       data     extern libdev18f4550_a-pic18f4550.asm
                   _TXREG   0x000fad       data     extern libdev18f4550_a-pic18f4550.asm
                   _RCREG   0x000fae       data     extern libdev18f4550_a-pic18f4550.asm
                   _SPBRG   0x000faf       data     extern libdev18f4550_a-pic18f4550.asm
                  _SPBRGH   0x000fb0       data     extern libdev18f4550_a-pic18f4550.asm
                   _T3CON   0x000fb1       data     extern libdev18f4550_a-pic18f4550.asm
               _T3CONbits   0x000fb1       data     extern libdev18f4550_a-pic18f4550.asm
                   _TMR3L   0x000fb2       data     extern libdev18f4550_a-pic18f4550.asm
                   _TMR3H   0x000fb3       data     extern libdev18f4550_a-pic18f4550.asm
                   _CMCON   0x000fb4       data     extern libdev18f4550_a-pic18f4550.asm
               _CMCONbits   0x000fb4       data     extern libdev18f4550_a-pic18f4550.asm
                  _CVRCON   0x000fb5       data     extern libdev18f4550_a-pic18f4550.asm
              _CVRCONbits   0x000fb5       data     extern libdev18f4550_a-pic18f4550.asm
                 _ECCP1AS   0x000fb6       data     extern libdev18f4550_a-pic18f4550.asm
             _ECCP1ASbits   0x000fb6       data     extern libdev18f4550_a-pic18f4550.asm
                _ECCP1DEL   0x000fb7       data     extern libdev18f4550_a-pic18f4550.asm
            _ECCP1DELbits   0x000fb7       data     extern libdev18f4550_a-pic18f4550.asm
                 _BAUDCON   0x000fb8       data     extern libdev18f4550_a-pic18f4550.asm
             _BAUDCONbits   0x000fb8       data     extern libdev18f4550_a-pic18f4550.asm
                 _CCP2CON   0x000fba       data     extern libdev18f4550_a-pic18f4550.asm
             _CCP2CONbits   0x000fba       data     extern libdev18f4550_a-pic18f4550.asm
                  _CCPR2L   0x000fbb       data     extern libdev18f4550_a-pic18f4550.asm
                  _CCPR2H   0x000fbc       data     extern libdev18f4550_a-pic18f4550.asm
                 _CCP1CON   0x000fbd       data     extern libdev18f4550_a-pic18f4550.asm
             _CCP1CONbits   0x000fbd       data     extern libdev18f4550_a-pic18f4550.asm
                  _CCPR1L   0x000fbe       data     extern libdev18f4550_a-pic18f4550.asm
                  _CCPR1H   0x000fbf       data     extern libdev18f4550_a-pic18f4550.asm
                  _ADCON2   0x000fc0       data     extern libdev18f4550_a-pic18f4550.asm
              _ADCON2bits   0x000fc0       data     extern libdev18f4550_a-pic18f4550.asm
                  _ADCON1   0x000fc1       data     extern libdev18f4550_a-pic18f4550.asm
              _ADCON1bits   0x000fc1       data     extern libdev18f4550_a-pic18f4550.asm
                  _ADCON0   0x000fc2       data     extern libdev18f4550_a-pic18f4550.asm
              _ADCON0bits   0x000fc2       data     extern libdev18f4550_a-pic18f4550.asm
                  _ADRESL   0x000fc3       data     extern libdev18f4550_a-pic18f4550.asm
                  _ADRESH   0x000fc4       data     extern libdev18f4550_a-pic18f4550.asm
                 _SSPCON2   0x000fc5       data     extern libdev18f4550_a-pic18f4550.asm
             _SSPCON2bits   0x000fc5       data     extern libdev18f4550_a-pic18f4550.asm
                 _SSPCON1   0x000fc6       data     extern libdev18f4550_a-pic18f4550.asm
             _SSPCON1bits   0x000fc6       data     extern libdev18f4550_a-pic18f4550.asm
                 _SSPSTAT   0x000fc7       data     extern libdev18f4550_a-pic18f4550.asm
             _SSPSTATbits   0x000fc7       data     extern libdev18f4550_a-pic18f4550.asm
                  _SSPADD   0x000fc8       data     extern libdev18f4550_a-pic18f4550.asm
                  _SSPBUF   0x000fc9       data     extern libdev18f4550_a-pic18f4550.asm
                   _T2CON   0x000fca       data     extern libdev18f4550_a-pic18f4550.asm
               _T2CONbits   0x000fca       data     extern libdev18f4550_a-pic18f4550.asm
                     _PR2   0x000fcb       data     extern libdev18f4550_a-pic18f4550.asm
                    _TMR2   0x000fcc       data     extern libdev18f4550_a-pic18f4550.asm
                   _T1CON   0x000fcd       data     extern libdev18f4550_a-pic18f4550.asm
               _T1CONbits   0x000fcd       data     extern libdev18f4550_a-pic18f4550.asm
                   _TMR1L   0x000fce       data     extern libdev18f4550_a-pic18f4550.asm
                   _TMR1H   0x000fcf       data     extern libdev18f4550_a-pic18f4550.asm
                    _RCON   0x000fd0       data     extern libdev18f4550_a-pic18f4550.asm
                _RCONbits   0x000fd0       data     extern libdev18f4550_a-pic18f4550.asm
                  _WDTCON   0x000fd1       data     extern libdev18f4550_a-pic18f4550.asm
              _WDTCONbits   0x000fd1       data     extern libdev18f4550_a-pic18f4550.asm
                 _HLVDCON   0x000fd2       data     extern libdev18f4550_a-pic18f4550.asm
             _HLVDCONbits   0x000fd2       data     extern libdev18f4550_a-pic18f4550.asm
                  _OSCCON   0x000fd3       data     extern libdev18f4550_a-pic18f4550.asm
              _OSCCONbits   0x000fd3       data     extern libdev18f4550_a-pic18f4550.asm
                   _T0CON   0x000fd5       data     extern libdev18f4550_a-pic18f4550.asm
               _T0CONbits   0x000fd5       data     extern libdev18f4550_a-pic18f4550.asm
                   _TMR0L   0x000fd6       data     extern libdev18f4550_a-pic18f4550.asm
                   _TMR0H   0x000fd7       data     extern libdev18f4550_a-pic18f4550.asm
                  _STATUS   0x000fd8       data     extern libdev18f4550_a-pic18f4550.asm
              _STATUSbits   0x000fd8       data     extern libdev18f4550_a-pic18f4550.asm
                   _FSR2L   0x000fd9       data     extern libdev18f4550_a-pic18f4550.asm
                   _FSR2H   0x000fda       data     extern libdev18f4550_a-pic18f4550.asm
               _FSR2Hbits   0x000fda       data     extern libdev18f4550_a-pic18f4550.asm
                  _PLUSW2   0x000fdb       data     extern libdev18f4550_a-pic18f4550.asm
                 _PREINC2   0x000fdc       data     extern libdev18f4550_a-pic18f4550.asm
                _POSTDEC2   0x000fdd       data     extern libdev18f4550_a-pic18f4550.asm
                _POSTINC2   0x000fde       data     extern libdev18f4550_a-pic18f4550.asm
                   _INDF2   0x000fdf       data     extern libdev18f4550_a-pic18f4550.asm
                     _BSR   0x000fe0       data     extern libdev18f4550_a-pic18f4550.asm
                 _BSRbits   0x000fe0       data     extern libdev18f4550_a-pic18f4550.asm
                   _FSR1L   0x000fe1       data     extern libdev18f4550_a-pic18f4550.asm
                   _FSR1H   0x000fe2       data     extern libdev18f4550_a-pic18f4550.asm
               _FSR1Hbits   0x000fe2       data     extern libdev18f4550_a-pic18f4550.asm
                  _PLUSW1   0x000fe3       data     extern libdev18f4550_a-pic18f4550.asm
                 _PREINC1   0x000fe4       data     extern libdev18f4550_a-pic18f4550.asm
                _POSTDEC1   0x000fe5       data     extern libdev18f4550_a-pic18f4550.asm
                _POSTINC1   0x000fe6       data     extern libdev18f4550_a-pic18f4550.asm
                   _INDF1   0x000fe7       data     extern libdev18f4550_a-pic18f4550.asm
                    _WREG   0x000fe8       data     extern libdev18f4550_a-pic18f4550.asm
                   _FSR0L   0x000fe9       data     extern libdev18f4550_a-pic18f4550.asm
                   _FSR0H   0x000fea       data     extern libdev18f4550_a-pic18f4550.asm
               _FSR0Hbits   0x000fea       data     extern libdev18f4550_a-pic18f4550.asm
                  _PLUSW0   0x000feb       data     extern libdev18f4550_a-pic18f4550.asm
                 _PREINC0   0x000fec       data     extern libdev18f4550_a-pic18f4550.asm
                _POSTDEC0   0x000fed       data     extern libdev18f4550_a-pic18f4550.asm
                _POSTINC0   0x000fee       data     extern libdev18f4550_a-pic18f4550.asm
                   _INDF0   0x000fef       data     extern libdev18f4550_a-pic18f4550.asm
                 _INTCON3   0x000ff0       data     extern libdev18f4550_a-pic18f4550.asm
             _INTCON3bits   0x000ff0       data     extern libdev18f4550_a-pic18f4550.asm
                 _INTCON2   0x000ff1       data     extern libdev18f4550_a-pic18f4550.asm
             _INTCON2bits   0x000ff1       data     extern libdev18f4550_a-pic18f4550.asm
                  _INTCON   0x000ff2       data     extern libdev18f4550_a-pic18f4550.asm
              _INTCONbits   0x000ff2       data     extern libdev18f4550_a-pic18f4550.asm
                   _PRODL   0x000ff3       data     extern libdev18f4550_a-pic18f4550.asm
                   _PRODH   0x000ff4       data     extern libdev18f4550_a-pic18f4550.asm
                  _TABLAT   0x000ff5       data     extern libdev18f4550_a-pic18f4550.asm
                 _TBLPTRL   0x000ff6       data     extern libdev18f4550_a-pic18f4550.asm
                 _TBLPTRH   0x000ff7       data     extern libdev18f4550_a-pic18f4550.asm
                 _TBLPTRU   0x000ff8       data     extern libdev18f4550_a-pic18f4550.asm
             _TBLPTRUbits   0x000ff8       data     extern libdev18f4550_a-pic18f4550.asm
                     _PCL   0x000ff9       data     extern libdev18f4550_a-pic18f4550.asm
                  _PCLATH   0x000ffa       data     extern libdev18f4550_a-pic18f4550.asm
              _PCLATHbits   0x000ffa       data     extern libdev18f4550_a-pic18f4550.asm
                  _PCLATU   0x000ffb       data     extern libdev18f4550_a-pic18f4550.asm
              _PCLATUbits   0x000ffb       data     extern libdev18f4550_a-pic18f4550.asm
                  _STKPTR   0x000ffc       data     extern libdev18f4550_a-pic18f4550.asm
              _STKPTRbits   0x000ffc       data     extern libdev18f4550_a-pic18f4550.asm
                    _TOSL   0x000ffd       data     extern libdev18f4550_a-pic18f4550.asm
                    _TOSH   0x000ffe       data     extern libdev18f4550_a-pic18f4550.asm
                    _TOSU   0x000fff       data     extern libdev18f4550_a-pic18f4550.asm
                _TOSUbits   0x000fff       data     extern libdev18f4550_a-pic18f4550.asm
        _application_data   0x002000    program     extern application_iface.asm
        _application_main   0x00201a    program     extern obj/Debug/crt0ipinguino.asm
           _null_function   0x00201e    program     extern usb_descriptors.asm
       _high_priority_isr   0x002020    program     extern /home/valentin/.icaro/firmware/temporal/main.asm
                   _print   0x002070    program     static /home/valentin/.icaro/firmware/temporal/main.asm
               _00911_DS_   0x00210a    program     static /home/valentin/.icaro/firmware/temporal/main.asm
               _00985_DS_   0x002122    program     static /home/valentin/.icaro/firmware/temporal/main.asm
               _00987_DS_   0x00212c    program     static /home/valentin/.icaro/firmware/temporal/main.asm
               _00988_DS_   0x002134    program     static /home/valentin/.icaro/firmware/temporal/main.asm
               _00990_DS_   0x00215e    program     static /home/valentin/.icaro/firmware/temporal/main.asm
               _00993_DS_   0x00216c    program     static /home/valentin/.icaro/firmware/temporal/main.asm
               _00922_DS_   0x002172    program     static /home/valentin/.icaro/firmware/temporal/main.asm
               _00876_DS_   0x00217e    program     static /home/valentin/.icaro/firmware/temporal/main.asm
               _00996_DS_   0x002198    program     static /home/valentin/.icaro/firmware/temporal/main.asm
               _00908_DS_   0x00219c    program     static /home/valentin/.icaro/firmware/temporal/main.asm
               _01000_DS_   0x0021f4    program     static /home/valentin/.icaro/firmware/temporal/main.asm
               _00939_DS_   0x0021f6    program     static /home/valentin/.icaro/firmware/temporal/main.asm
               _01002_DS_   0x002218    program     static /home/valentin/.icaro/firmware/temporal/main.asm
               _00914_DS_   0x002278    program     static /home/valentin/.icaro/firmware/temporal/main.asm
               _00915_DS_   0x002284    program     static /home/valentin/.icaro/firmware/temporal/main.asm
               _00881_DS_   0x0022c6    program     static /home/valentin/.icaro/firmware/temporal/main.asm
               _01004_DS_   0x0022ce    program     static /home/valentin/.icaro/firmware/temporal/main.asm
               _00883_DS_   0x002358    program     static /home/valentin/.icaro/firmware/temporal/main.asm
               _01006_DS_   0x002360    program     static /home/valentin/.icaro/firmware/temporal/main.asm
               _00885_DS_   0x0023e8    program     static /home/valentin/.icaro/firmware/temporal/main.asm
               _01008_DS_   0x0023f0    program     static /home/valentin/.icaro/firmware/temporal/main.asm
               _00887_DS_   0x002478    program     static /home/valentin/.icaro/firmware/temporal/main.asm
               _01010_DS_   0x002480    program     static /home/valentin/.icaro/firmware/temporal/main.asm
               _00889_DS_   0x002508    program     static /home/valentin/.icaro/firmware/temporal/main.asm
               _01012_DS_   0x002510    program     static /home/valentin/.icaro/firmware/temporal/main.asm
               _00891_DS_   0x002598    program     static /home/valentin/.icaro/firmware/temporal/main.asm
               _01014_DS_   0x0025a0    program     static /home/valentin/.icaro/firmware/temporal/main.asm
               _00893_DS_   0x002628    program     static /home/valentin/.icaro/firmware/temporal/main.asm
               _01016_DS_   0x002630    program     static /home/valentin/.icaro/firmware/temporal/main.asm
               _00895_DS_   0x0026ac    program     static /home/valentin/.icaro/firmware/temporal/main.asm
               _00898_DS_   0x0026f2    program     static /home/valentin/.icaro/firmware/temporal/main.asm
               _00902_DS_   0x00271a    program     static /home/valentin/.icaro/firmware/temporal/main.asm
               _01019_DS_   0x002722    program     static /home/valentin/.icaro/firmware/temporal/main.asm
               _00903_DS_   0x002726    program     static /home/valentin/.icaro/firmware/temporal/main.asm
               _00905_DS_   0x002756    program     static /home/valentin/.icaro/firmware/temporal/main.asm
        _SortServoTimings   0x0027ba    program     static /home/valentin/.icaro/firmware/temporal/main.asm
               _00325_DS_   0x0027f8    program     static /home/valentin/.icaro/firmware/temporal/main.asm
               _00322_DS_   0x002846    program     static /home/valentin/.icaro/firmware/temporal/main.asm
               _00327_DS_   0x002854    program     static /home/valentin/.icaro/firmware/temporal/main.asm
               _00294_DS_   0x002906    program     static /home/valentin/.icaro/firmware/temporal/main.asm
               _00391_DS_   0x00291a    program     static /home/valentin/.icaro/firmware/temporal/main.asm
               _00319_DS_   0x00291e    program     static /home/valentin/.icaro/firmware/temporal/main.asm
               _00302_DS_   0x0029e6    program     static /home/valentin/.icaro/firmware/temporal/main.asm
               _00396_DS_   0x0029fa    program     static /home/valentin/.icaro/firmware/temporal/main.asm
               _00316_DS_   0x002a26    program     static /home/valentin/.icaro/firmware/temporal/main.asm
               _00310_DS_   0x002ae6    program     static /home/valentin/.icaro/firmware/temporal/main.asm
               _00328_DS_   0x002b22    program     static /home/valentin/.icaro/firmware/temporal/main.asm
               _00324_DS_   0x002b76    program     static /home/valentin/.icaro/firmware/temporal/main.asm
                 ___fsadd   0x002bb0    program     extern fsadd.asm
               _00106_DS_   0x002c76    program     static fsadd.asm
               _00108_DS_   0x002c94    program     static fsadd.asm
               _00181_DS_   0x002cca    program     static fsadd.asm
               _00110_DS_   0x002cde    program     static fsadd.asm
               _00182_DS_   0x002cf8    program     static fsadd.asm
               _00112_DS_   0x002d0c    program     static fsadd.asm
               _00114_DS_   0x002d56    program     static fsadd.asm
               _00116_DS_   0x002d78    program     static fsadd.asm
               _00189_DS_   0x002d8a    program     static fsadd.asm
               _00191_DS_   0x002da0    program     static fsadd.asm
               _00193_DS_   0x002db2    program     static fsadd.asm
               _00192_DS_   0x002db4    program     static fsadd.asm
               _00190_DS_   0x002dc0    program     static fsadd.asm
               _00118_DS_   0x002dc2    program     static fsadd.asm
               _00195_DS_   0x002dd6    program     static fsadd.asm
               _00197_DS_   0x002de8    program     static fsadd.asm
               _00196_DS_   0x002dea    program     static fsadd.asm
               _00194_DS_   0x002df6    program     static fsadd.asm
               _00119_DS_   0x002dfe    program     static fsadd.asm
               _00198_DS_   0x002e2a    program     static fsadd.asm
               _00123_DS_   0x002e36    program     static fsadd.asm
               _00125_DS_   0x002e4a    program     static fsadd.asm
               _00199_DS_   0x002e70    program     static fsadd.asm
               _00130_DS_   0x002e84    program     static fsadd.asm
               _00129_DS_   0x002ea6    program     static fsadd.asm
               _00132_DS_   0x002eb6    program     static fsadd.asm
               _00133_DS_   0x002f14    program     static fsadd.asm
       _device_descriptor   0x002f5e    program     extern usb_descriptors.asm
             _default_cfg   0x002f70    program     extern usb_descriptors.asm
               _flash_cfg   0x002f82    program     extern usb_descriptors.asm
         _application_cfg   0x002fa2    program     extern usb_descriptors.asm
_configuration_descriptor   0x002fc2    program     extern usb_descriptors.asm
                    _str0   0x002fcc    program     extern usb_descriptors.asm
                    _str1   0x002fd0    program     extern usb_descriptors.asm
                    _str2   0x002ff6    program     extern usb_descriptors.asm
                    _str3   0x003018    program     extern usb_descriptors.asm
                    _str4   0x00301c    program     extern usb_descriptors.asm
                    _str5   0x00302c    program     extern usb_descriptors.asm
                    _str6   0x003038    program     extern usb_descriptors.asm
       _string_descriptor   0x003054    program     extern usb_descriptors.asm
            _ep_init_cfg0   0x00306a    program     static usb_descriptors.asm
            _ep_init_cfg1   0x00309a    program     static usb_descriptors.asm
            _ep_init_cfg2   0x0030ca    program     static usb_descriptors.asm
                 _ep_init   0x0030fa    program     extern usb_descriptors.asm
              _ep_in_cfg0   0x003106    program     static usb_descriptors.asm
              _ep_in_cfg1   0x003136    program     static usb_descriptors.asm
              _ep_in_cfg2   0x003166    program     static usb_descriptors.asm
                   _ep_in   0x003196    program     extern usb_descriptors.asm
             _ep_out_cfg0   0x0031a2    program     static usb_descriptors.asm
             _ep_out_cfg1   0x0031d2    program     static usb_descriptors.asm
             _ep_out_cfg2   0x003202    program     static usb_descriptors.asm
                  _ep_out   0x003232    program     extern usb_descriptors.asm
           _ep_setup_cfg0   0x00323e    program     static usb_descriptors.asm
                _ep_setup   0x00326e    program     extern usb_descriptors.asm
                    _mask   0x00327a    program     extern /home/valentin/.icaro/firmware/temporal/main.asm
                    _port   0x003298    program     extern /home/valentin/.icaro/firmware/temporal/main.asm
              _servomasks   0x0032b6    program     extern /home/valentin/.icaro/firmware/temporal/main.asm
                 ___str_0   0x0032c8    program     static /home/valentin/.icaro/firmware/temporal/main.asm
                 ___str_1   0x0032d0    program     static /home/valentin/.icaro/firmware/temporal/main.asm
                 ___str_2   0x0032e6    program     static /home/valentin/.icaro/firmware/temporal/main.asm
                 ___str_3   0x0032ea    program     static /home/valentin/.icaro/firmware/temporal/main.asm
                 ___str_5   0x0032ee    program     static /home/valentin/.icaro/firmware/temporal/main.asm
                 ___str_6   0x0032f0    program     static /home/valentin/.icaro/firmware/temporal/main.asm
                 ___fsmul   0x0032f2    program     extern fsmul.asm
               _00105_DS_   0x0033a2    program     static fsmul.asm
               _00106_DS_   0x0033ac    program     static fsmul.asm
               _00109_DS_   0x003566    program     static fsmul.asm
               _00110_DS_   0x003588    program     static fsmul.asm
               _00152_DS_   0x003596    program     static fsmul.asm
               _00119_DS_   0x0035a8    program     static fsmul.asm
               _00120_DS_   0x0035b0    program     static fsmul.asm
               _00115_DS_   0x0035ca    program     static fsmul.asm
               _00112_DS_   0x0035de    program     static fsmul.asm
               _00121_DS_   0x0035ee    program     static fsmul.asm
               _00122_DS_   0x0035f6    program     static fsmul.asm
               _00116_DS_   0x003634    program     static fsmul.asm
               _00117_DS_   0x003644    program     static fsmul.asm
                 ___fsdiv   0x003686    program     extern fsdiv.asm
               _00106_DS_   0x0037c4    program     static fsdiv.asm
               _00108_DS_   0x0037da    program     static fsdiv.asm
               _00165_DS_   0x003824    program     static fsdiv.asm
               _00110_DS_   0x003836    program     static fsdiv.asm
               _00113_DS_   0x003848    program     static fsdiv.asm
               _00166_DS_   0x003870    program     static fsdiv.asm
               _00112_DS_   0x0038aa    program     static fsdiv.asm
               _00115_DS_   0x0038c0    program     static fsdiv.asm
               _00168_DS_   0x0038cc    program     static fsdiv.asm
               _00170_DS_   0x0038f0    program     static fsdiv.asm
               _00124_DS_   0x003902    program     static fsdiv.asm
               _00125_DS_   0x00390a    program     static fsdiv.asm
               _00120_DS_   0x003924    program     static fsdiv.asm
               _00117_DS_   0x003938    program     static fsdiv.asm
               _00126_DS_   0x003948    program     static fsdiv.asm
               _00127_DS_   0x003950    program     static fsdiv.asm
               _00121_DS_   0x00398e    program     static fsdiv.asm
               _00122_DS_   0x00399e    program     static fsdiv.asm
                  _printi   0x003a00    program     static /home/valentin/.icaro/firmware/temporal/main.asm
               _00812_DS_   0x003b2a    program     static /home/valentin/.icaro/firmware/temporal/main.asm
               _00861_DS_   0x003b3a    program     static /home/valentin/.icaro/firmware/temporal/main.asm
               _00862_DS_   0x003b3c    program     static /home/valentin/.icaro/firmware/temporal/main.asm
               _00814_DS_   0x003b56    program     static /home/valentin/.icaro/firmware/temporal/main.asm
               _00819_DS_   0x003b82    program     static /home/valentin/.icaro/firmware/temporal/main.asm
               _00864_DS_   0x003bb8    program     static /home/valentin/.icaro/firmware/temporal/main.asm
               _00818_DS_   0x003bbe    program     static /home/valentin/.icaro/firmware/temporal/main.asm
               _00840_DS_   0x003bfc    program     static /home/valentin/.icaro/firmware/temporal/main.asm
               _00823_DS_   0x003c3e    program     static /home/valentin/.icaro/firmware/temporal/main.asm
               _00827_DS_   0x003c58    program     static /home/valentin/.icaro/firmware/temporal/main.asm
               _00828_DS_   0x003c9c    program     static /home/valentin/.icaro/firmware/temporal/main.asm
              _printFloat   0x003d0e    program     extern /home/valentin/.icaro/firmware/temporal/main.asm
               _01315_DS_   0x003d9a    program     static /home/valentin/.icaro/firmware/temporal/main.asm
               _01323_DS_   0x003da6    program     static /home/valentin/.icaro/firmware/temporal/main.asm
               _01316_DS_   0x003de2    program     static /home/valentin/.icaro/firmware/temporal/main.asm
               _01319_DS_   0x003ec4    program     static /home/valentin/.icaro/firmware/temporal/main.asm
               _01325_DS_   0x003f8c    program     static /home/valentin/.icaro/firmware/temporal/main.asm
                   _write   0x003fc6    program     extern /home/valentin/.icaro/firmware/temporal/main.asm
        _low_priority_isr   0x004000    program     extern /home/valentin/.icaro/firmware/temporal/main.asm
            _serial_write   0x004046    program     extern /home/valentin/.icaro/firmware/temporal/main.asm
               _01175_DS_   0x0040c8    program     static /home/valentin/.icaro/firmware/temporal/main.asm
               _01158_DS_   0x0040dc    program     static /home/valentin/.icaro/firmware/temporal/main.asm
               _01159_DS_   0x004128    program     static /home/valentin/.icaro/firmware/temporal/main.asm
               _01160_DS_   0x004174    program     static /home/valentin/.icaro/firmware/temporal/main.asm
               _01161_DS_   0x0041b8    program     static /home/valentin/.icaro/firmware/temporal/main.asm
               _01162_DS_   0x004234    program     static /home/valentin/.icaro/firmware/temporal/main.asm
               _01163_DS_   0x0042b0    program     static /home/valentin/.icaro/firmware/temporal/main.asm
               _01165_DS_   0x004318    program     static /home/valentin/.icaro/firmware/temporal/main.asm
                 _pinmode   0x004344    program     extern /home/valentin/.icaro/firmware/temporal/main.asm
               _00241_DS_   0x0043ce    program     static /home/valentin/.icaro/firmware/temporal/main.asm
               _00199_DS_   0x0043e2    program     static /home/valentin/.icaro/firmware/temporal/main.asm
               _00201_DS_   0x004416    program     static /home/valentin/.icaro/firmware/temporal/main.asm
               _00203_DS_   0x004446    program     static /home/valentin/.icaro/firmware/temporal/main.asm
               _00205_DS_   0x00447a    program     static /home/valentin/.icaro/firmware/temporal/main.asm
               _00207_DS_   0x0044aa    program     static /home/valentin/.icaro/firmware/temporal/main.asm
               _00209_DS_   0x0044de    program     static /home/valentin/.icaro/firmware/temporal/main.asm
               _00211_DS_   0x00450e    program     static /home/valentin/.icaro/firmware/temporal/main.asm
               _00213_DS_   0x004542    program     static /home/valentin/.icaro/firmware/temporal/main.asm
               _00215_DS_   0x004572    program     static /home/valentin/.icaro/firmware/temporal/main.asm
               _00217_DS_   0x0045a6    program     static /home/valentin/.icaro/firmware/temporal/main.asm
               _00220_DS_   0x0045d0    program     static /home/valentin/.icaro/firmware/temporal/main.asm
            _digitalwrite   0x0045f2    program     extern /home/valentin/.icaro/firmware/temporal/main.asm
               _00147_DS_   0x00467c    program     static /home/valentin/.icaro/firmware/temporal/main.asm
               _00105_DS_   0x004690    program     static /home/valentin/.icaro/firmware/temporal/main.asm
               _00107_DS_   0x0046c4    program     static /home/valentin/.icaro/firmware/temporal/main.asm
               _00109_DS_   0x0046f4    program     static /home/valentin/.icaro/firmware/temporal/main.asm
               _00111_DS_   0x004728    program     static /home/valentin/.icaro/firmware/temporal/main.asm
               _00113_DS_   0x004758    program     static /home/valentin/.icaro/firmware/temporal/main.asm
               _00115_DS_   0x00478c    program     static /home/valentin/.icaro/firmware/temporal/main.asm
               _00117_DS_   0x0047bc    program     static /home/valentin/.icaro/firmware/temporal/main.asm
               _00119_DS_   0x0047f0    program     static /home/valentin/.icaro/firmware/temporal/main.asm
               _00121_DS_   0x004820    program     static /home/valentin/.icaro/firmware/temporal/main.asm
               _00123_DS_   0x004854    program     static /home/valentin/.icaro/firmware/temporal/main.asm
               _00126_DS_   0x00487e    program     static /home/valentin/.icaro/firmware/temporal/main.asm
                    _mens   0x0048a0    program     extern /home/valentin/.icaro/firmware/temporal/main.asm
               _01536_DS_   0x0049c2    program     static /home/valentin/.icaro/firmware/temporal/main.asm
               _01561_DS_   0x0049ea    program     static /home/valentin/.icaro/firmware/temporal/main.asm
               _01562_DS_   0x0049ec    program     static /home/valentin/.icaro/firmware/temporal/main.asm
               _01537_DS_   0x004a1a    program     static /home/valentin/.icaro/firmware/temporal/main.asm
               _01563_DS_   0x004a32    program     static /home/valentin/.icaro/firmware/temporal/main.asm
               _01564_DS_   0x004a3e    program     static /home/valentin/.icaro/firmware/temporal/main.asm
               _01565_DS_   0x004a40    program     static /home/valentin/.icaro/firmware/temporal/main.asm
               _01529_DS_   0x004a68    program     static /home/valentin/.icaro/firmware/temporal/main.asm
               _01566_DS_   0x004a72    program     static /home/valentin/.icaro/firmware/temporal/main.asm
               _01567_DS_   0x004a74    program     static /home/valentin/.icaro/firmware/temporal/main.asm
               _01531_DS_   0x004a9c    program     static /home/valentin/.icaro/firmware/temporal/main.asm
               _01568_DS_   0x004aa6    program     static /home/valentin/.icaro/firmware/temporal/main.asm
               _01569_DS_   0x004aa8    program     static /home/valentin/.icaro/firmware/temporal/main.asm
               _01533_DS_   0x004ac0    program     static /home/valentin/.icaro/firmware/temporal/main.asm
               _01570_DS_   0x004aca    program     static /home/valentin/.icaro/firmware/temporal/main.asm
               _01571_DS_   0x004acc    program     static /home/valentin/.icaro/firmware/temporal/main.asm
               _01538_DS_   0x004aee    program     static /home/valentin/.icaro/firmware/temporal/main.asm
                  _prints   0x004b14    program     static /home/valentin/.icaro/firmware/temporal/main.asm
               _00799_DS_   0x004bb8    program     static /home/valentin/.icaro/firmware/temporal/main.asm
               _00747_DS_   0x004bca    program     static /home/valentin/.icaro/firmware/temporal/main.asm
               _00800_DS_   0x004bea    program     static /home/valentin/.icaro/firmware/temporal/main.asm
               _00733_DS_   0x004bec    program     static /home/valentin/.icaro/firmware/temporal/main.asm
               _00801_DS_   0x004bfe    program     static /home/valentin/.icaro/firmware/temporal/main.asm
               _00735_DS_   0x004c06    program     static /home/valentin/.icaro/firmware/temporal/main.asm
               _00736_DS_   0x004c0e    program     static /home/valentin/.icaro/firmware/temporal/main.asm
               _00740_DS_   0x004c16    program     static /home/valentin/.icaro/firmware/temporal/main.asm
               _00750_DS_   0x004c26    program     static /home/valentin/.icaro/firmware/temporal/main.asm
               _00804_DS_   0x004c32    program     static /home/valentin/.icaro/firmware/temporal/main.asm
               _00772_DS_   0x004c58    program     static /home/valentin/.icaro/firmware/temporal/main.asm
               _00768_DS_   0x004c68    program     static /home/valentin/.icaro/firmware/temporal/main.asm
               _00753_DS_   0x004c70    program     static /home/valentin/.icaro/firmware/temporal/main.asm
               _00805_DS_   0x004ca8    program     static /home/valentin/.icaro/firmware/temporal/main.asm
               _00770_DS_   0x004caa    program     static /home/valentin/.icaro/firmware/temporal/main.asm
               _00756_DS_   0x004cba    program     static /home/valentin/.icaro/firmware/temporal/main.asm
               _00806_DS_   0x004cc6    program     static /home/valentin/.icaro/firmware/temporal/main.asm
               _00745_DS_   0x004cec    program     static /home/valentin/.icaro/firmware/temporal/main.asm
                 _caminar   0x004d44    program     extern /home/valentin/.icaro/firmware/temporal/main.asm
               _01577_DS_   0x004e00    program     static /home/valentin/.icaro/firmware/temporal/main.asm
               _01585_DS_   0x004f06    program     static /home/valentin/.icaro/firmware/temporal/main.asm
                _uitoamod   0x004f40    program     static /home/valentin/.icaro/firmware/temporal/main.asm
               _01114_DS_   0x004fbc    program     static /home/valentin/.icaro/firmware/temporal/main.asm
               _01150_DS_   0x004fe4    program     static /home/valentin/.icaro/firmware/temporal/main.asm
               _01133_DS_   0x005006    program     static /home/valentin/.icaro/firmware/temporal/main.asm
               _01121_DS_   0x00500a    program     static /home/valentin/.icaro/firmware/temporal/main.asm
               _01151_DS_   0x00507e    program     static /home/valentin/.icaro/firmware/temporal/main.asm
               _01117_DS_   0x005088    program     static /home/valentin/.icaro/firmware/temporal/main.asm
               _01152_DS_   0x00509c    program     static /home/valentin/.icaro/firmware/temporal/main.asm
               _01153_DS_   0x0050ac    program     static /home/valentin/.icaro/firmware/temporal/main.asm
               _01126_DS_   0x0050b4    program     static /home/valentin/.icaro/firmware/temporal/main.asm
               _01127_DS_   0x0050b8    program     static /home/valentin/.icaro/firmware/temporal/main.asm
               _01123_DS_   0x0050d4    program     static /home/valentin/.icaro/firmware/temporal/main.asm
             _digitalread   0x00512e    program     extern /home/valentin/.icaro/firmware/temporal/main.asm
               _00194_DS_   0x0051a4    program     static /home/valentin/.icaro/firmware/temporal/main.asm
               _00152_DS_   0x0051b8    program     static /home/valentin/.icaro/firmware/temporal/main.asm
               _00154_DS_   0x0051ee    program     static /home/valentin/.icaro/firmware/temporal/main.asm
               _00156_DS_   0x0051f4    program     static /home/valentin/.icaro/firmware/temporal/main.asm
               _00158_DS_   0x00522a    program     static /home/valentin/.icaro/firmware/temporal/main.asm
               _00160_DS_   0x005230    program     static /home/valentin/.icaro/firmware/temporal/main.asm
               _00162_DS_   0x005266    program     static /home/valentin/.icaro/firmware/temporal/main.asm
               _00164_DS_   0x00526c    program     static /home/valentin/.icaro/firmware/temporal/main.asm
               _00166_DS_   0x0052a2    program     static /home/valentin/.icaro/firmware/temporal/main.asm
               _00168_DS_   0x0052a8    program     static /home/valentin/.icaro/firmware/temporal/main.asm
               _00170_DS_   0x0052da    program     static /home/valentin/.icaro/firmware/temporal/main.asm
               _00172_DS_   0x0052e0    program     static /home/valentin/.icaro/firmware/temporal/main.asm
               _00173_DS_   0x0052e4    program     static /home/valentin/.icaro/firmware/temporal/main.asm
             _printNumber   0x0052fe    program     extern /home/valentin/.icaro/firmware/temporal/main.asm
               _01290_DS_   0x00537a    program     static /home/valentin/.icaro/firmware/temporal/main.asm
               _01275_DS_   0x005382    program     static /home/valentin/.icaro/firmware/temporal/main.asm
               _01308_DS_   0x0053a2    program     static /home/valentin/.icaro/firmware/temporal/main.asm
               _01293_DS_   0x00541c    program     static /home/valentin/.icaro/firmware/temporal/main.asm
               _01280_DS_   0x00542c    program     static /home/valentin/.icaro/firmware/temporal/main.asm
               _01286_DS_   0x005460    program     static /home/valentin/.icaro/firmware/temporal/main.asm
               _01287_DS_   0x005466    program     static /home/valentin/.icaro/firmware/temporal/main.asm
               _01282_DS_   0x00547c    program     static /home/valentin/.icaro/firmware/temporal/main.asm
                    _init   0x0054c2    program     extern /home/valentin/.icaro/firmware/temporal/main.asm
               _01459_DS_   0x005590    program     static /home/valentin/.icaro/firmware/temporal/main.asm
               _01479_DS_   0x0055ca    program     static /home/valentin/.icaro/firmware/temporal/main.asm
               _01457_DS_   0x0055ce    program     static /home/valentin/.icaro/firmware/temporal/main.asm
               _01461_DS_   0x0055d8    program     static /home/valentin/.icaro/firmware/temporal/main.asm
               _01480_DS_   0x005612    program     static /home/valentin/.icaro/firmware/temporal/main.asm
               _01463_DS_   0x005614    program     static /home/valentin/.icaro/firmware/temporal/main.asm
              ___ulong2fs   0x00563e    program     extern ulong2fs.asm
               _00121_DS_   0x0056a2    program     static ulong2fs.asm
               _00107_DS_   0x0056a8    program     static ulong2fs.asm
               _00124_DS_   0x0056bc    program     static ulong2fs.asm
               _00141_DS_   0x0056da    program     static ulong2fs.asm
               _00110_DS_   0x0056dc    program     static ulong2fs.asm
               _00142_DS_   0x005702    program     static ulong2fs.asm
               _00114_DS_   0x00570c    program     static ulong2fs.asm
               _00144_DS_   0x005732    program     static ulong2fs.asm
               _00145_DS_   0x005734    program     static ulong2fs.asm
               _00116_DS_   0x005740    program     static ulong2fs.asm
               _00117_DS_   0x00577e    program     static ulong2fs.asm
                    _loop   0x0057b4    program     extern /home/valentin/.icaro/firmware/temporal/main.asm
               _01631_DS_   0x0057f2    program     static /home/valentin/.icaro/firmware/temporal/main.asm
               _01632_DS_   0x0057f4    program     static /home/valentin/.icaro/firmware/temporal/main.asm
               _01596_DS_   0x00584c    program     static /home/valentin/.icaro/firmware/temporal/main.asm
               _01633_DS_   0x005858    program     static /home/valentin/.icaro/firmware/temporal/main.asm
               _01634_DS_   0x00585a    program     static /home/valentin/.icaro/firmware/temporal/main.asm
               _01598_DS_   0x005884    program     static /home/valentin/.icaro/firmware/temporal/main.asm
               _01635_DS_   0x005890    program     static /home/valentin/.icaro/firmware/temporal/main.asm
               _01636_DS_   0x005892    program     static /home/valentin/.icaro/firmware/temporal/main.asm
               _01600_DS_   0x0058bc    program     static /home/valentin/.icaro/firmware/temporal/main.asm
               _01637_DS_   0x0058d4    program     static /home/valentin/.icaro/firmware/temporal/main.asm
               _01638_DS_   0x0058d6    program     static /home/valentin/.icaro/firmware/temporal/main.asm
               _01601_DS_   0x0058e4    program     static /home/valentin/.icaro/firmware/temporal/main.asm
               _01640_DS_   0x0058f0    program     static /home/valentin/.icaro/firmware/temporal/main.asm
               _01608_DS_   0x005910    program     static /home/valentin/.icaro/firmware/temporal/main.asm
                   _begin   0x005922    program     extern /home/valentin/.icaro/firmware/temporal/main.asm
               _11660_DS_   0x005948    program     static /home/valentin/.icaro/firmware/temporal/main.asm
               _01447_DS_   0x00595a    program     static /home/valentin/.icaro/firmware/temporal/main.asm
               _01425_DS_   0x00595e    program     static /home/valentin/.icaro/firmware/temporal/main.asm
               _01428_DS_   0x0059f8    program     static /home/valentin/.icaro/firmware/temporal/main.asm
               _01429_DS_   0x005a40    program     static /home/valentin/.icaro/firmware/temporal/main.asm
                 ___fssub   0x005a7a    program     extern fssub.asm
               _00106_DS_   0x005b12    program     static fssub.asm
               _00108_DS_   0x005b40    program     static fssub.asm
               _00109_DS_   0x005ba8    program     static fssub.asm
               __modulong   0x005bce    program     extern modulong.asm
               _00122_DS_   0x005c48    program     static modulong.asm
               _00109_DS_   0x005c4a    program     static modulong.asm
               _00141_DS_   0x005c76    program     static modulong.asm
               _00108_DS_   0x005c84    program     static modulong.asm
               _00114_DS_   0x005c8c    program     static modulong.asm
               _00142_DS_   0x005ca2    program     static modulong.asm
               _00113_DS_   0x005cb4    program     static modulong.asm
               _00117_DS_   0x005cd6    program     static modulong.asm
                     _lcd   0x005d08    program     extern /home/valentin/.icaro/firmware/temporal/main.asm
               _01487_DS_   0x005dbe    program     static /home/valentin/.icaro/firmware/temporal/main.asm
               _01488_DS_   0x005dc0    program     static /home/valentin/.icaro/firmware/temporal/main.asm
             _ServoAttach   0x005e34    program     extern /home/valentin/.icaro/firmware/temporal/main.asm
               _00414_DS_   0x005eac    program     static /home/valentin/.icaro/firmware/temporal/main.asm
               _00411_DS_   0x005efa    program     static /home/valentin/.icaro/firmware/temporal/main.asm
               _00416_DS_   0x005f3e    program     static /home/valentin/.icaro/firmware/temporal/main.asm
               __divulong   0x005f58    program     extern divulong.asm
               _00109_DS_   0x005fd4    program     static divulong.asm
               _00127_DS_   0x00600c    program     static divulong.asm
               _00110_DS_   0x006020    program     static divulong.asm
                   _setup   0x006078    program     extern /home/valentin/.icaro/firmware/temporal/main.asm
                  ___fslt   0x006196    program     extern fslt.asm
               _00126_DS_   0x006250    program     static fslt.asm
               _00106_DS_   0x006256    program     static fslt.asm
               _00108_DS_   0x00625a    program     static fslt.asm
               _00127_DS_   0x006286    program     static fslt.asm
               _00111_DS_   0x00628c    program     static fslt.asm
               _00112_DS_   0x00628e    program     static fslt.asm
       _PWM_set_dutycycle   0x0062b4    program     extern /home/valentin/.icaro/firmware/temporal/main.asm
               _00624_DS_   0x0062f6    program     static /home/valentin/.icaro/firmware/temporal/main.asm
               _00599_DS_   0x0062fe    program     static /home/valentin/.icaro/firmware/temporal/main.asm
               _00601_DS_   0x00634e    program     static /home/valentin/.icaro/firmware/temporal/main.asm
               _00603_DS_   0x00637a    program     static /home/valentin/.icaro/firmware/temporal/main.asm
               _00604_DS_   0x006382    program     static /home/valentin/.icaro/firmware/temporal/main.asm
               _printchar   0x0063c0    program     static /home/valentin/.icaro/firmware/temporal/main.asm
               _00727_DS_   0x00644e    program     static /home/valentin/.icaro/firmware/temporal/main.asm
               _00720_DS_   0x00646a    program     static /home/valentin/.icaro/firmware/temporal/main.asm
               _00728_DS_   0x006494    program     static /home/valentin/.icaro/firmware/temporal/main.asm
               _00722_DS_   0x006496    program     static /home/valentin/.icaro/firmware/temporal/main.asm
              ___slong2fs   0x0064b8    program     extern slong2fs.asm
               _00113_DS_   0x00651c    program     static slong2fs.asm
               _00106_DS_   0x006554    program     static slong2fs.asm
               _00108_DS_   0x006588    program     static slong2fs.asm
              ___fs2ulong   0x0065ae    program     extern fs2ulong.asm
               _00105_DS_   0x00660e    program     static fs2ulong.asm
               _00106_DS_   0x006618    program     static fs2ulong.asm
               _00118_DS_   0x00665a    program     static fs2ulong.asm
               _00120_DS_   0x006668    program     static fs2ulong.asm
               _00119_DS_   0x00666a    program     static fs2ulong.asm
               _00117_DS_   0x006676    program     static fs2ulong.asm
               _00108_DS_   0x006684    program     static fs2ulong.asm
            _serial_begin   0x0066a2    program     extern /home/valentin/.icaro/firmware/temporal/main.asm
_PWM_set_percent_dutycycle   0x00677e    program     extern /home/valentin/.icaro/firmware/temporal/main.asm
               _00639_DS_   0x0067b4    program     static /home/valentin/.icaro/firmware/temporal/main.asm
               _00636_DS_   0x0067ca    program     static /home/valentin/.icaro/firmware/temporal/main.asm
               _00640_DS_   0x006814    program     static /home/valentin/.icaro/firmware/temporal/main.asm
       _PWM_set_frequency   0x006856    program     extern /home/valentin/.icaro/firmware/temporal/main.asm
               _00591_DS_   0x0068c6    program     static /home/valentin/.icaro/firmware/temporal/main.asm
               _00592_DS_   0x0068d4    program     static /home/valentin/.icaro/firmware/temporal/main.asm
               _00576_DS_   0x0068dc    program     static /home/valentin/.icaro/firmware/temporal/main.asm
               _00593_DS_   0x0068e8    program     static /home/valentin/.icaro/firmware/temporal/main.asm
               _00573_DS_   0x006900    program     static /home/valentin/.icaro/firmware/temporal/main.asm
               _00580_DS_   0x006916    program     static /home/valentin/.icaro/firmware/temporal/main.asm
             _ServoDetach   0x00692c    program     extern /home/valentin/.icaro/firmware/temporal/main.asm
               _00442_DS_   0x006988    program     static /home/valentin/.icaro/firmware/temporal/main.asm
               _00439_DS_   0x0069be    program     static /home/valentin/.icaro/firmware/temporal/main.asm
               _00444_DS_   0x0069ea    program     static /home/valentin/.icaro/firmware/temporal/main.asm
                 _set_PWM   0x006a00    program     extern /home/valentin/.icaro/firmware/temporal/main.asm
               _00686_DS_   0x006a42    program     static /home/valentin/.icaro/firmware/temporal/main.asm
               _00687_DS_   0x006a44    program     static /home/valentin/.icaro/firmware/temporal/main.asm
               _00667_DS_   0x006a74    program     static /home/valentin/.icaro/firmware/temporal/main.asm
               _00692_DS_   0x006a7e    program     static /home/valentin/.icaro/firmware/temporal/main.asm
               _00693_DS_   0x006a80    program     static /home/valentin/.icaro/firmware/temporal/main.asm
               _00672_DS_   0x006ab4    program     static /home/valentin/.icaro/firmware/temporal/main.asm
                __moduint   0x006ad2    program     extern moduint.asm
               _00107_DS_   0x006b12    program     static moduint.asm
               _00136_DS_   0x006b2e    program     static moduint.asm
               _00106_DS_   0x006b38    program     static moduint.asm
               _00112_DS_   0x006b40    program     static moduint.asm
               _00137_DS_   0x006b4a    program     static moduint.asm
               _00111_DS_   0x006b54    program     static moduint.asm
                __divuint   0x006b8c    program     extern divuint.asm
               _00109_DS_   0x006bd4    program     static divuint.asm
               _00127_DS_   0x006bf8    program     static divuint.asm
               _00110_DS_   0x006c04    program     static divuint.asm
              _write8bits   0x006c3c    program     extern /home/valentin/.icaro/firmware/temporal/main.asm
               _01208_DS_   0x006c66    program     static /home/valentin/.icaro/firmware/temporal/main.asm
               _01220_DS_   0x006c8a    program     static /home/valentin/.icaro/firmware/temporal/main.asm
               _01222_DS_   0x006c92    program     static /home/valentin/.icaro/firmware/temporal/main.asm
               _01221_DS_   0x006c94    program     static /home/valentin/.icaro/firmware/temporal/main.asm
               _01219_DS_   0x006c9a    program     static /home/valentin/.icaro/firmware/temporal/main.asm
               _01224_DS_   0x006cc4    program     static /home/valentin/.icaro/firmware/temporal/main.asm
              _write4bits   0x006ce8    program     extern /home/valentin/.icaro/firmware/temporal/main.asm
               _01186_DS_   0x006d12    program     static /home/valentin/.icaro/firmware/temporal/main.asm
               _01198_DS_   0x006d36    program     static /home/valentin/.icaro/firmware/temporal/main.asm
               _01200_DS_   0x006d3e    program     static /home/valentin/.icaro/firmware/temporal/main.asm
               _01199_DS_   0x006d40    program     static /home/valentin/.icaro/firmware/temporal/main.asm
               _01197_DS_   0x006d46    program     static /home/valentin/.icaro/firmware/temporal/main.asm
               _01202_DS_   0x006d70    program     static /home/valentin/.icaro/firmware/temporal/main.asm
               _printfmod   0x006d94    program     extern /home/valentin/.icaro/firmware/temporal/main.asm
                    _ping   0x006e3c    program     extern /home/valentin/.icaro/firmware/temporal/main.asm
               _01493_DS_   0x006e48    program     static /home/valentin/.icaro/firmware/temporal/main.asm
               _01504_DS_   0x006e94    program     static /home/valentin/.icaro/firmware/temporal/main.asm
               _01496_DS_   0x006e98    program     static /home/valentin/.icaro/firmware/temporal/main.asm
               _01514_DS_   0x006eb2    program     static /home/valentin/.icaro/firmware/temporal/main.asm
               _01515_DS_   0x006eb4    program     static /home/valentin/.icaro/firmware/temporal/main.asm
               _01498_DS_   0x006ec8    program     static /home/valentin/.icaro/firmware/temporal/main.asm
         _ServosPulseDown   0x006edc    program     static /home/valentin/.icaro/firmware/temporal/main.asm
               _00266_DS_   0x006ef4    program     static /home/valentin/.icaro/firmware/temporal/main.asm
               _00264_DS_   0x006f56    program     static /home/valentin/.icaro/firmware/temporal/main.asm
                    bucle   0x006f5a    program     static /home/valentin/.icaro/firmware/temporal/main.asm
                 _Delayms   0x006f7c    program     extern /home/valentin/.icaro/firmware/temporal/main.asm
               _00537_DS_   0x006fc4    program     static /home/valentin/.icaro/firmware/temporal/main.asm
               _00548_DS_   0x006fda    program     static /home/valentin/.icaro/firmware/temporal/main.asm
               _00549_DS_   0x006fee    program     static /home/valentin/.icaro/firmware/temporal/main.asm
               _00539_DS_   0x006ff0    program     static /home/valentin/.icaro/firmware/temporal/main.asm
               __do_cinit   0x007016    program     extern obj/Debug/crt0ipinguino.asm
                     test   0x007030    program     static obj/Debug/crt0ipinguino.asm
                    cont1   0x007036    program     static obj/Debug/crt0ipinguino.asm
                copy_loop   0x007084    program     static obj/Debug/crt0ipinguino.asm
            copy_one_byte   0x00708a    program     static obj/Debug/crt0ipinguino.asm
             done_copying   0x007098    program     static obj/Debug/crt0ipinguino.asm
                     done   0x0070ac    program     static obj/Debug/crt0ipinguino.asm
                _lcdPrint   0x0070ae    program     extern /home/valentin/.icaro/firmware/temporal/main.asm
               _01266_DS_   0x0070e8    program     static /home/valentin/.icaro/firmware/temporal/main.asm
               _01268_DS_   0x00711e    program     static /home/valentin/.icaro/firmware/temporal/main.asm
               ___fs2uint   0x007140    program     extern fs2uint.asm
               _00112_DS_   0x0071ac    program     static fs2uint.asm
               _00106_DS_   0x0071b4    program     static fs2uint.asm
               _00107_DS_   0x0071ba    program     static fs2uint.asm
               _setCursor   0x0071d0    program     extern /home/valentin/.icaro/firmware/temporal/main.asm
               _01253_DS_   0x007214    program     static /home/valentin/.icaro/firmware/temporal/main.asm
             _pulseEnable   0x00725a    program     extern /home/valentin/.icaro/firmware/temporal/main.asm
               ___sint2fs   0x0072d2    program     extern sint2fs.asm
                    _send   0x007346    program     extern /home/valentin/.icaro/firmware/temporal/main.asm
               _01230_DS_   0x007390    program     static /home/valentin/.icaro/firmware/temporal/main.asm
               _01232_DS_   0x0073a6    program     static /home/valentin/.icaro/firmware/temporal/main.asm
           _serial_printf   0x0073b8    program     extern /home/valentin/.icaro/firmware/temporal/main.asm
        _serial_interrupt   0x00742a    program     extern /home/valentin/.icaro/firmware/temporal/main.asm
               _01069_DS_   0x007444    program     static /home/valentin/.icaro/firmware/temporal/main.asm
               _01051_DS_   0x00744c    program     static /home/valentin/.icaro/firmware/temporal/main.asm
               _01052_DS_   0x007450    program     static /home/valentin/.icaro/firmware/temporal/main.asm
               _01054_DS_   0x007476    program     static /home/valentin/.icaro/firmware/temporal/main.asm
               _01057_DS_   0x007484    program     static /home/valentin/.icaro/firmware/temporal/main.asm
              _ServoWrite   0x007492    program     extern /home/valentin/.icaro/firmware/temporal/main.asm
               _00466_DS_   0x0074c2    program     static /home/valentin/.icaro/firmware/temporal/main.asm
               _00468_DS_   0x0074cc    program     static /home/valentin/.icaro/firmware/temporal/main.asm
               _00469_DS_   0x0074e8    program     static /home/valentin/.icaro/firmware/temporal/main.asm
                 _Delayus   0x0074fa    program     extern /home/valentin/.icaro/firmware/temporal/main.asm
               _00556_DS_   0x007526    program     static /home/valentin/.icaro/firmware/temporal/main.asm
               _00567_DS_   0x007534    program     static /home/valentin/.icaro/firmware/temporal/main.asm
               _00558_DS_   0x00753c    program     static /home/valentin/.icaro/firmware/temporal/main.asm
             _serial_read   0x007556    program     extern /home/valentin/.icaro/firmware/temporal/main.asm
               _01081_DS_   0x007598    program     static /home/valentin/.icaro/firmware/temporal/main.asm
                  _parado   0x0075a8    program     extern /home/valentin/.icaro/firmware/temporal/main.asm
             _servos_init   0x0075f8    program     extern /home/valentin/.icaro/firmware/temporal/main.asm
               _00247_DS_   0x007606    program     static /home/valentin/.icaro/firmware/temporal/main.asm
        _servos_interrupt   0x007640    program     extern /home/valentin/.icaro/firmware/temporal/main.asm
               _00526_DS_   0x007664    program     static /home/valentin/.icaro/firmware/temporal/main.asm
               _00530_DS_   0x007684    program     static /home/valentin/.icaro/firmware/temporal/main.asm
       _ServoMaximumPulse   0x007686    program     extern /home/valentin/.icaro/firmware/temporal/main.asm
               _00513_DS_   0x0076be    program     static /home/valentin/.icaro/firmware/temporal/main.asm
               _ServoRead   0x0076cc    program     extern /home/valentin/.icaro/firmware/temporal/main.asm
               _00488_DS_   0x0076ec    program     static /home/valentin/.icaro/firmware/temporal/main.asm
               _00489_DS_   0x007704    program     static /home/valentin/.icaro/firmware/temporal/main.asm
       _ServoMinimumPulse   0x007712    program     extern /home/valentin/.icaro/firmware/temporal/main.asm
               _00501_DS_   0x007748    program     static /home/valentin/.icaro/firmware/temporal/main.asm
                 _command   0x007756    program     extern /home/valentin/.icaro/firmware/temporal/main.asm
        _serial_available   0x007780    program     extern /home/valentin/.icaro/firmware/temporal/main.asm
               _01037_DS_   0x007792    program     static /home/valentin/.icaro/firmware/temporal/main.asm
        _serial_putchar11   0x0077a6    program     extern /home/valentin/.icaro/firmware/temporal/main.asm
               _01042_DS_   0x0077b8    program     static /home/valentin/.icaro/firmware/temporal/main.asm
            _noAutoscroll   0x0077ca    program     extern /home/valentin/.icaro/firmware/temporal/main.asm
             _rightToLeft   0x0077ec    program     extern /home/valentin/.icaro/firmware/temporal/main.asm
                 _noBlink   0x00780e    program     extern /home/valentin/.icaro/firmware/temporal/main.asm
                _noCursor   0x007830    program     extern /home/valentin/.icaro/firmware/temporal/main.asm
               _noDisplay   0x007852    program     extern /home/valentin/.icaro/firmware/temporal/main.asm
           _pinguino_main   0x007874    program     extern /home/valentin/.icaro/firmware/temporal/main.asm
               _01646_DS_   0x00788c    program     static /home/valentin/.icaro/firmware/temporal/main.asm
           _serial_getkey   0x007894    program     extern /home/valentin/.icaro/firmware/temporal/main.asm
               _01101_DS_   0x007898    program     static /home/valentin/.icaro/firmware/temporal/main.asm
                   _clear   0x0078b4    program     extern /home/valentin/.icaro/firmware/temporal/main.asm
                    _home   0x0078d0    program     extern /home/valentin/.icaro/firmware/temporal/main.asm
                __startup   0x0078ec    program     extern obj/Debug/crt0ipinguino.asm
                   lockup   0x007902    program     static obj/Debug/crt0ipinguino.asm
              _autoscroll   0x007904    program     extern /home/valentin/.icaro/firmware/temporal/main.asm
             _leftToRight   0x007916    program     extern /home/valentin/.icaro/firmware/temporal/main.asm
                   _blink   0x007928    program     extern /home/valentin/.icaro/firmware/temporal/main.asm
                  _cursor   0x00793a    program     extern /home/valentin/.icaro/firmware/temporal/main.asm
                 _display   0x00794c    program     extern /home/valentin/.icaro/firmware/temporal/main.asm
              _init_PWM12   0x00795e    program     extern /home/valentin/.icaro/firmware/temporal/main.asm
              _init_PWM11   0x00796e    program     extern /home/valentin/.icaro/firmware/temporal/main.asm
                   _cinit   0x00797e    program     extern 
      _scrollDisplayRight   0x00798c    program     extern /home/valentin/.icaro/firmware/temporal/main.asm
       _scrollDisplayLeft   0x007998    program     extern /home/valentin/.icaro/firmware/temporal/main.asm
            _serial_flush   0x0079a4    program     extern /home/valentin/.icaro/firmware/temporal/main.asm
           _ServosPulseUp   0x0079b0    program     static /home/valentin/.icaro/firmware/temporal/main.asm
            _epapout_init   0x0079ba    program     extern /home/valentin/.icaro/firmware/temporal/main.asm
             _epapin_init   0x0079bc    program     extern /home/valentin/.icaro/firmware/temporal/main.asm
                _epap_out   0x0079be    program     extern /home/valentin/.icaro/firmware/temporal/main.asm
                 _epap_in   0x0079c0    program     extern /home/valentin/.icaro/firmware/temporal/main.asm


