gpasm-1.2.0 #980 (Aug 15 2013) /home/valentin   4-23-2015  13:22:04         PAGE  1


LOC  OBJECT CODE     LINE SOURCE TEXT
  VALUE

                      00001 ;--------------------------------------------------------
                      00002 ; File Created by SDCC : free open source ANSI-C Compiler
                      00003 ; Version 3.3.0 #8604 (Jul 16 2014) (Linux)
                      00004 ; This file was generated Thu Apr 23 13:22:04 2015
                      00005 ;--------------------------------------------------------
                      00006 ; PIC16 port for the Microchip 16-bit core micros
                      00007 ;--------------------------------------------------------
                      00008         list    p=18f4550
                      00009         radix   dec
                      00010 
                      00011 
                      00012 ;--------------------------------------------------------
                      00013 ; public variables in this module
                      00014 ;--------------------------------------------------------
  0000                00015         global  __i
  0000                00016         global  _loopvar
  0000                00017         global  _phase
  0000                00018         global  _needreordering
  0000                00019         global  _timingindex
  0000                00020         global  _timedivision
  0000                00021         global  _timings
  0000                00022         global  _activatedservos
  0000                00023         global  _servovalues
  0000                00024         global  __pr2_plus1
  0000                00025         global  __t2con
  0000                00026         global  _digitalwrite
  0000                00027         global  _digitalread
  0000                00028         global  _pinmode
  0000                00029         global  _servos_init
  0000                00030         global  _ServoAttach
  0000                00031         global  _ServoDetach
  0000                00032         global  _ServoWrite
  0000                00033         global  _ServoRead
  0000                00034         global  _ServoMinimumPulse
  0000                00035         global  _ServoMaximumPulse
  0000                00036         global  _servos_interrupt
  0000                00037         global  _analog_init
  0000                00038         global  _analogReference
  0000                00039         global  _analogread
  0000                00040         global  _Delayms
  0000                00041         global  _Delayus
  0000                00042         global  _PWM_set_frequency
  0000                00043         global  _PWM_set_dutycycle
  0000                00044         global  _PWM_set_percent_dutycycle
  0000                00045         global  _init_PWM11
  0000                00046         global  _init_PWM12
  0000                00047         global  _set_PWM
  0000                00048         global  _epap_in
  0000                00049         global  _epap_out
  0000                00050         global  _epapin_init
  0000                00051         global  _epapout_init
  0000                00052         global  _setup
  0000                00053         global  _sensordigital
gpasm-1.2.0 #980 (Aug 15 2013) /home/valentin   4-23-2015  13:22:04         PAGE  2


LOC  OBJECT CODE     LINE SOURCE TEXT
  VALUE

  0000                00054         global  _loop
  0000                00055         global  _pinguino_main
  0000                00056         global  _high_priority_isr
  0000                00057         global  _low_priority_isr
  0000                00058         global  _mask
  0000                00059         global  _port
  0000                00060         global  _servomasks
                      00061 
                      00062 ;--------------------------------------------------------
                      00063 ; extern variables in this module
                      00064 ;--------------------------------------------------------
  0000                00065         extern  _SPPDATAbits
  0000                00066         extern  _SPPCFGbits
  0000                00067         extern  _SPPEPSbits
  0000                00068         extern  _SPPCONbits
  0000                00069         extern  _UFRMLbits
  0000                00070         extern  _UFRMHbits
  0000                00071         extern  _UIRbits
  0000                00072         extern  _UIEbits
  0000                00073         extern  _UEIRbits
  0000                00074         extern  _UEIEbits
  0000                00075         extern  _USTATbits
  0000                00076         extern  _UCONbits
  0000                00077         extern  _UADDRbits
  0000                00078         extern  _UCFGbits
  0000                00079         extern  _UEP0bits
  0000                00080         extern  _UEP1bits
  0000                00081         extern  _UEP2bits
  0000                00082         extern  _UEP3bits
  0000                00083         extern  _UEP4bits
  0000                00084         extern  _UEP5bits
  0000                00085         extern  _UEP6bits
  0000                00086         extern  _UEP7bits
  0000                00087         extern  _UEP8bits
  0000                00088         extern  _UEP9bits
  0000                00089         extern  _UEP10bits
  0000                00090         extern  _UEP11bits
  0000                00091         extern  _UEP12bits
  0000                00092         extern  _UEP13bits
  0000                00093         extern  _UEP14bits
  0000                00094         extern  _UEP15bits
  0000                00095         extern  _PORTAbits
  0000                00096         extern  _PORTBbits
  0000                00097         extern  _PORTCbits
  0000                00098         extern  _PORTDbits
  0000                00099         extern  _PORTEbits
  0000                00100         extern  _LATAbits
  0000                00101         extern  _LATBbits
  0000                00102         extern  _LATCbits
  0000                00103         extern  _LATDbits
  0000                00104         extern  _LATEbits
  0000                00105         extern  _TRISAbits
  0000                00106         extern  _TRISBbits
gpasm-1.2.0 #980 (Aug 15 2013) /home/valentin   4-23-2015  13:22:04         PAGE  3


LOC  OBJECT CODE     LINE SOURCE TEXT
  VALUE

  0000                00107         extern  _TRISCbits
  0000                00108         extern  _TRISDbits
  0000                00109         extern  _TRISEbits
  0000                00110         extern  _OSCTUNEbits
  0000                00111         extern  _PIE1bits
  0000                00112         extern  _PIR1bits
  0000                00113         extern  _IPR1bits
  0000                00114         extern  _PIE2bits
  0000                00115         extern  _PIR2bits
  0000                00116         extern  _IPR2bits
  0000                00117         extern  _EECON1bits
  0000                00118         extern  _RCSTAbits
  0000                00119         extern  _TXSTAbits
  0000                00120         extern  _T3CONbits
  0000                00121         extern  _CMCONbits
  0000                00122         extern  _CVRCONbits
  0000                00123         extern  _ECCP1ASbits
  0000                00124         extern  _ECCP1DELbits
  0000                00125         extern  _BAUDCONbits
  0000                00126         extern  _CCP2CONbits
  0000                00127         extern  _CCP1CONbits
  0000                00128         extern  _ADCON2bits
  0000                00129         extern  _ADCON1bits
  0000                00130         extern  _ADCON0bits
  0000                00131         extern  _SSPCON2bits
  0000                00132         extern  _SSPCON1bits
  0000                00133         extern  _SSPSTATbits
  0000                00134         extern  _T2CONbits
  0000                00135         extern  _T1CONbits
  0000                00136         extern  _RCONbits
  0000                00137         extern  _WDTCONbits
  0000                00138         extern  _HLVDCONbits
  0000                00139         extern  _OSCCONbits
  0000                00140         extern  _T0CONbits
  0000                00141         extern  _STATUSbits
  0000                00142         extern  _FSR2Hbits
  0000                00143         extern  _BSRbits
  0000                00144         extern  _FSR1Hbits
  0000                00145         extern  _FSR0Hbits
  0000                00146         extern  _INTCON3bits
  0000                00147         extern  _INTCON2bits
  0000                00148         extern  _INTCONbits
  0000                00149         extern  _TBLPTRUbits
  0000                00150         extern  _PCLATHbits
  0000                00151         extern  _PCLATUbits
  0000                00152         extern  _STKPTRbits
  0000                00153         extern  _TOSUbits
  0000                00154         extern  _usb_device_state
  0000                00155         extern  _usb_active_cfg
  0000                00156         extern  _usb_active_alt_setting
  0000                00157         extern  _SPPDATA
  0000                00158         extern  _SPPCFG
  0000                00159         extern  _SPPEPS
gpasm-1.2.0 #980 (Aug 15 2013) /home/valentin   4-23-2015  13:22:04         PAGE  4


LOC  OBJECT CODE     LINE SOURCE TEXT
  VALUE

  0000                00160         extern  _SPPCON
  0000                00161         extern  _UFRML
  0000                00162         extern  _UFRMH
  0000                00163         extern  _UIR
  0000                00164         extern  _UIE
  0000                00165         extern  _UEIR
  0000                00166         extern  _UEIE
  0000                00167         extern  _USTAT
  0000                00168         extern  _UCON
  0000                00169         extern  _UADDR
  0000                00170         extern  _UCFG
  0000                00171         extern  _UEP0
  0000                00172         extern  _UEP1
  0000                00173         extern  _UEP2
  0000                00174         extern  _UEP3
  0000                00175         extern  _UEP4
  0000                00176         extern  _UEP5
  0000                00177         extern  _UEP6
  0000                00178         extern  _UEP7
  0000                00179         extern  _UEP8
  0000                00180         extern  _UEP9
  0000                00181         extern  _UEP10
  0000                00182         extern  _UEP11
  0000                00183         extern  _UEP12
  0000                00184         extern  _UEP13
  0000                00185         extern  _UEP14
  0000                00186         extern  _UEP15
  0000                00187         extern  _PORTA
  0000                00188         extern  _PORTB
  0000                00189         extern  _PORTC
  0000                00190         extern  _PORTD
  0000                00191         extern  _PORTE
  0000                00192         extern  _LATA
  0000                00193         extern  _LATB
  0000                00194         extern  _LATC
  0000                00195         extern  _LATD
  0000                00196         extern  _LATE
  0000                00197         extern  _TRISA
  0000                00198         extern  _TRISB
  0000                00199         extern  _TRISC
  0000                00200         extern  _TRISD
  0000                00201         extern  _TRISE
  0000                00202         extern  _OSCTUNE
  0000                00203         extern  _PIE1
  0000                00204         extern  _PIR1
  0000                00205         extern  _IPR1
  0000                00206         extern  _PIE2
  0000                00207         extern  _PIR2
  0000                00208         extern  _IPR2
  0000                00209         extern  _EECON1
  0000                00210         extern  _EECON2
  0000                00211         extern  _EEDATA
  0000                00212         extern  _EEADR
gpasm-1.2.0 #980 (Aug 15 2013) /home/valentin   4-23-2015  13:22:04         PAGE  5


LOC  OBJECT CODE     LINE SOURCE TEXT
  VALUE

  0000                00213         extern  _RCSTA
  0000                00214         extern  _TXSTA
  0000                00215         extern  _TXREG
  0000                00216         extern  _RCREG
  0000                00217         extern  _SPBRG
  0000                00218         extern  _SPBRGH
  0000                00219         extern  _T3CON
  0000                00220         extern  _TMR3L
  0000                00221         extern  _TMR3H
  0000                00222         extern  _CMCON
  0000                00223         extern  _CVRCON
  0000                00224         extern  _ECCP1AS
  0000                00225         extern  _ECCP1DEL
  0000                00226         extern  _BAUDCON
  0000                00227         extern  _CCP2CON
  0000                00228         extern  _CCPR2L
  0000                00229         extern  _CCPR2H
  0000                00230         extern  _CCP1CON
  0000                00231         extern  _CCPR1L
  0000                00232         extern  _CCPR1H
  0000                00233         extern  _ADCON2
  0000                00234         extern  _ADCON1
  0000                00235         extern  _ADCON0
  0000                00236         extern  _ADRESL
  0000                00237         extern  _ADRESH
  0000                00238         extern  _SSPCON2
  0000                00239         extern  _SSPCON1
  0000                00240         extern  _SSPSTAT
  0000                00241         extern  _SSPADD
  0000                00242         extern  _SSPBUF
  0000                00243         extern  _T2CON
  0000                00244         extern  _PR2
  0000                00245         extern  _TMR2
  0000                00246         extern  _T1CON
  0000                00247         extern  _TMR1L
  0000                00248         extern  _TMR1H
  0000                00249         extern  _RCON
  0000                00250         extern  _WDTCON
  0000                00251         extern  _HLVDCON
  0000                00252         extern  _OSCCON
  0000                00253         extern  _T0CON
  0000                00254         extern  _TMR0L
  0000                00255         extern  _TMR0H
  0000                00256         extern  _STATUS
  0000                00257         extern  _FSR2L
  0000                00258         extern  _FSR2H
  0000                00259         extern  _PLUSW2
  0000                00260         extern  _PREINC2
  0000                00261         extern  _POSTDEC2
  0000                00262         extern  _POSTINC2
  0000                00263         extern  _INDF2
  0000                00264         extern  _BSR
  0000                00265         extern  _FSR1L
gpasm-1.2.0 #980 (Aug 15 2013) /home/valentin   4-23-2015  13:22:04         PAGE  6


LOC  OBJECT CODE     LINE SOURCE TEXT
  VALUE

  0000                00266         extern  _FSR1H
  0000                00267         extern  _PLUSW1
  0000                00268         extern  _PREINC1
  0000                00269         extern  _POSTDEC1
  0000                00270         extern  _POSTINC1
  0000                00271         extern  _INDF1
  0000                00272         extern  _WREG
  0000                00273         extern  _FSR0L
  0000                00274         extern  _FSR0H
  0000                00275         extern  _PLUSW0
  0000                00276         extern  _PREINC0
  0000                00277         extern  _POSTDEC0
  0000                00278         extern  _POSTINC0
  0000                00279         extern  _INDF0
  0000                00280         extern  _INTCON3
  0000                00281         extern  _INTCON2
  0000                00282         extern  _INTCON
  0000                00283         extern  _PRODL
  0000                00284         extern  _PRODH
  0000                00285         extern  _TABLAT
  0000                00286         extern  _TBLPTRL
  0000                00287         extern  _TBLPTRH
  0000                00288         extern  _TBLPTRU
  0000                00289         extern  _PCL
  0000                00290         extern  _PCLATH
  0000                00291         extern  _PCLATU
  0000                00292         extern  _STKPTR
  0000                00293         extern  _TOSL
  0000                00294         extern  _TOSH
  0000                00295         extern  _TOSU
  0000                00296         extern  _delay10ktcy
  0000                00297         extern  __divulong
  0000                00298         extern  __mulint
  0000                00299         extern  __divuint
                      00300 
                      00301 ;--------------------------------------------------------
                      00302 ;       Equates to used internal registers
                      00303 ;--------------------------------------------------------
  00000FD8            00304 STATUS  equ     0xfd8
  00000FF9            00305 PCL     equ     0xff9
  00000FFA            00306 PCLATH  equ     0xffa
  00000FFB            00307 PCLATU  equ     0xffb
  00000FE8            00308 WREG    equ     0xfe8
  00000FE0            00309 BSR     equ     0xfe0
  00000FF6            00310 TBLPTRL equ     0xff6
  00000FF7            00311 TBLPTRH equ     0xff7
  00000FF8            00312 TBLPTRU equ     0xff8
  00000FF5            00313 TABLAT  equ     0xff5
  00000FE9            00314 FSR0L   equ     0xfe9
  00000FEA            00315 FSR0H   equ     0xfea
  00000FE1            00316 FSR1L   equ     0xfe1
  00000FD9            00317 FSR2L   equ     0xfd9
  00000FEF            00318 INDF0   equ     0xfef
gpasm-1.2.0 #980 (Aug 15 2013) /home/valentin   4-23-2015  13:22:04         PAGE  7


LOC  OBJECT CODE     LINE SOURCE TEXT
  VALUE

  00000FE6            00319 POSTINC1        equ     0xfe6
  00000FE5            00320 POSTDEC1        equ     0xfe5
  00000FE4            00321 PREINC1 equ     0xfe4
  00000FDB            00322 PLUSW2  equ     0xfdb
  00000FF3            00323 PRODL   equ     0xff3
  00000FF4            00324 PRODH   equ     0xff4
                      00325 
                      00326 
                      00327         idata
000000 00             00328 _phase  db      0x00
000001 00             00329 _needreordering db      0x00
000002 00             00330 _timedivision   db      0x00
000003 00 00 00       00331 _activatedservos        db      0x00, 0x00, 0x00
000006 00 01          00332 __pr2_plus1     db      0x00, 0x01
000008 00 00          00333 __i     db      0x00, 0x00
                      00334 
                      00335 
                      00336 ; Internal registers
                      00337 .registers      udata_ovr       0x0000
000000                00338 r0x00   res     1
000001                00339 r0x01   res     1
000002                00340 r0x02   res     1
000003                00341 r0x03   res     1
000004                00342 r0x04   res     1
000005                00343 r0x05   res     1
000006                00344 r0x06   res     1
000007                00345 r0x07   res     1
000008                00346 r0x08   res     1
000009                00347 r0x09   res     1
00000A                00348 r0x0a   res     1
00000B                00349 r0x0b   res     1
00000C                00350 r0x0c   res     1
                      00351 
                      00352 udata_main_0    udata
000000                00353 _loopvar        res     1
                      00354 
                      00355 udata_main_1    udata
000000                00356 _servovalues    res     18
                      00357 
                      00358 udata_main_2    udata
000000                00359 _timingindex    res     1
                      00360 
                      00361 udata_main_3    udata
000000                00362 _timings        res     72
                      00363 
                      00364 udata_main_4    udata
000000                00365 _SortServoTimings_mascaratotal_1_27     res     3
                      00366 
                      00367 udata_main_5    udata
000000                00368 __t2con res     1
                      00369 
                      00370 ;--------------------------------------------------------
                      00371 ; global & static initialisations
gpasm-1.2.0 #980 (Aug 15 2013) /home/valentin   4-23-2015  13:22:04         PAGE  8


LOC  OBJECT CODE     LINE SOURCE TEXT
  VALUE

                      00372 ;--------------------------------------------------------
                      00373 ; ; Starting pCode block
                      00374 S_main__high_priority_isr       code    0X002020
002020                00375 _high_priority_isr:
                      00376 ;       .line   97; /home/valentin/.icaro/firmware/source/main.c        void high_priority_isr(void) __i
                            nterrupt
002020 CFD8 FFE5      00377         MOVFF   STATUS, POSTDEC1
002024 CFE0 FFE5      00378         MOVFF   BSR, POSTDEC1
002028 6EE5           00379         MOVWF   POSTDEC1
00202A CFF3 FFE5      00380         MOVFF   PRODL, POSTDEC1
00202E CFF4 FFE5      00381         MOVFF   PRODH, POSTDEC1
002032 CFE9 FFE5      00382         MOVFF   FSR0L, POSTDEC1
002036 CFEA FFE5      00383         MOVFF   FSR0H, POSTDEC1
00203A CFFA FFE5      00384         MOVFF   PCLATH, POSTDEC1
00203E CFFB FFE5      00385         MOVFF   PCLATU, POSTDEC1
                      00386 ;       .line   133; /home/valentin/.icaro/firmware/source/main.c       servos_interrupt();
002042 EC00 F000      00387         CALL    _servos_interrupt
002046 CFE4 FFFB      00388         MOVFF   PREINC1, PCLATU
00204A CFE4 FFFA      00389         MOVFF   PREINC1, PCLATH
00204E CFE4 FFEA      00390         MOVFF   PREINC1, FSR0H
002052 CFE4 FFE9      00391         MOVFF   PREINC1, FSR0L
002056 CFE4 FFF4      00392         MOVFF   PREINC1, PRODH
00205A CFE4 FFF3      00393         MOVFF   PREINC1, PRODL
00205E 50E4           00394         MOVF    PREINC1, W
002060 CFE4 FFE0      00395         MOVFF   PREINC1, BSR
002064 CFE4 FFD8      00396         MOVFF   PREINC1, STATUS
002068 0010           00397         RETFIE  
                      00398 
                      00399 ; ; Starting pCode block
                      00400 S_main__low_priority_isr        code    0X004000
004000                00401 _low_priority_isr:
                      00402 ;       .line   141; /home/valentin/.icaro/firmware/source/main.c       void low_priority_isr(void) __in
                            terrupt
004000 CFD8 FFE5      00403         MOVFF   STATUS, POSTDEC1
004004 CFE0 FFE5      00404         MOVFF   BSR, POSTDEC1
004008 6EE5           00405         MOVWF   POSTDEC1
00400A CFF3 FFE5      00406         MOVFF   PRODL, POSTDEC1
00400E CFF4 FFE5      00407         MOVFF   PRODH, POSTDEC1
004012 CFE9 FFE5      00408         MOVFF   FSR0L, POSTDEC1
004016 CFEA FFE5      00409         MOVFF   FSR0H, POSTDEC1
00401A CFFA FFE5      00410         MOVFF   PCLATH, POSTDEC1
00401E CFFB FFE5      00411         MOVFF   PCLATU, POSTDEC1
                      00412 ;       .line   143; /home/valentin/.icaro/firmware/source/main.c       }
004022 CFE4 FFFB      00413         MOVFF   PREINC1, PCLATU
004026 CFE4 FFFA      00414         MOVFF   PREINC1, PCLATH
00402A CFE4 FFEA      00415         MOVFF   PREINC1, FSR0H
00402E CFE4 FFE9      00416         MOVFF   PREINC1, FSR0L
004032 CFE4 FFF4      00417         MOVFF   PREINC1, PRODH
004036 CFE4 FFF3      00418         MOVFF   PREINC1, PRODL
00403A 50E4           00419         MOVF    PREINC1, W
00403C CFE4 FFE0      00420         MOVFF   PREINC1, BSR
004040 CFE4 FFD8      00421         MOVFF   PREINC1, STATUS
004044 0010           00422         RETFIE  
gpasm-1.2.0 #980 (Aug 15 2013) /home/valentin   4-23-2015  13:22:04         PAGE  9


LOC  OBJECT CODE     LINE SOURCE TEXT
  VALUE

                      00423 
                      00424 ; I code from now on!
                      00425 ; ; Starting pCode block
                      00426 S_main__pinguino_main   code
000000                00427 _pinguino_main:
                      00428 ;       .line   53; /home/valentin/.icaro/firmware/source/main.c        PIE1=0;
000000 6A??           00429         CLRF    _PIE1
                      00430 ;       .line   54; /home/valentin/.icaro/firmware/source/main.c        PIE2=0;
000002 6A??           00431         CLRF    _PIE2
                      00432 ;       .line   55; /home/valentin/.icaro/firmware/source/main.c        ADCON1=0x0F;
000004 0E0F           00433         MOVLW   0x0f
000006 6E??           00434         MOVWF   _ADCON1
                      00435 ;       .line   60; /home/valentin/.icaro/firmware/source/main.c        setup();
000008 EC?? F0??      00436         CALL    _setup
                      00437 ;       .line   62; /home/valentin/.icaro/firmware/source/main.c        analog_init();
00000C EC?? F0??      00438         CALL    _analog_init
                      00439 ;       .line   68; /home/valentin/.icaro/firmware/source/main.c        servos_init();
000010 EC?? F0??      00440         CALL    _servos_init
                      00441 ;       .line   84; /home/valentin/.icaro/firmware/source/main.c        INTCONbits.PEIE=1;
000014 8C??           00442         BSF     _INTCONbits, 6
                      00443 ;       .line   85; /home/valentin/.icaro/firmware/source/main.c        INTCONbits.GIE=1;
000016 8E??           00444         BSF     _INTCONbits, 7
000018                00445 _00774_DS_:
                      00446 ;       .line   90; /home/valentin/.icaro/firmware/source/main.c        loop();
000018 EC?? F0??      00447         CALL    _loop
00001C D???           00448         BRA     _00774_DS_
00001E 0012           00449         RETURN  
                      00450 
                      00451 ; ; Starting pCode block
                      00452 S_main__loop    code
000000                00453 _loop:
                      00454 ;       .line   86; /home/valentin/.icaro/firmware/source/user.c        }
000000 0012           00455         RETURN  
                      00456 
                      00457 ; ; Starting pCode block
                      00458 S_main__sensordigital   code
000000                00459 _sensordigital:
                      00460 ;       .line   68; /home/valentin/.icaro/firmware/source/user.c        int sensordigital(int valor)
000000 CFD9 FFE5      00461         MOVFF   FSR2L, POSTDEC1
000004 CFE1 FFD9      00462         MOVFF   FSR1L, FSR2L
000008 C??? F???      00463         MOVFF   r0x00, POSTDEC1
00000C C??? F???      00464         MOVFF   r0x01, POSTDEC1
000010 0E02           00465         MOVLW   0x02
000012 CFDB F000      00466         MOVFF   PLUSW2, r0x00
000016 0E03           00467         MOVLW   0x03
000018 CFDB F000      00468         MOVFF   PLUSW2, r0x01
                      00469 ;       .line   72; /home/valentin/.icaro/firmware/source/user.c        temp=digitalread(valor);
00001C 50??           00470         MOVF    r0x01, W
00001E 6EE5           00471         MOVWF   POSTDEC1
000020 50??           00472         MOVF    r0x00, W
000022 6EE5           00473         MOVWF   POSTDEC1
000024 EC?? F0??      00474         CALL    _digitalread
000028 CFF3 F000      00475         MOVFF   PRODL, r0x01
gpasm-1.2.0 #980 (Aug 15 2013) /home/valentin   4-23-2015  13:22:04         PAGE 10


LOC  OBJECT CODE     LINE SOURCE TEXT
  VALUE

00002C 52E6           00476         MOVF    POSTINC1, F
00002E 52E6           00477         MOVF    POSTINC1, F
                      00478 ;       .line   73; /home/valentin/.icaro/firmware/source/user.c        if (temp==0)
000030 10??           00479         IORWF   r0x01, W
000032 E1??           00480         BNZ     _00761_DS_
                      00481 ;       .line   75; /home/valentin/.icaro/firmware/source/user.c        return 1;
000034 6AF3           00482         CLRF    PRODL
000036 0E01           00483         MOVLW   0x01
000038 D???           00484         BRA     _00763_DS_
00003A                00485 _00761_DS_:
                      00486 ;       .line   79; /home/valentin/.icaro/firmware/source/user.c        return 0;
00003A 6AF3           00487         CLRF    PRODL
00003C 6AE8           00488         CLRF    WREG
00003E                00489 _00763_DS_:
00003E CFE4 F000      00490         MOVFF   PREINC1, r0x01
000042 CFE4 F000      00491         MOVFF   PREINC1, r0x00
000046 CFE4 FFD9      00492         MOVFF   PREINC1, FSR2L
00004A 0012           00493         RETURN  
                      00494 
                      00495 ; ; Starting pCode block
                      00496 S_main__setup   code
000000                00497 _setup:
                      00498 ;       .line   41; /home/valentin/.icaro/firmware/source/user.c        TRISB=0; //defino PORTB como sal
                            ida
000000 6A??           00499         CLRF    _TRISB
                      00500 ;       .line   42; /home/valentin/.icaro/firmware/source/user.c        PORTB=0; 
000002 6A??           00501         CLRF    _PORTB
                      00502 ;       .line   43; /home/valentin/.icaro/firmware/source/user.c        PORTD=0;
000004 6A??           00503         CLRF    _PORTD
                      00504 ;       .line   44; /home/valentin/.icaro/firmware/source/user.c        pinmode(ICR_DIG1,INPUT);
000006 6AE5           00505         CLRF    POSTDEC1
000008 0E01           00506         MOVLW   0x01
00000A 6EE5           00507         MOVWF   POSTDEC1
00000C 6AE5           00508         CLRF    POSTDEC1
00000E 0E15           00509         MOVLW   0x15
000010 6EE5           00510         MOVWF   POSTDEC1
000012 EC?? F0??      00511         CALL    _pinmode
000016 0E04           00512         MOVLW   0x04
000018 26E1           00513         ADDWF   FSR1L, F
                      00514 ;       .line   45; /home/valentin/.icaro/firmware/source/user.c        pinmode(ICR_DIG2,INPUT);
00001A 6AE5           00515         CLRF    POSTDEC1
00001C 0E01           00516         MOVLW   0x01
00001E 6EE5           00517         MOVWF   POSTDEC1
000020 6AE5           00518         CLRF    POSTDEC1
000022 0E16           00519         MOVLW   0x16
000024 6EE5           00520         MOVWF   POSTDEC1
000026 EC?? F0??      00521         CALL    _pinmode
00002A 0E04           00522         MOVLW   0x04
00002C 26E1           00523         ADDWF   FSR1L, F
                      00524 ;       .line   47; /home/valentin/.icaro/firmware/source/user.c        pinmode(ICR_DIG3,TRIG);
00002E 6AE5           00525         CLRF    POSTDEC1
000030 6AE5           00526         CLRF    POSTDEC1
000032 6AE5           00527         CLRF    POSTDEC1
gpasm-1.2.0 #980 (Aug 15 2013) /home/valentin   4-23-2015  13:22:04         PAGE 11


LOC  OBJECT CODE     LINE SOURCE TEXT
  VALUE

000034 0E17           00528         MOVLW   0x17
000036 6EE5           00529         MOVWF   POSTDEC1
000038 EC?? F0??      00530         CALL    _pinmode
00003C 0E04           00531         MOVLW   0x04
00003E 26E1           00532         ADDWF   FSR1L, F
                      00533 ;       .line   48; /home/valentin/.icaro/firmware/source/user.c        pinmode(ICR_DIG4,ECHO);
000040 6AE5           00534         CLRF    POSTDEC1
000042 6AE5           00535         CLRF    POSTDEC1
000044 6AE5           00536         CLRF    POSTDEC1
000046 0E18           00537         MOVLW   0x18
000048 6EE5           00538         MOVWF   POSTDEC1
00004A EC?? F0??      00539         CALL    _pinmode
00004E 0E04           00540         MOVLW   0x04
000050 26E1           00541         ADDWF   FSR1L, F
                      00542 ;       .line   49; /home/valentin/.icaro/firmware/source/user.c        pinmode(ICR_l293_P1,OUTPUT);
000052 6AE5           00543         CLRF    POSTDEC1
000054 6AE5           00544         CLRF    POSTDEC1
000056 6AE5           00545         CLRF    POSTDEC1
000058 0E19           00546         MOVLW   0x19
00005A 6EE5           00547         MOVWF   POSTDEC1
00005C EC?? F0??      00548         CALL    _pinmode
000060 0E04           00549         MOVLW   0x04
000062 26E1           00550         ADDWF   FSR1L, F
                      00551 ;       .line   50; /home/valentin/.icaro/firmware/source/user.c        pinmode(ICR_l293_P2,OUTPUT);
000064 6AE5           00552         CLRF    POSTDEC1
000066 6AE5           00553         CLRF    POSTDEC1
000068 6AE5           00554         CLRF    POSTDEC1
00006A 0E1A           00555         MOVLW   0x1a
00006C 6EE5           00556         MOVWF   POSTDEC1
00006E EC?? F0??      00557         CALL    _pinmode
000072 0E04           00558         MOVLW   0x04
000074 26E1           00559         ADDWF   FSR1L, F
                      00560 ;       .line   51; /home/valentin/.icaro/firmware/source/user.c        pinmode(ICR_l293_P3,OUTPUT);
000076 6AE5           00561         CLRF    POSTDEC1
000078 6AE5           00562         CLRF    POSTDEC1
00007A 6AE5           00563         CLRF    POSTDEC1
00007C 0E1B           00564         MOVLW   0x1b
00007E 6EE5           00565         MOVWF   POSTDEC1
000080 EC?? F0??      00566         CALL    _pinmode
000084 0E04           00567         MOVLW   0x04
000086 26E1           00568         ADDWF   FSR1L, F
                      00569 ;       .line   52; /home/valentin/.icaro/firmware/source/user.c        pinmode(ICR_l293_P4,OUTPUT);
000088 6AE5           00570         CLRF    POSTDEC1
00008A 6AE5           00571         CLRF    POSTDEC1
00008C 6AE5           00572         CLRF    POSTDEC1
00008E 0E1C           00573         MOVLW   0x1c
000090 6EE5           00574         MOVWF   POSTDEC1
000092 EC?? F0??      00575         CALL    _pinmode
000096 0E04           00576         MOVLW   0x04
000098 26E1           00577         ADDWF   FSR1L, F
                      00578 ;       .line   53; /home/valentin/.icaro/firmware/source/user.c        ServoAttach(ICR_SRV1);
00009A 0E0A           00579         MOVLW   0x0a
00009C 6EE5           00580         MOVWF   POSTDEC1
gpasm-1.2.0 #980 (Aug 15 2013) /home/valentin   4-23-2015  13:22:04         PAGE 12


LOC  OBJECT CODE     LINE SOURCE TEXT
  VALUE

00009E EC?? F0??      00581         CALL    _ServoAttach
0000A2 52E6           00582         MOVF    POSTINC1, F
                      00583 ;       .line   54; /home/valentin/.icaro/firmware/source/user.c        ServoAttach(ICR_SRV2);
0000A4 0E0B           00584         MOVLW   0x0b
0000A6 6EE5           00585         MOVWF   POSTDEC1
0000A8 EC?? F0??      00586         CALL    _ServoAttach
0000AC 52E6           00587         MOVF    POSTINC1, F
                      00588 ;       .line   55; /home/valentin/.icaro/firmware/source/user.c        ServoAttach(ICR_SRV3);
0000AE 0E0C           00589         MOVLW   0x0c
0000B0 6EE5           00590         MOVWF   POSTDEC1
0000B2 EC?? F0??      00591         CALL    _ServoAttach
0000B6 52E6           00592         MOVF    POSTINC1, F
                      00593 ;       .line   56; /home/valentin/.icaro/firmware/source/user.c        ServoAttach(ICR_SRV4);
0000B8 0E08           00594         MOVLW   0x08
0000BA 6EE5           00595         MOVWF   POSTDEC1
0000BC EC?? F0??      00596         CALL    _ServoAttach
0000C0 52E6           00597         MOVF    POSTINC1, F
                      00598 ;       .line   57; /home/valentin/.icaro/firmware/source/user.c        ServoAttach(ICR_SRV5);
0000C2 0E09           00599         MOVLW   0x09
0000C4 6EE5           00600         MOVWF   POSTDEC1
0000C6 EC?? F0??      00601         CALL    _ServoAttach
0000CA 52E6           00602         MOVF    POSTINC1, F
0000CC 0012           00603         RETURN  
                      00604 
                      00605 ; ; Starting pCode block
                      00606 S_main__epapout_init    code
000000                00607 _epapout_init:
                      00608 ;       .line   41; /home/valentin/.icaro/firmware/source/main.c        void epapout_init() { return; }
000000 0012           00609         RETURN  
                      00610 
                      00611 ; ; Starting pCode block
                      00612 S_main__epapin_init     code
000000                00613 _epapin_init:
                      00614 ;       .line   40; /home/valentin/.icaro/firmware/source/main.c        void epapin_init() { return; }
000000 0012           00615         RETURN  
                      00616 
                      00617 ; ; Starting pCode block
                      00618 S_main__epap_out        code
000000                00619 _epap_out:
                      00620 ;       .line   39; /home/valentin/.icaro/firmware/source/main.c        void epap_out() { return; }
000000 0012           00621         RETURN  
                      00622 
                      00623 ; ; Starting pCode block
                      00624 S_main__epap_in code
000000                00625 _epap_in:
                      00626 ;       .line   38; /home/valentin/.icaro/firmware/source/main.c        void epap_in() { return; }
000000 0012           00627         RETURN  
                      00628 
                      00629 ; ; Starting pCode block
                      00630 S_main__set_PWM code
000000                00631 _set_PWM:
                      00632 ;       .line   188; /home/valentin/.icaro/firmware/tmp/pwm.c   void set_PWM(int input, int value)
000000 CFD9 FFE5      00633         MOVFF   FSR2L, POSTDEC1
gpasm-1.2.0 #980 (Aug 15 2013) /home/valentin   4-23-2015  13:22:04         PAGE 13


LOC  OBJECT CODE     LINE SOURCE TEXT
  VALUE

000004 CFE1 FFD9      00634         MOVFF   FSR1L, FSR2L
000008 C??? F???      00635         MOVFF   r0x00, POSTDEC1
00000C C??? F???      00636         MOVFF   r0x01, POSTDEC1
000010 C??? F???      00637         MOVFF   r0x02, POSTDEC1
000014 C??? F???      00638         MOVFF   r0x03, POSTDEC1
000018 C??? F???      00639         MOVFF   r0x04, POSTDEC1
00001C C??? F???      00640         MOVFF   r0x05, POSTDEC1
000020 0E02           00641         MOVLW   0x02
000022 CFDB F000      00642         MOVFF   PLUSW2, r0x00
000026 0E03           00643         MOVLW   0x03
000028 CFDB F000      00644         MOVFF   PLUSW2, r0x01
00002C 0E04           00645         MOVLW   0x04
00002E CFDB F000      00646         MOVFF   PLUSW2, r0x02
000032 0E05           00647         MOVLW   0x05
000034 CFDB F000      00648         MOVFF   PLUSW2, r0x03
                      00649 ;       .line   192; /home/valentin/.icaro/firmware/tmp/pwm.c   if (input==11)
000038 50??           00650         MOVF    r0x00, W
00003A 0A0B           00651         XORLW   0x0b
00003C E1??           00652         BNZ     _00722_DS_
00003E 50??           00653         MOVF    r0x01, W
000040 E0??           00654         BZ      _00723_DS_
000042                00655 _00722_DS_:
000042 D???           00656         BRA     _00703_DS_
000044                00657 _00723_DS_:
                      00658 ;       .line   195; /home/valentin/.icaro/firmware/tmp/pwm.c   if ((CCP2CON & 0x0F)==0) init_PWM11();
000044 50??           00659         MOVF    _CCP2CON, W
                      00660 ; #     ANDLW   0x0f
                      00661 ; #     BTFSS   STATUS, 2
                      00662 ; #     GOTO    _00701_DS_
                      00663 ; #     CALL    _init_PWM11
                      00664 ; #     MOVLW   0x03
                      00665 ;       .line   196; /home/valentin/.icaro/firmware/tmp/pwm.c   octet=value & 3;        // extract bit 0
                             and 1
000046 0B0F           00666         ANDLW   0x0f
000048 B4D8           00667         BTFSC   STATUS, 2
00004A EC?? F0??      00668         CALL    _init_PWM11
00004E 0E03           00669         MOVLW   0x03
000050 14??           00670         ANDWF   r0x02, W
000052 6E??           00671         MOVWF   r0x04
000054 6A??           00672         CLRF    r0x05
                      00673 ;       .line   197; /home/valentin/.icaro/firmware/tmp/pwm.c   octet<<=4;                      // rotat
                            e left 4 bits
000056 38??           00674         SWAPF   r0x04, W
000058 0BF0           00675         ANDLW   0xf0
00005A 6E??           00676         MOVWF   r0x04
                      00677 ;       .line   198; /home/valentin/.icaro/firmware/tmp/pwm.c   CCP2CON&=0x0F;          // reset bit 4:5
00005C 0E0F           00678         MOVLW   0x0f
00005E 16??           00679         ANDWF   _CCP2CON, F
                      00680 ;       .line   199; /home/valentin/.icaro/firmware/tmp/pwm.c   CCP2CON|=octet;         // put in CCP2CO
                            N 4:5
000060 50??           00681         MOVF    r0x04, W
000062 12??           00682         IORWF   _CCP2CON, F
                      00683 ;       .line   200; /home/valentin/.icaro/firmware/tmp/pwm.c   value>>=2;                      // 8 MSB
gpasm-1.2.0 #980 (Aug 15 2013) /home/valentin   4-23-2015  13:22:04         PAGE 14


LOC  OBJECT CODE     LINE SOURCE TEXT
  VALUE

                             bits of value
000064 34??           00684         RLCF    r0x03, W
000066 32??           00685         RRCF    r0x03, F
000068 32??           00686         RRCF    r0x02, F
00006A 34??           00687         RLCF    r0x03, W
00006C 32??           00688         RRCF    r0x03, F
00006E 32??           00689         RRCF    r0x02, F
                      00690 ;       .line   201; /home/valentin/.icaro/firmware/tmp/pwm.c   octet=value;            // in octet
000070 50??           00691         MOVF    r0x02, W
                      00692 ; =DF= MOVFF: SRC op r0x04 replaced by WREG
                      00693 ;       .line   202; /home/valentin/.icaro/firmware/tmp/pwm.c   CCPR2L=octet;           // put in CCPR2L
000072 6E??           00694         MOVWF   _CCPR2L
000074                00695 _00703_DS_:
                      00696 ;       .line   204; /home/valentin/.icaro/firmware/tmp/pwm.c   if (input==12)
000074 50??           00697         MOVF    r0x00, W
000076 0A0C           00698         XORLW   0x0c
000078 E1??           00699         BNZ     _00728_DS_
00007A 50??           00700         MOVF    r0x01, W
00007C E0??           00701         BZ      _00729_DS_
00007E                00702 _00728_DS_:
00007E D???           00703         BRA     _00708_DS_
000080                00704 _00729_DS_:
                      00705 ;       .line   207; /home/valentin/.icaro/firmware/tmp/pwm.c   if ((CCP1CON & 0x0F)==0) init_PWM12();  
                                    
000080 50??           00706         MOVF    _CCP1CON, W
                      00707 ; #     ANDLW   0x0f
                      00708 ; #     BTFSS   STATUS, 2
                      00709 ; #     GOTO    _00705_DS_
                      00710 ; #     CALL    _init_PWM12
                      00711 ; #     MOVLW   0x03
                      00712 ;       .line   208; /home/valentin/.icaro/firmware/tmp/pwm.c   octet=value & 3;        // extract bit 0
                             and 1
000082 0B0F           00713         ANDLW   0x0f
000084 B4D8           00714         BTFSC   STATUS, 2
000086 EC?? F0??      00715         CALL    _init_PWM12
00008A 0E03           00716         MOVLW   0x03
00008C 14??           00717         ANDWF   r0x02, W
00008E 6E??           00718         MOVWF   r0x00
000090 6A??           00719         CLRF    r0x01
000092 50??           00720         MOVF    r0x00, W
000094 6E??           00721         MOVWF   r0x04
                      00722 ;       .line   209; /home/valentin/.icaro/firmware/tmp/pwm.c   octet<<=4;                      // rotat
                            e left 4 bits
000096 38??           00723         SWAPF   r0x04, W
000098 0BF0           00724         ANDLW   0xf0
00009A 6E??           00725         MOVWF   r0x04
                      00726 ;       .line   210; /home/valentin/.icaro/firmware/tmp/pwm.c   CCP1CON&=0x0F;          // reset bit 4:5
00009C 0E0F           00727         MOVLW   0x0f
00009E 16??           00728         ANDWF   _CCP1CON, F
                      00729 ;       .line   211; /home/valentin/.icaro/firmware/tmp/pwm.c   CCP1CON|=octet;         // put in CCP2CO
                            N 4:5
0000A0 50??           00730         MOVF    r0x04, W
0000A2 12??           00731         IORWF   _CCP1CON, F
gpasm-1.2.0 #980 (Aug 15 2013) /home/valentin   4-23-2015  13:22:04         PAGE 15


LOC  OBJECT CODE     LINE SOURCE TEXT
  VALUE

                      00732 ;       .line   212; /home/valentin/.icaro/firmware/tmp/pwm.c   value>>=2;                      // 8 MSB
                             bits of value
0000A4 34??           00733         RLCF    r0x03, W
0000A6 32??           00734         RRCF    r0x03, F
0000A8 32??           00735         RRCF    r0x02, F
0000AA 34??           00736         RLCF    r0x03, W
0000AC 32??           00737         RRCF    r0x03, F
0000AE 32??           00738         RRCF    r0x02, F
                      00739 ;       .line   213; /home/valentin/.icaro/firmware/tmp/pwm.c   octet=value;            // in octet
0000B0 50??           00740         MOVF    r0x02, W
0000B2 6E??           00741         MOVWF   _CCPR1L
0000B4                00742 _00708_DS_:
                      00743 ;       .line   214; /home/valentin/.icaro/firmware/tmp/pwm.c   CCPR1L=octet;           // put in CCPR1L
                                                    
0000B4 CFE4 F000      00744         MOVFF   PREINC1, r0x05
0000B8 CFE4 F000      00745         MOVFF   PREINC1, r0x04
0000BC CFE4 F000      00746         MOVFF   PREINC1, r0x03
0000C0 CFE4 F000      00747         MOVFF   PREINC1, r0x02
0000C4 CFE4 F000      00748         MOVFF   PREINC1, r0x01
0000C8 CFE4 F000      00749         MOVFF   PREINC1, r0x00
0000CC CFE4 FFD9      00750         MOVFF   PREINC1, FSR2L
0000D0 0012           00751         RETURN  
                      00752 
                      00753 ; ; Starting pCode block
                      00754 S_main__init_PWM12      code
000000                00755 _init_PWM12:
                      00756 ;       .line   181; /home/valentin/.icaro/firmware/tmp/pwm.c   TRISCbits.TRISC2=0;             // C2 is
                             an output
000000 94??           00757         BCF     _TRISCbits, 2
                      00758 ;       .line   182; /home/valentin/.icaro/firmware/tmp/pwm.c   PR2=0xFF;                               
                            // init timer 2 period
000002 68??           00759         SETF    _PR2
                      00760 ;       .line   183; /home/valentin/.icaro/firmware/tmp/pwm.c   T2CON=0x05;                             
                            // prescaler and timer 2 on
000004 0E05           00761         MOVLW   0x05
000006 6E??           00762         MOVWF   _T2CON
                      00763 ;       .line   184; /home/valentin/.icaro/firmware/tmp/pwm.c   CCPR1L=0;                               
                            // 8 bits MSB output = 0
000008 6A??           00764         CLRF    _CCPR1L
                      00765 ;       .line   185; /home/valentin/.icaro/firmware/tmp/pwm.c   CCP1CON=0x0F;                   // confi
                            gure for PWM 2 bits LSB = 0
00000A 0E0F           00766         MOVLW   0x0f
00000C 6E??           00767         MOVWF   _CCP1CON
00000E 0012           00768         RETURN  
                      00769 
                      00770 ; ; Starting pCode block
                      00771 S_main__init_PWM11      code
000000                00772 _init_PWM11:
                      00773 ;       .line   172; /home/valentin/.icaro/firmware/tmp/pwm.c   TRISCbits.TRISC1=0;             // C1 is
                             an output
000000 92??           00774         BCF     _TRISCbits, 1
                      00775 ;       .line   173; /home/valentin/.icaro/firmware/tmp/pwm.c   PR2=0xFF;                               
                            // init timer 2 period
gpasm-1.2.0 #980 (Aug 15 2013) /home/valentin   4-23-2015  13:22:04         PAGE 16


LOC  OBJECT CODE     LINE SOURCE TEXT
  VALUE

000002 68??           00776         SETF    _PR2
                      00777 ;       .line   174; /home/valentin/.icaro/firmware/tmp/pwm.c   T2CON=0x05;                             
                            // prescaler and timer 2 on
000004 0E05           00778         MOVLW   0x05
000006 6E??           00779         MOVWF   _T2CON
                      00780 ;       .line   175; /home/valentin/.icaro/firmware/tmp/pwm.c   CCPR2L=0;                               
                            // 8 bits MSB output = 0
000008 6A??           00781         CLRF    _CCPR2L
                      00782 ;       .line   176; /home/valentin/.icaro/firmware/tmp/pwm.c   CCP2CON=0x0F;                   // confi
                            gure for PWM 2 bits LSB = 0     
00000A 0E0F           00783         MOVLW   0x0f
00000C 6E??           00784         MOVWF   _CCP2CON
00000E 0012           00785         RETURN  
                      00786 
                      00787 ; ; Starting pCode block
                      00788 S_main__PWM_set_percent_dutycycle       code
000000                00789 _PWM_set_percent_dutycycle:
                      00790 ;       .line   151; /home/valentin/.icaro/firmware/tmp/pwm.c   void PWM_set_percent_dutycycle(u8 pin, u
                            8 percent)
000000 CFD9 FFE5      00791         MOVFF   FSR2L, POSTDEC1
000004 CFE1 FFD9      00792         MOVFF   FSR1L, FSR2L
000008 C??? F???      00793         MOVFF   r0x00, POSTDEC1
00000C C??? F???      00794         MOVFF   r0x01, POSTDEC1
000010 C??? F???      00795         MOVFF   r0x02, POSTDEC1
000014 C??? F???      00796         MOVFF   r0x03, POSTDEC1
000018 C??? F???      00797         MOVFF   r0x04, POSTDEC1
00001C C??? F???      00798         MOVFF   r0x05, POSTDEC1
000020 0E02           00799         MOVLW   0x02
000022 CFDB F000      00800         MOVFF   PLUSW2, r0x00
000026 0E03           00801         MOVLW   0x03
000028 CFDB F000      00802         MOVFF   PLUSW2, r0x01
                      00803 ;       .line   154; /home/valentin/.icaro/firmware/tmp/pwm.c   if (percent == 0)
00002C 50??           00804         MOVF    r0x01, W
00002E E1??           00805         BNZ     _00675_DS_
                      00806 ;       .line   156; /home/valentin/.icaro/firmware/tmp/pwm.c   duty = 0;
000030 6A??           00807         CLRF    r0x02
000032 6A??           00808         CLRF    r0x03
000034 D???           00809         BRA     _00676_DS_
000036                00810 _00675_DS_:
                      00811 ;       .line   158; /home/valentin/.icaro/firmware/tmp/pwm.c   else if (percent >= 100)
000036 0E64           00812         MOVLW   0x64
000038 5C??           00813         SUBWF   r0x01, W
00003A E3??           00814         BNC     _00672_DS_
00003C ????           00815         BANKSEL __pr2_plus1
                      00816 ;       .line   160; /home/valentin/.icaro/firmware/tmp/pwm.c   duty = _pr2_plus1 - 1;
00003E 51??           00817         MOVF    __pr2_plus1, W, B
000040 0FFF           00818         ADDLW   0xff
000042 6E??           00819         MOVWF   r0x02
000044 0EFF           00820         MOVLW   0xff
                      00821 ; removed redundant BANKSEL
000046 21??           00822         ADDWFC  (__pr2_plus1 + 1), W, B
000048 6E??           00823         MOVWF   r0x03
00004A D???           00824         BRA     _00676_DS_
gpasm-1.2.0 #980 (Aug 15 2013) /home/valentin   4-23-2015  13:22:04         PAGE 17


LOC  OBJECT CODE     LINE SOURCE TEXT
  VALUE

00004C                00825 _00672_DS_:
                      00826 ;       .line   164; /home/valentin/.icaro/firmware/tmp/pwm.c   duty = percent * (_pr2_plus1 / 4) / 25; 
                            // (factor PR2/100)
00004C 90D8           00827         BCF     STATUS, 0
00004E ????           00828         BANKSEL (__pr2_plus1 + 1)
000050 31??           00829         RRCF    (__pr2_plus1 + 1), W, B
000052 6E??           00830         MOVWF   r0x05
                      00831 ; removed redundant BANKSEL
000054 31??           00832         RRCF    __pr2_plus1, W, B
000056 6E??           00833         MOVWF   r0x04
000058 90D8           00834         BCF     STATUS, 0
00005A 32??           00835         RRCF    r0x05, F
00005C 32??           00836         RRCF    r0x04, F
00005E 50??           00837         MOVF    r0x05, W
000060 6EE5           00838         MOVWF   POSTDEC1
000062 50??           00839         MOVF    r0x04, W
000064 6EE5           00840         MOVWF   POSTDEC1
000066 6AE5           00841         CLRF    POSTDEC1
000068 50??           00842         MOVF    r0x01, W
00006A 6EE5           00843         MOVWF   POSTDEC1
00006C EC?? F0??      00844         CALL    __mulint
000070 6E??           00845         MOVWF   r0x01
000072 CFF3 F000      00846         MOVFF   PRODL, r0x04
000076 0E04           00847         MOVLW   0x04
000078 26E1           00848         ADDWF   FSR1L, F
00007A 6AE5           00849         CLRF    POSTDEC1
00007C 0E19           00850         MOVLW   0x19
00007E 6EE5           00851         MOVWF   POSTDEC1
000080 50??           00852         MOVF    r0x04, W
000082 6EE5           00853         MOVWF   POSTDEC1
000084 50??           00854         MOVF    r0x01, W
000086 6EE5           00855         MOVWF   POSTDEC1
000088 EC?? F0??      00856         CALL    __divuint
00008C 6E??           00857         MOVWF   r0x02
00008E CFF3 F000      00858         MOVFF   PRODL, r0x03
000092 0E04           00859         MOVLW   0x04
000094 26E1           00860         ADDWF   FSR1L, F
000096                00861 _00676_DS_:
                      00862 ;       .line   166; /home/valentin/.icaro/firmware/tmp/pwm.c   PWM_set_dutycycle(pin, duty << 2);
000096 50??           00863         MOVF    r0x02, W
000098 6E??           00864         MOVWF   r0x01
00009A 26??           00865         ADDWF   r0x01, F
00009C 34??           00866         RLCF    r0x03, W
00009E 6E??           00867         MOVWF   r0x04
0000A0 90D8           00868         BCF     STATUS, 0
0000A2 36??           00869         RLCF    r0x01, F
0000A4 36??           00870         RLCF    r0x04, F
0000A6 50??           00871         MOVF    r0x04, W
0000A8 6EE5           00872         MOVWF   POSTDEC1
0000AA 50??           00873         MOVF    r0x01, W
0000AC 6EE5           00874         MOVWF   POSTDEC1
0000AE 50??           00875         MOVF    r0x00, W
0000B0 6EE5           00876         MOVWF   POSTDEC1
gpasm-1.2.0 #980 (Aug 15 2013) /home/valentin   4-23-2015  13:22:04         PAGE 18


LOC  OBJECT CODE     LINE SOURCE TEXT
  VALUE

0000B2 EC?? F0??      00877         CALL    _PWM_set_dutycycle
0000B6 0E03           00878         MOVLW   0x03
0000B8 26E1           00879         ADDWF   FSR1L, F
0000BA CFE4 F000      00880         MOVFF   PREINC1, r0x05
0000BE CFE4 F000      00881         MOVFF   PREINC1, r0x04
0000C2 CFE4 F000      00882         MOVFF   PREINC1, r0x03
0000C6 CFE4 F000      00883         MOVFF   PREINC1, r0x02
0000CA CFE4 F000      00884         MOVFF   PREINC1, r0x01
0000CE CFE4 F000      00885         MOVFF   PREINC1, r0x00
0000D2 CFE4 FFD9      00886         MOVFF   PREINC1, FSR2L
0000D6 0012           00887         RETURN  
                      00888 
                      00889 ; ; Starting pCode block
                      00890 S_main__PWM_set_dutycycle       code
000000                00891 _PWM_set_dutycycle:
                      00892 ;       .line   98; /home/valentin/.icaro/firmware/tmp/pwm.c    void PWM_set_dutycycle(u8 pin, u16 duty)
000000 CFD9 FFE5      00893         MOVFF   FSR2L, POSTDEC1
000004 CFE1 FFD9      00894         MOVFF   FSR1L, FSR2L
000008 C??? F???      00895         MOVFF   r0x00, POSTDEC1
00000C C??? F???      00896         MOVFF   r0x01, POSTDEC1
000010 C??? F???      00897         MOVFF   r0x02, POSTDEC1
000014 C??? F???      00898         MOVFF   r0x03, POSTDEC1
000018 C??? F???      00899         MOVFF   r0x04, POSTDEC1
00001C C??? F???      00900         MOVFF   r0x05, POSTDEC1
000020 C??? F???      00901         MOVFF   r0x06, POSTDEC1
000024 C??? F???      00902         MOVFF   r0x07, POSTDEC1
000028 0E02           00903         MOVLW   0x02
00002A CFDB F000      00904         MOVFF   PLUSW2, r0x00
00002E 0E03           00905         MOVLW   0x03
000030 CFDB F000      00906         MOVFF   PLUSW2, r0x01
000034 0E04           00907         MOVLW   0x04
000036 CFDB F000      00908         MOVFF   PLUSW2, r0x02
                      00909 ;       .line   102; /home/valentin/.icaro/firmware/tmp/pwm.c   if (duty > 1023) duty = 1023;           
                            // upper limit (10-bit)
00003A 50??           00910         MOVF    r0x02, W
00003C 0BFC           00911         ANDLW   0xfc
00003E E0??           00912         BZ      _00635_DS_
000040 68??           00913         SETF    r0x01
000042 0E03           00914         MOVLW   0x03
000044 6E??           00915         MOVWF   r0x02
000046                00916 _00635_DS_:
                      00917 ;       .line   105; /home/valentin/.icaro/firmware/tmp/pwm.c   pinmode(pin, INPUT);                    
                                    // PWM pin as INPUT
000046 C??? F???      00918         MOVFF   r0x00, r0x03
00004A 6A??           00919         CLRF    r0x04
00004C 6AE5           00920         CLRF    POSTDEC1
00004E 0E01           00921         MOVLW   0x01
000050 6EE5           00922         MOVWF   POSTDEC1
000052 6AE5           00923         CLRF    POSTDEC1
000054 50??           00924         MOVF    r0x03, W
000056 6EE5           00925         MOVWF   POSTDEC1
000058 EC?? F0??      00926         CALL    _pinmode
00005C 0E04           00927         MOVLW   0x04
gpasm-1.2.0 #980 (Aug 15 2013) /home/valentin   4-23-2015  13:22:04         PAGE 19


LOC  OBJECT CODE     LINE SOURCE TEXT
  VALUE

00005E 26E1           00928         ADDWF   FSR1L, F
000060 ????           00929         BANKSEL __pr2_plus1
                      00930 ;       .line   107; /home/valentin/.icaro/firmware/tmp/pwm.c   PR2 = _pr2_plus1 - 1;                   
                                    // set PR2
000062 51??           00931         MOVF    __pr2_plus1, W, B
000064 6E??           00932         MOVWF   r0x05
000066 04??           00933         DECF    r0x05, W
000068 6E??           00934         MOVWF   _PR2
                      00935 ;       .line   109; /home/valentin/.icaro/firmware/tmp/pwm.c   if (pin == 11)
00006A 50??           00936         MOVF    r0x00, W
00006C 0A0B           00937         XORLW   0x0b
00006E E1??           00938         BNZ     _00637_DS_
                      00939 ;       .line   112; /home/valentin/.icaro/firmware/tmp/pwm.c   CCP2CON = Bin(00001111);                
                            // reset also 2 LSbits of duty cycle
000070 0E0F           00940         MOVLW   0x0f
000072 6E??           00941         MOVWF   _CCP2CON
                      00942 ;       .line   114; /home/valentin/.icaro/firmware/tmp/pwm.c   temp = duty & Bin(00000011);    // extra
                            ct 2 LSbits of duty
000074 0E03           00943         MOVLW   0x03
000076 14??           00944         ANDWF   r0x01, W
000078 6E??           00945         MOVWF   r0x05
00007A 6A??           00946         CLRF    r0x06
                      00947 ;       .line   115; /home/valentin/.icaro/firmware/tmp/pwm.c   temp <<= 4;                             
                                            // shift left 4 bits
00007C 38??           00948         SWAPF   r0x05, W
00007E 0BF0           00949         ANDLW   0xf0
                      00950 ; #     MOVWF   r0x05
                      00951 ; #     MOVF    r0x05, W
                      00952 ;       .line   116; /home/valentin/.icaro/firmware/tmp/pwm.c   CCP2CON |= temp;                        
                                    // put in CCP2CON 4:5  (DCBx1 and DCBx0)
000080 12??           00953         IORWF   _CCP2CON, F
                      00954 ;       .line   117; /home/valentin/.icaro/firmware/tmp/pwm.c   CCPR2L = duty >> 2;                     
                                    // 8 MSbits of duty
000082 90D8           00955         BCF     STATUS, 0
000084 30??           00956         RRCF    r0x02, W
000086 6E??           00957         MOVWF   r0x07
000088 30??           00958         RRCF    r0x01, W
00008A 6E??           00959         MOVWF   r0x06
00008C 90D8           00960         BCF     STATUS, 0
00008E 32??           00961         RRCF    r0x07, F
000090 32??           00962         RRCF    r0x06, F
000092 50??           00963         MOVF    r0x06, W
000094 6E??           00964         MOVWF   _CCPR2L
000096                00965 _00637_DS_:
                      00966 ;       .line   120; /home/valentin/.icaro/firmware/tmp/pwm.c   if (pin == 12)
000096 50??           00967         MOVF    r0x00, W
000098 0A0C           00968         XORLW   0x0c
00009A E1??           00969         BNZ     _00639_DS_
                      00970 ;       .line   123; /home/valentin/.icaro/firmware/tmp/pwm.c   CCP1CON = Bin(00001111);
00009C 0E0F           00971         MOVLW   0x0f
00009E 6E??           00972         MOVWF   _CCP1CON
                      00973 ;       .line   125; /home/valentin/.icaro/firmware/tmp/pwm.c   temp = duty & Bin(00000011);    // extra
                            ct 2 LSbits of the duty
gpasm-1.2.0 #980 (Aug 15 2013) /home/valentin   4-23-2015  13:22:04         PAGE 20


LOC  OBJECT CODE     LINE SOURCE TEXT
  VALUE

0000A0 0E03           00974         MOVLW   0x03
0000A2 14??           00975         ANDWF   r0x01, W
0000A4 6E??           00976         MOVWF   r0x00
0000A6 6A??           00977         CLRF    r0x06
0000A8 50??           00978         MOVF    r0x00, W
0000AA 6E??           00979         MOVWF   r0x05
                      00980 ;       .line   126; /home/valentin/.icaro/firmware/tmp/pwm.c   temp <<= 4;                             
                                            // shift left 4 bits
0000AC 38??           00981         SWAPF   r0x05, W
0000AE 0BF0           00982         ANDLW   0xf0
                      00983 ; #     MOVWF   r0x05
                      00984 ; #     MOVF    r0x05, W
                      00985 ;       .line   127; /home/valentin/.icaro/firmware/tmp/pwm.c   CCP1CON |= temp;                        
                                    // put in CCP2CON 4:5
0000B0 12??           00986         IORWF   _CCP1CON, F
                      00987 ;       .line   128; /home/valentin/.icaro/firmware/tmp/pwm.c   CCPR1L = duty >> 2;                     
                                    // 8 MSbits of the duty
0000B2 90D8           00988         BCF     STATUS, 0
0000B4 32??           00989         RRCF    r0x02, F
0000B6 32??           00990         RRCF    r0x01, F
0000B8 90D8           00991         BCF     STATUS, 0
0000BA 32??           00992         RRCF    r0x02, F
0000BC 32??           00993         RRCF    r0x01, F
0000BE 50??           00994         MOVF    r0x01, W
0000C0 6E??           00995         MOVWF   _CCPR1L
0000C2                00996 _00639_DS_:
                      00997 ;       .line   132; /home/valentin/.icaro/firmware/tmp/pwm.c   PIR1bits.TMR2IF = 0;                    
                                    // reset this flag for the next test
0000C2 92??           00998         BCF     _PIR1bits, 1
                      00999 ;       .line   133; /home/valentin/.icaro/firmware/tmp/pwm.c   T2CON = _t2con;                         
                                            // Timer2 prescaler
0000C4 C??? F???      01000         MOVFF   __t2con, _T2CON
                      01001 ;       .line   134; /home/valentin/.icaro/firmware/tmp/pwm.c   T2CONbits.TMR2ON = ON;                  
                                    // enable Timer2
0000C8 84??           01002         BSF     _T2CONbits, 2
0000CA                01003 _00640_DS_:
                      01004 ;       .line   136; /home/valentin/.icaro/firmware/tmp/pwm.c   while (PIR1bits.TMR2IF == 0);           
                            // Wait until TMR2 overflows
0000CA A2??           01005         BTFSS   _PIR1bits, 1
0000CC D???           01006         BRA     _00640_DS_
                      01007 ;       .line   137; /home/valentin/.icaro/firmware/tmp/pwm.c   pinmode(pin, OUTPUT);                   
                                    // PWM pin as OUTPUT
0000CE 6AE5           01008         CLRF    POSTDEC1
0000D0 6AE5           01009         CLRF    POSTDEC1
0000D2 50??           01010         MOVF    r0x04, W
0000D4 6EE5           01011         MOVWF   POSTDEC1
0000D6 50??           01012         MOVF    r0x03, W
0000D8 6EE5           01013         MOVWF   POSTDEC1
0000DA EC?? F0??      01014         CALL    _pinmode
0000DE 0E04           01015         MOVLW   0x04
0000E0 26E1           01016         ADDWF   FSR1L, F
0000E2 CFE4 F000      01017         MOVFF   PREINC1, r0x07
0000E6 CFE4 F000      01018         MOVFF   PREINC1, r0x06
gpasm-1.2.0 #980 (Aug 15 2013) /home/valentin   4-23-2015  13:22:04         PAGE 21


LOC  OBJECT CODE     LINE SOURCE TEXT
  VALUE

0000EA CFE4 F000      01019         MOVFF   PREINC1, r0x05
0000EE CFE4 F000      01020         MOVFF   PREINC1, r0x04
0000F2 CFE4 F000      01021         MOVFF   PREINC1, r0x03
0000F6 CFE4 F000      01022         MOVFF   PREINC1, r0x02
0000FA CFE4 F000      01023         MOVFF   PREINC1, r0x01
0000FE CFE4 F000      01024         MOVFF   PREINC1, r0x00
000102 CFE4 FFD9      01025         MOVFF   PREINC1, FSR2L
000106 0012           01026         RETURN  
                      01027 
                      01028 ; ; Starting pCode block
                      01029 S_main__PWM_set_frequency       code
000000                01030 _PWM_set_frequency:
                      01031 ;       .line   55; /home/valentin/.icaro/firmware/tmp/pwm.c    void PWM_set_frequency(u32 freq)
000000 CFD9 FFE5      01032         MOVFF   FSR2L, POSTDEC1
000004 CFE1 FFD9      01033         MOVFF   FSR1L, FSR2L
000008 C??? F???      01034         MOVFF   r0x00, POSTDEC1
00000C C??? F???      01035         MOVFF   r0x01, POSTDEC1
000010 C??? F???      01036         MOVFF   r0x02, POSTDEC1
000014 C??? F???      01037         MOVFF   r0x03, POSTDEC1
000018 0E02           01038         MOVLW   0x02
00001A CFDB F000      01039         MOVFF   PLUSW2, r0x00
00001E 0E03           01040         MOVLW   0x03
000020 CFDB F000      01041         MOVFF   PLUSW2, r0x01
000024 0E04           01042         MOVLW   0x04
000026 CFDB F000      01043         MOVFF   PLUSW2, r0x02
00002A 0E05           01044         MOVLW   0x05
00002C CFDB F000      01045         MOVFF   PLUSW2, r0x03
                      01046 ;       .line   58; /home/valentin/.icaro/firmware/tmp/pwm.c    _pr2_plus1 = MIPS / freq;               
                                            // FOSC / (4 * PWM Frequency)
000030 50??           01047         MOVF    r0x03, W
000032 6EE5           01048         MOVWF   POSTDEC1
000034 50??           01049         MOVF    r0x02, W
000036 6EE5           01050         MOVWF   POSTDEC1
000038 50??           01051         MOVF    r0x01, W
00003A 6EE5           01052         MOVWF   POSTDEC1
00003C 50??           01053         MOVF    r0x00, W
00003E 6EE5           01054         MOVWF   POSTDEC1
000040 6AE5           01055         CLRF    POSTDEC1
000042 0EB7           01056         MOVLW   0xb7
000044 6EE5           01057         MOVWF   POSTDEC1
000046 0E1B           01058         MOVLW   0x1b
000048 6EE5           01059         MOVWF   POSTDEC1
00004A 0E00           01060         MOVLW   0x00
00004C 6AE5           01061         CLRF    POSTDEC1
00004E EC?? F0??      01062         CALL    __divulong
000052 6E??           01063         MOVWF   r0x00
000054 CFF3 F000      01064         MOVFF   PRODL, r0x01
000058 0E08           01065         MOVLW   0x08
00005A 26E1           01066         ADDWF   FSR1L, F
00005C 50??           01067         MOVF    r0x00, W
00005E ????           01068         BANKSEL __pr2_plus1
000060 6F??           01069         MOVWF   __pr2_plus1, B
000062 50??           01070         MOVF    r0x01, W
gpasm-1.2.0 #980 (Aug 15 2013) /home/valentin   4-23-2015  13:22:04         PAGE 22


LOC  OBJECT CODE     LINE SOURCE TEXT
  VALUE

                      01071 ; removed redundant BANKSEL
000064 6F??           01072         MOVWF   (__pr2_plus1 + 1), B
                      01073 ;       .line   64; /home/valentin/.icaro/firmware/tmp/pwm.c    if (_pr2_plus1 <= 4096)                 
                                            // check if it's not too high
000066 0E10           01074         MOVLW   0x10
                      01075 ; removed redundant BANKSEL
000068 5D??           01076         SUBWF   (__pr2_plus1 + 1), W, B
00006A E1??           01077         BNZ     _00627_DS_
00006C 0E01           01078         MOVLW   0x01
                      01079 ; removed redundant BANKSEL
00006E 5D??           01080         SUBWF   __pr2_plus1, W, B
000070                01081 _00627_DS_:
000070 E2??           01082         BC      _00616_DS_
                      01083 ;       .line   66; /home/valentin/.icaro/firmware/tmp/pwm.c    if (_pr2_plus1 <= 256)                  
                                    // no needs of any prescaler
000072 0E01           01084         MOVLW   0x01
000074 ????           01085         BANKSEL (__pr2_plus1 + 1)
000076 5D??           01086         SUBWF   (__pr2_plus1 + 1), W, B
000078 E1??           01087         BNZ     _00628_DS_
00007A 0E01           01088         MOVLW   0x01
                      01089 ; removed redundant BANKSEL
00007C 5D??           01090         SUBWF   __pr2_plus1, W, B
00007E                01091 _00628_DS_:
00007E E2??           01092         BC      _00612_DS_
000080 ????           01093         BANKSEL __t2con
                      01094 ;       .line   68; /home/valentin/.icaro/firmware/tmp/pwm.c    _t2con = Bin(00);                       
                                    // prescaler is 1
000082 6B??           01095         CLRF    __t2con, B
000084 D???           01096         BRA     _00616_DS_
000086                01097 _00612_DS_:
                      01098 ;       .line   70; /home/valentin/.icaro/firmware/tmp/pwm.c    else if (_pr2_plus1 <= 1024)            
                            // needs prescaler 1:4
000086 0E04           01099         MOVLW   0x04
000088 ????           01100         BANKSEL (__pr2_plus1 + 1)
00008A 5D??           01101         SUBWF   (__pr2_plus1 + 1), W, B
00008C E1??           01102         BNZ     _00629_DS_
00008E 0E01           01103         MOVLW   0x01
                      01104 ; removed redundant BANKSEL
000090 5D??           01105         SUBWF   __pr2_plus1, W, B
000092                01106 _00629_DS_:
000092 E2??           01107         BC      _00609_DS_
                      01108 ;       .line   72; /home/valentin/.icaro/firmware/tmp/pwm.c    _pr2_plus1 = _pr2_plus1 >> 2;   // divid
                            ed by 4
000094 90D8           01109         BCF     STATUS, 0
000096 ????           01110         BANKSEL (__pr2_plus1 + 1)
000098 33??           01111         RRCF    (__pr2_plus1 + 1), F, B
                      01112 ; removed redundant BANKSEL
00009A 33??           01113         RRCF    __pr2_plus1, F, B
00009C 90D8           01114         BCF     STATUS, 0
                      01115 ; removed redundant BANKSEL
00009E 33??           01116         RRCF    (__pr2_plus1 + 1), F, B
                      01117 ; removed redundant BANKSEL
0000A0 33??           01118         RRCF    __pr2_plus1, F, B
gpasm-1.2.0 #980 (Aug 15 2013) /home/valentin   4-23-2015  13:22:04         PAGE 23


LOC  OBJECT CODE     LINE SOURCE TEXT
  VALUE

                      01119 ;       .line   73; /home/valentin/.icaro/firmware/tmp/pwm.c    _t2con = Bin(01);                       
                                    // prescaler is 4
0000A2 0E01           01120         MOVLW   0x01
0000A4 ????           01121         BANKSEL __t2con
0000A6 6F??           01122         MOVWF   __t2con, B
0000A8 D???           01123         BRA     _00616_DS_
0000AA                01124 _00609_DS_:
                      01125 ;       .line   77; /home/valentin/.icaro/firmware/tmp/pwm.c    _pr2_plus1 = _pr2_plus1 >> 4;   // divid
                            ed by 16
0000AA 0EF0           01126         MOVLW   0xf0
0000AC ????           01127         BANKSEL __pr2_plus1
0000AE 17??           01128         ANDWF   __pr2_plus1, F, B
0000B0 3B??           01129         SWAPF   __pr2_plus1, F, B
                      01130 ; removed redundant BANKSEL
0000B2 3B??           01131         SWAPF   (__pr2_plus1 + 1), F, B
0000B4 15??           01132         ANDWF   (__pr2_plus1 + 1), W, B
0000B6 1B??           01133         XORWF   (__pr2_plus1 + 1), F, B
                      01134 ; removed redundant BANKSEL
0000B8 27??           01135         ADDWF   __pr2_plus1, F, B
                      01136 ;       .line   78; /home/valentin/.icaro/firmware/tmp/pwm.c    _t2con = Bin(10);                       
                                    // prescaler is 16
0000BA 0E02           01137         MOVLW   0x02
0000BC ????           01138         BANKSEL __t2con
0000BE 6F??           01139         MOVWF   __t2con, B
0000C0                01140 _00616_DS_:
0000C0 CFE4 F000      01141         MOVFF   PREINC1, r0x03
0000C4 CFE4 F000      01142         MOVFF   PREINC1, r0x02
0000C8 CFE4 F000      01143         MOVFF   PREINC1, r0x01
0000CC CFE4 F000      01144         MOVFF   PREINC1, r0x00
0000D0 CFE4 FFD9      01145         MOVFF   PREINC1, FSR2L
0000D4 0012           01146         RETURN  
                      01147 
                      01148 ; ; Starting pCode block
                      01149 S_main__Delayus code
000000                01150 _Delayus:
                      01151 ;       .line   16; /home/valentin/.icaro/firmware/tmp/arduinodelay.c   void Delayus(int microsecondes)
000000 CFD9 FFE5      01152         MOVFF   FSR2L, POSTDEC1
000004 CFE1 FFD9      01153         MOVFF   FSR1L, FSR2L
000008 C??? F???      01154         MOVFF   r0x00, POSTDEC1
00000C C??? F???      01155         MOVFF   r0x01, POSTDEC1
000010 C??? F???      01156         MOVFF   r0x02, POSTDEC1
000014 C??? F???      01157         MOVFF   r0x03, POSTDEC1
000018 C??? F???      01158         MOVFF   r0x04, POSTDEC1
00001C 0E02           01159         MOVLW   0x02
00001E CFDB F000      01160         MOVFF   PLUSW2, r0x00
000022 0E03           01161         MOVLW   0x03
000024 CFDB F000      01162         MOVFF   PLUSW2, r0x01
                      01163 ;       .line   20; /home/valentin/.icaro/firmware/tmp/arduinodelay.c   for (i=0;i<microsecondes;i++);
000028 6A??           01164         CLRF    r0x02
00002A 6A??           01165         CLRF    r0x03
00002C                01166 _00592_DS_:
00002C 50??           01167         MOVF    r0x00, W
00002E 6E??           01168         MOVWF   r0x04
gpasm-1.2.0 #980 (Aug 15 2013) /home/valentin   4-23-2015  13:22:04         PAGE 24


LOC  OBJECT CODE     LINE SOURCE TEXT
  VALUE

                      01169 ; #     MOVF    r0x01, W
                      01170 ; #     MOVWF   r0x05
                      01171 ; #     MOVF    r0x05, W
000030 50??           01172         MOVF    r0x01, W
000032 5C??           01173         SUBWF   r0x03, W
000034 E1??           01174         BNZ     _00603_DS_
000036 50??           01175         MOVF    r0x04, W
000038 5C??           01176         SUBWF   r0x02, W
00003A                01177 _00603_DS_:
00003A E2??           01178         BC      _00594_DS_
00003C 4A??           01179         INFSNZ  r0x02, F
00003E 2A??           01180         INCF    r0x03, F
000040 D???           01181         BRA     _00592_DS_
000042                01182 _00594_DS_:
000042 CFE4 F000      01183         MOVFF   PREINC1, r0x04
000046 CFE4 F000      01184         MOVFF   PREINC1, r0x03
00004A CFE4 F000      01185         MOVFF   PREINC1, r0x02
00004E CFE4 F000      01186         MOVFF   PREINC1, r0x01
000052 CFE4 F000      01187         MOVFF   PREINC1, r0x00
000056 CFE4 FFD9      01188         MOVFF   PREINC1, FSR2L
00005A 0012           01189         RETURN  
                      01190 
                      01191 ; ; Starting pCode block
                      01192 S_main__Delayms code
000000                01193 _Delayms:
                      01194 ;       .line   9; /home/valentin/.icaro/firmware/tmp/arduinodelay.c    void Delayms(unsigned long milli
                            seconde)
000000 CFD9 FFE5      01195         MOVFF   FSR2L, POSTDEC1
000004 CFE1 FFD9      01196         MOVFF   FSR1L, FSR2L
000008 C??? F???      01197         MOVFF   r0x00, POSTDEC1
00000C C??? F???      01198         MOVFF   r0x01, POSTDEC1
000010 C??? F???      01199         MOVFF   r0x02, POSTDEC1
000014 C??? F???      01200         MOVFF   r0x03, POSTDEC1
000018 C??? F???      01201         MOVFF   r0x04, POSTDEC1
00001C C??? F???      01202         MOVFF   r0x05, POSTDEC1
000020 C??? F???      01203         MOVFF   r0x06, POSTDEC1
000024 C??? F???      01204         MOVFF   r0x07, POSTDEC1
000028 0E02           01205         MOVLW   0x02
00002A CFDB F000      01206         MOVFF   PLUSW2, r0x00
00002E 0E03           01207         MOVLW   0x03
000030 CFDB F000      01208         MOVFF   PLUSW2, r0x01
000034 0E04           01209         MOVLW   0x04
000036 CFDB F000      01210         MOVFF   PLUSW2, r0x02
00003A 0E05           01211         MOVLW   0x05
00003C CFDB F000      01212         MOVFF   PLUSW2, r0x03
                      01213 ;       .line   13; /home/valentin/.icaro/firmware/tmp/arduinodelay.c   for (i=0;i<milliseconde;i++) del
                            ay10ktcy(1);
000040 6A??           01214         CLRF    r0x04
000042 6A??           01215         CLRF    r0x05
000044 6A??           01216         CLRF    r0x06
000046 6A??           01217         CLRF    r0x07
000048                01218 _00573_DS_:
000048 50??           01219         MOVF    r0x03, W
gpasm-1.2.0 #980 (Aug 15 2013) /home/valentin   4-23-2015  13:22:04         PAGE 25


LOC  OBJECT CODE     LINE SOURCE TEXT
  VALUE

00004A 5C??           01220         SUBWF   r0x07, W
00004C E1??           01221         BNZ     _00584_DS_
00004E 50??           01222         MOVF    r0x02, W
000050 5C??           01223         SUBWF   r0x06, W
000052 E1??           01224         BNZ     _00584_DS_
000054 50??           01225         MOVF    r0x01, W
000056 5C??           01226         SUBWF   r0x05, W
000058 E1??           01227         BNZ     _00584_DS_
00005A 50??           01228         MOVF    r0x00, W
00005C 5C??           01229         SUBWF   r0x04, W
00005E                01230 _00584_DS_:
00005E E2??           01231         BC      _00575_DS_
000060 0E01           01232         MOVLW   0x01
000062 EC?? F0??      01233         CALL    _delay10ktcy
000066 2A??           01234         INCF    r0x04, F
000068 E3??           01235         BNC     _00573_DS_
00006A 2A??           01236         INCF    r0x05, F
00006C E3??           01237         BNC     _00573_DS_
00006E 4A??           01238         INFSNZ  r0x06, F
000070 2A??           01239         INCF    r0x07, F
000072                01240 _00585_DS_:
000072 D???           01241         BRA     _00573_DS_
000074                01242 _00575_DS_:
000074 CFE4 F000      01243         MOVFF   PREINC1, r0x07
000078 CFE4 F000      01244         MOVFF   PREINC1, r0x06
00007C CFE4 F000      01245         MOVFF   PREINC1, r0x05
000080 CFE4 F000      01246         MOVFF   PREINC1, r0x04
000084 CFE4 F000      01247         MOVFF   PREINC1, r0x03
000088 CFE4 F000      01248         MOVFF   PREINC1, r0x02
00008C CFE4 F000      01249         MOVFF   PREINC1, r0x01
000090 CFE4 F000      01250         MOVFF   PREINC1, r0x00
000094 CFE4 FFD9      01251         MOVFF   PREINC1, FSR2L
000098 0012           01252         RETURN  
                      01253 
                      01254 ; ; Starting pCode block
                      01255 S_main__analogread      code
000000                01256 _analogread:
                      01257 ;       .line   40; /home/valentin/.icaro/firmware/tmp/analog.c unsigned int analogread(unsigned char ch
                            annel)
000000 CFD9 FFE5      01258         MOVFF   FSR2L, POSTDEC1
000004 CFE1 FFD9      01259         MOVFF   FSR1L, FSR2L
000008 C??? F???      01260         MOVFF   r0x00, POSTDEC1
00000C C??? F???      01261         MOVFF   r0x01, POSTDEC1
000010 C??? F???      01262         MOVFF   r0x02, POSTDEC1
000014 C??? F???      01263         MOVFF   r0x03, POSTDEC1
000018 0E02           01264         MOVLW   0x02
00001A CFDB F000      01265         MOVFF   PLUSW2, r0x00
                      01266 ;       .line   55; /home/valentin/.icaro/firmware/tmp/analog.c ADCON0=(channel-13)*4;
00001E 0EF3           01267         MOVLW   0xf3
000020 26??           01268         ADDWF   r0x00, F
                      01269 ; ;multiply lit val:0x04 by variable r0x00 and store in _ADCON0
000022 50??           01270         MOVF    r0x00, W
000024 0D04           01271         MULLW   0x04
gpasm-1.2.0 #980 (Aug 15 2013) /home/valentin   4-23-2015  13:22:04         PAGE 26


LOC  OBJECT CODE     LINE SOURCE TEXT
  VALUE

000026 CFF3 F000      01272         MOVFF   PRODL, _ADCON0
                      01273 ;       .line   59; /home/valentin/.icaro/firmware/tmp/analog.c ADCON0bits.ADON=1;
00002A 80??           01274         BSF     _ADCON0bits, 0
                      01275 ;       .line   60; /home/valentin/.icaro/firmware/tmp/analog.c for (result=1;result<10;result++) __asm 
                            NOP __endasm;
00002C 0E09           01276         MOVLW   0x09
00002E 6E??           01277         MOVWF   r0x00
000030 6A??           01278         CLRF    r0x01
000032                01279 _00565_DS_:
000032 0000           01280         NOP 
000034 0EFF           01281         MOVLW   0xff
000036 26??           01282         ADDWF   r0x00, F
000038 22??           01283         ADDWFC  r0x01, F
00003A 50??           01284         MOVF    r0x00, W
00003C 10??           01285         IORWF   r0x01, W
00003E E1??           01286         BNZ     _00565_DS_
                      01287 ;       .line   61; /home/valentin/.icaro/firmware/tmp/analog.c ADCON0bits.GO=1;
000040 82??           01288         BSF     _ADCON0bits, 1
000042                01289 _00560_DS_:
                      01290 ;       .line   62; /home/valentin/.icaro/firmware/tmp/analog.c while (ADCON0bits.GO);
000042 B2??           01291         BTFSC   _ADCON0bits, 1
000044 D???           01292         BRA     _00560_DS_
                      01293 ;       .line   63; /home/valentin/.icaro/firmware/tmp/analog.c result=ADRESH<<8;
000046 C??? F???      01294         MOVFF   _ADRESH, r0x00
00004A 6A??           01295         CLRF    r0x01
00004C 50??           01296         MOVF    r0x00, W
00004E 6E??           01297         MOVWF   r0x03
000050 6A??           01298         CLRF    r0x02
                      01299 ;       .line   64; /home/valentin/.icaro/firmware/tmp/analog.c result+=ADRESL;
000052 C??? F???      01300         MOVFF   _ADRESL, r0x00
000056 6A??           01301         CLRF    r0x01
000058 50??           01302         MOVF    r0x00, W
00005A 26??           01303         ADDWF   r0x02, F
00005C 50??           01304         MOVF    r0x01, W
00005E 22??           01305         ADDWFC  r0x03, F
                      01306 ;       .line   65; /home/valentin/.icaro/firmware/tmp/analog.c ADCON0bits.ADON=0;
000060 90??           01307         BCF     _ADCON0bits, 0
                      01308 ;       .line   66; /home/valentin/.icaro/firmware/tmp/analog.c return(result);
000062 C??? F???      01309         MOVFF   r0x03, PRODL
000066 50??           01310         MOVF    r0x02, W
000068 CFE4 F000      01311         MOVFF   PREINC1, r0x03
00006C CFE4 F000      01312         MOVFF   PREINC1, r0x02
000070 CFE4 F000      01313         MOVFF   PREINC1, r0x01
000074 CFE4 F000      01314         MOVFF   PREINC1, r0x00
000078 CFE4 FFD9      01315         MOVFF   PREINC1, FSR2L
00007C 0012           01316         RETURN  
                      01317 
                      01318 ; ; Starting pCode block
                      01319 S_main__analogReference code
000000                01320 _analogReference:
                      01321 ;       .line   32; /home/valentin/.icaro/firmware/tmp/analog.c void analogReference(unsigned char Type)
000000 CFD9 FFE5      01322         MOVFF   FSR2L, POSTDEC1
000004 CFE1 FFD9      01323         MOVFF   FSR1L, FSR2L
gpasm-1.2.0 #980 (Aug 15 2013) /home/valentin   4-23-2015  13:22:04         PAGE 27


LOC  OBJECT CODE     LINE SOURCE TEXT
  VALUE

000008 C??? F???      01324         MOVFF   r0x00, POSTDEC1
00000C 0E02           01325         MOVLW   0x02
00000E CFDB F000      01326         MOVFF   PLUSW2, r0x00
                      01327 ; #     MOVF    r0x00, W
                      01328 ; #     BTFSS   STATUS, 2
                      01329 ; #     GOTO    _00543_DS_
                      01330 ; #     GOTO    _00545_DS_
                      01331 ; #     MOVF    r0x00, W
                      01332 ;       .line   34; /home/valentin/.icaro/firmware/tmp/analog.c if(Type == DEFAULTAN)                   
                            //the default analog reference of 5 volts (on 5V Arduino boards) or 3.3 volts (on 3.3V Arduino boards)
000012 50??           01333         MOVF    r0x00, W
                      01334 ;       .line   35; /home/valentin/.icaro/firmware/tmp/analog.c ADCON1|=0x00;                   //Vref+ 
                            = VDD
000014 E0??           01335         BZ      _00545_DS_
                      01336 ;       .line   36; /home/valentin/.icaro/firmware/tmp/analog.c else if(Type == EXTERNAL)       //the vo
                            ltage applied to the AREF pin (0 to 5V only) is used as the reference.
000016 50??           01337         MOVF    r0x00, W
000018 0A01           01338         XORLW   0x01
00001A E1??           01339         BNZ     _00545_DS_
                      01340 ;       .line   37; /home/valentin/.icaro/firmware/tmp/analog.c ADCON1|=0x10;                   //Vref+ 
                            = External source
00001C 88??           01341         BSF     _ADCON1, 4
00001E                01342 _00545_DS_:
00001E CFE4 F000      01343         MOVFF   PREINC1, r0x00
000022 CFE4 FFD9      01344         MOVFF   PREINC1, FSR2L
000026 0012           01345         RETURN  
                      01346 
                      01347 ; ; Starting pCode block
                      01348 S_main__analog_init     code
000000                01349 _analog_init:
                      01350 ;       .line   15; /home/valentin/.icaro/firmware/tmp/analog.c TRISA=TRISA | 0x2F;
000000 0E2F           01351         MOVLW   0x2f
000002 12??           01352         IORWF   _TRISA, F
                      01353 ;       .line   16; /home/valentin/.icaro/firmware/tmp/analog.c TRISE=TRISE | 0x07;     
000004 0E07           01354         MOVLW   0x07
000006 12??           01355         IORWF   _TRISE, F
                      01356 ;       .line   17; /home/valentin/.icaro/firmware/tmp/analog.c ADCON1=0x07;
000008 6E??           01357         MOVWF   _ADCON1
                      01358 ;       .line   18; /home/valentin/.icaro/firmware/tmp/analog.c ADCON2=0xBD;
00000A 0EBD           01359         MOVLW   0xbd
00000C 6E??           01360         MOVWF   _ADCON2
00000E 0012           01361         RETURN  
                      01362 
                      01363 ; ; Starting pCode block
                      01364 S_main__servos_interrupt        code
000000                01365 _servos_interrupt:
                      01366 ;       .line   289; /home/valentin/.icaro/firmware/tmp/servos.c        if (PIR1bits.TMR1IF) {
000000 A0??           01367         BTFSS   _PIR1bits, 0
000002 D???           01368         BRA     _00530_DS_
                      01369 ;       .line   290; /home/valentin/.icaro/firmware/tmp/servos.c        PIR1bits.TMR1IF=0;
000004 90??           01370         BCF     _PIR1bits, 0
                      01371 ;       .line   291; /home/valentin/.icaro/firmware/tmp/servos.c        T1CON=0x00;
000006 6A??           01372         CLRF    _T1CON
gpasm-1.2.0 #980 (Aug 15 2013) /home/valentin   4-23-2015  13:22:04         PAGE 28


LOC  OBJECT CODE     LINE SOURCE TEXT
  VALUE

000008 ????           01373         BANKSEL _phase
                      01374 ;       .line   292; /home/valentin/.icaro/firmware/tmp/servos.c        if (phase) {
00000A 51??           01375         MOVF    _phase, W, B
00000C E0??           01376         BZ      _00526_DS_
                      01377 ;       .line   294; /home/valentin/.icaro/firmware/tmp/servos.c        ServosPulseUp();
00000E EC?? F0??      01378         CALL    _ServosPulseUp
                      01379 ;       .line   296; /home/valentin/.icaro/firmware/tmp/servos.c        TMR1H= 0xd3;
000012 0ED3           01380         MOVLW   0xd3
000014 6E??           01381         MOVWF   _TMR1H
                      01382 ;       .line   297; /home/valentin/.icaro/firmware/tmp/servos.c        TMR1L= 0x8f;
000016 0E8F           01383         MOVLW   0x8f
000018 6E??           01384         MOVWF   _TMR1L
                      01385 ;       .line   299; /home/valentin/.icaro/firmware/tmp/servos.c        T1CON=1;
00001A 0E01           01386         MOVLW   0x01
00001C 6E??           01387         MOVWF   _T1CON
00001E ????           01388         BANKSEL _phase
                      01389 ;       .line   300; /home/valentin/.icaro/firmware/tmp/servos.c        phase = 0;
000020 6B??           01390         CLRF    _phase, B
000022 D???           01391         BRA     _00530_DS_
000024                01392 _00526_DS_:
                      01393 ;       .line   305; /home/valentin/.icaro/firmware/tmp/servos.c        ServosPulseDown();
000024 EC?? F0??      01394         CALL    _ServosPulseDown
                      01395 ;       .line   309; /home/valentin/.icaro/firmware/tmp/servos.c        TMR1H= 0x2d;
000028 0E2D           01396         MOVLW   0x2d
00002A 6E??           01397         MOVWF   _TMR1H
                      01398 ;       .line   310; /home/valentin/.icaro/firmware/tmp/servos.c        TMR1L= 0x0f;
00002C 0E0F           01399         MOVLW   0x0f
00002E 6E??           01400         MOVWF   _TMR1L
                      01401 ; #     MOVF    _needreordering, W, B
                      01402 ; #     BTFSC   STATUS, 2
                      01403 ; #     GOTO    _00524_DS_
                      01404 ; #     CALL    _SortServoTimings
                      01405 ; #     MOVLW   0x21
000030 ????           01406         BANKSEL _needreordering
                      01407 ;       .line   312; /home/valentin/.icaro/firmware/tmp/servos.c        if (needreordering)     
000032 51??           01408         MOVF    _needreordering, W, B
                      01409 ;       .line   313; /home/valentin/.icaro/firmware/tmp/servos.c        SortServoTimings();  // This tak
                            es more than 1 ms, but it's call only if needed.
000034 A4D8           01410         BTFSS   STATUS, 2
                      01411 ;       .line   314; /home/valentin/.icaro/firmware/tmp/servos.c        T1CON= ( 1 | 2 << 4 ) ; // activ
                            ate timer1 and prescaler = 1:4
000036 EC?? F0??      01412         CALL    _SortServoTimings
00003A 0E21           01413         MOVLW   0x21
00003C 6E??           01414         MOVWF   _T1CON
                      01415 ;       .line   315; /home/valentin/.icaro/firmware/tmp/servos.c        phase = 1;  //This indicates tha
                            t after next interrupt it will start the servos cycle.
00003E 0E01           01416         MOVLW   0x01
000040 ????           01417         BANKSEL _phase
000042 6F??           01418         MOVWF   _phase, B
000044                01419 _00530_DS_:
                      01420 ;       .line   318; /home/valentin/.icaro/firmware/tmp/servos.c        return;
000044 0012           01421         RETURN  
                      01422 
gpasm-1.2.0 #980 (Aug 15 2013) /home/valentin   4-23-2015  13:22:04         PAGE 29


LOC  OBJECT CODE     LINE SOURCE TEXT
  VALUE

                      01423 ; ; Starting pCode block
                      01424 S_main__ServoMaximumPulse       code
000000                01425 _ServoMaximumPulse:
                      01426 ;       .line   274; /home/valentin/.icaro/firmware/tmp/servos.c        void ServoMaximumPulse(uchar ser
                            vo)
000000 CFD9 FFE5      01427         MOVFF   FSR2L, POSTDEC1
000004 CFE1 FFD9      01428         MOVFF   FSR1L, FSR2L
000008 C??? F???      01429         MOVFF   r0x00, POSTDEC1
00000C C??? F???      01430         MOVFF   r0x01, POSTDEC1
000010 0E02           01431         MOVLW   0x02
000012 CFDB F000      01432         MOVFF   PLUSW2, r0x00
                      01433 ;       .line   276; /home/valentin/.icaro/firmware/tmp/servos.c        if(servo>=18)        // test if 
                            numservo is valid
000016 0E12           01434         MOVLW   0x12
                      01435 ; #     SUBWF   r0x00, W
                      01436 ; #     BTFSS   STATUS, 0
                      01437 ; #     GOTO    _00512_DS_
                      01438 ; #     GOTO    _00513_DS_
                      01439 ; #     CLRF    r0x01
                      01440 ;       .line   277; /home/valentin/.icaro/firmware/tmp/servos.c        return;
000018 5C??           01441         SUBWF   r0x00, W
                      01442 ;       .line   279; /home/valentin/.icaro/firmware/tmp/servos.c        servovalues[servo]=SERVOMAX;  //
                              250 = 2000 useg pulse
00001A E2??           01443         BC      _00513_DS_
00001C 6A??           01444         CLRF    r0x01
00001E 0E??           01445         MOVLW   LOW(_servovalues)
000020 26??           01446         ADDWF   r0x00, F
000022 0E??           01447         MOVLW   HIGH(_servovalues)
000024 22??           01448         ADDWFC  r0x01, F
000026 C??? F???      01449         MOVFF   r0x00, FSR0L
00002A C??? F???      01450         MOVFF   r0x01, FSR0H
00002E 0EFA           01451         MOVLW   0xfa
000030 6EEF           01452         MOVWF   INDF0
                      01453 ;       .line   281; /home/valentin/.icaro/firmware/tmp/servos.c        needreordering=1;  // This indic
                            ates servo timings must be reordered.
000032 0E01           01454         MOVLW   0x01
000034 ????           01455         BANKSEL _needreordering
000036 6F??           01456         MOVWF   _needreordering, B
000038                01457 _00513_DS_:
000038 CFE4 F000      01458         MOVFF   PREINC1, r0x01
00003C CFE4 F000      01459         MOVFF   PREINC1, r0x00
000040 CFE4 FFD9      01460         MOVFF   PREINC1, FSR2L
000044 0012           01461         RETURN  
                      01462 
                      01463 ; ; Starting pCode block
                      01464 S_main__ServoMinimumPulse       code
000000                01465 _ServoMinimumPulse:
                      01466 ;       .line   263; /home/valentin/.icaro/firmware/tmp/servos.c        void ServoMinimumPulse(uchar ser
                            vo)
000000 CFD9 FFE5      01467         MOVFF   FSR2L, POSTDEC1
000004 CFE1 FFD9      01468         MOVFF   FSR1L, FSR2L
000008 C??? F???      01469         MOVFF   r0x00, POSTDEC1
00000C C??? F???      01470         MOVFF   r0x01, POSTDEC1
gpasm-1.2.0 #980 (Aug 15 2013) /home/valentin   4-23-2015  13:22:04         PAGE 30


LOC  OBJECT CODE     LINE SOURCE TEXT
  VALUE

000010 0E02           01471         MOVLW   0x02
000012 CFDB F000      01472         MOVFF   PLUSW2, r0x00
                      01473 ;       .line   265; /home/valentin/.icaro/firmware/tmp/servos.c        if(servo>=18)        // test if 
                            numservo is valid
000016 0E12           01474         MOVLW   0x12
                      01475 ; #     SUBWF   r0x00, W
                      01476 ; #     BTFSS   STATUS, 0
                      01477 ; #     GOTO    _00500_DS_
                      01478 ; #     GOTO    _00501_DS_
                      01479 ; #     CLRF    r0x01
                      01480 ;       .line   266; /home/valentin/.icaro/firmware/tmp/servos.c        return;
000018 5C??           01481         SUBWF   r0x00, W
                      01482 ;       .line   268; /home/valentin/.icaro/firmware/tmp/servos.c        servovalues[servo]=SERVOMIN;  //
                              1 = 1000 useg pulse
00001A E2??           01483         BC      _00501_DS_
00001C 6A??           01484         CLRF    r0x01
00001E 0E??           01485         MOVLW   LOW(_servovalues)
000020 26??           01486         ADDWF   r0x00, F
000022 0E??           01487         MOVLW   HIGH(_servovalues)
000024 22??           01488         ADDWFC  r0x01, F
000026 C??? F???      01489         MOVFF   r0x00, FSR0L
00002A C??? F???      01490         MOVFF   r0x01, FSR0H
00002E 0E01           01491         MOVLW   0x01
000030 6EEF           01492         MOVWF   INDF0
000032 ????           01493         BANKSEL _needreordering
                      01494 ;       .line   270; /home/valentin/.icaro/firmware/tmp/servos.c        needreordering=1;  // This indic
                            ates servo timings must be reordered.
000034 6F??           01495         MOVWF   _needreordering, B
000036                01496 _00501_DS_:
000036 CFE4 F000      01497         MOVFF   PREINC1, r0x01
00003A CFE4 F000      01498         MOVFF   PREINC1, r0x00
00003E CFE4 FFD9      01499         MOVFF   PREINC1, FSR2L
000042 0012           01500         RETURN  
                      01501 
                      01502 ; ; Starting pCode block
                      01503 S_main__ServoRead       code
000000                01504 _ServoRead:
                      01505 ;       .line   255; /home/valentin/.icaro/firmware/tmp/servos.c        unsigned char ServoRead(uchar se
                            rvo)
000000 CFD9 FFE5      01506         MOVFF   FSR2L, POSTDEC1
000004 CFE1 FFD9      01507         MOVFF   FSR1L, FSR2L
000008 C??? F???      01508         MOVFF   r0x00, POSTDEC1
00000C C??? F???      01509         MOVFF   r0x01, POSTDEC1
000010 0E02           01510         MOVLW   0x02
000012 CFDB F000      01511         MOVFF   PLUSW2, r0x00
                      01512 ;       .line   257; /home/valentin/.icaro/firmware/tmp/servos.c        if(servo>=18)        // test if 
                            numservo is valid
000016 0E12           01513         MOVLW   0x12
000018 5C??           01514         SUBWF   r0x00, W
00001A E3??           01515         BNC     _00488_DS_
                      01516 ;       .line   258; /home/valentin/.icaro/firmware/tmp/servos.c        return 0;
00001C 6AE8           01517         CLRF    WREG
00001E D???           01518         BRA     _00489_DS_
gpasm-1.2.0 #980 (Aug 15 2013) /home/valentin   4-23-2015  13:22:04         PAGE 31


LOC  OBJECT CODE     LINE SOURCE TEXT
  VALUE

000020                01519 _00488_DS_:
                      01520 ;       .line   259; /home/valentin/.icaro/firmware/tmp/servos.c        return servovalues[servo];
000020 6A??           01521         CLRF    r0x01
000022 0E??           01522         MOVLW   LOW(_servovalues)
000024 26??           01523         ADDWF   r0x00, F
000026 0E??           01524         MOVLW   HIGH(_servovalues)
000028 22??           01525         ADDWFC  r0x01, F
00002A C??? F???      01526         MOVFF   r0x00, FSR0L
00002E C??? F???      01527         MOVFF   r0x01, FSR0H
000032 CFEF F000      01528         MOVFF   INDF0, r0x00
000036 50??           01529         MOVF    r0x00, W
000038                01530 _00489_DS_:
000038 CFE4 F000      01531         MOVFF   PREINC1, r0x01
00003C CFE4 F000      01532         MOVFF   PREINC1, r0x00
000040 CFE4 FFD9      01533         MOVFF   PREINC1, FSR2L
000044 0012           01534         RETURN  
                      01535 
                      01536 ; ; Starting pCode block
                      01537 S_main__ServoWrite      code
000000                01538 _ServoWrite:
                      01539 ;       .line   240; /home/valentin/.icaro/firmware/tmp/servos.c        void ServoWrite(uchar servo, uch
                            ar value)
000000 CFD9 FFE5      01540         MOVFF   FSR2L, POSTDEC1
000004 CFE1 FFD9      01541         MOVFF   FSR1L, FSR2L
000008 C??? F???      01542         MOVFF   r0x00, POSTDEC1
00000C C??? F???      01543         MOVFF   r0x01, POSTDEC1
000010 C??? F???      01544         MOVFF   r0x02, POSTDEC1
000014 0E02           01545         MOVLW   0x02
000016 CFDB F000      01546         MOVFF   PLUSW2, r0x00
00001A 0E03           01547         MOVLW   0x03
00001C CFDB F000      01548         MOVFF   PLUSW2, r0x01
                      01549 ;       .line   242; /home/valentin/.icaro/firmware/tmp/servos.c        if(servo>=18)        // test if 
                            numservo is valid
000020 0E12           01550         MOVLW   0x12
                      01551 ; #     SUBWF   r0x00, W
                      01552 ; #     BTFSS   STATUS, 0
                      01553 ; #     GOTO    _00464_DS_
                      01554 ; #     GOTO    _00469_DS_
                      01555 ; #     MOVLW   0x01
                      01556 ;       .line   243; /home/valentin/.icaro/firmware/tmp/servos.c        return;
000022 5C??           01557         SUBWF   r0x00, W
                      01558 ;       .line   245; /home/valentin/.icaro/firmware/tmp/servos.c        if(value<SERVOMIN)  //  1 = 1000
                             useg pulse
000024 E2??           01559         BC      _00469_DS_
000026 0E01           01560         MOVLW   0x01
000028 5C??           01561         SUBWF   r0x01, W
00002A E2??           01562         BC      _00466_DS_
                      01563 ;       .line   246; /home/valentin/.icaro/firmware/tmp/servos.c        value=SERVOMIN;
00002C 0E01           01564         MOVLW   0x01
00002E 6E??           01565         MOVWF   r0x01
000030                01566 _00466_DS_:
                      01567 ;       .line   247; /home/valentin/.icaro/firmware/tmp/servos.c        if(value>SERVOMAX) // 250 = 2000
                             useg pulse
gpasm-1.2.0 #980 (Aug 15 2013) /home/valentin   4-23-2015  13:22:04         PAGE 32


LOC  OBJECT CODE     LINE SOURCE TEXT
  VALUE

000030 0EFB           01568         MOVLW   0xfb
000032 5C??           01569         SUBWF   r0x01, W
000034 E3??           01570         BNC     _00468_DS_
                      01571 ;       .line   248; /home/valentin/.icaro/firmware/tmp/servos.c        value=SERVOMAX;
000036 0EFA           01572         MOVLW   0xfa
000038 6E??           01573         MOVWF   r0x01
00003A                01574 _00468_DS_:
                      01575 ;       .line   249; /home/valentin/.icaro/firmware/tmp/servos.c        servovalues[servo]=value;
00003A 6A??           01576         CLRF    r0x02
00003C 0E??           01577         MOVLW   LOW(_servovalues)
00003E 26??           01578         ADDWF   r0x00, F
000040 0E??           01579         MOVLW   HIGH(_servovalues)
000042 22??           01580         ADDWFC  r0x02, F
000044 C??? F???      01581         MOVFF   r0x00, FSR0L
000048 C??? F???      01582         MOVFF   r0x02, FSR0H
00004C C??? F???      01583         MOVFF   r0x01, INDF0
                      01584 ;       .line   251; /home/valentin/.icaro/firmware/tmp/servos.c        needreordering=1;  // This indic
                            ates servo timings must be reordered.
000050 0E01           01585         MOVLW   0x01
000052 ????           01586         BANKSEL _needreordering
000054 6F??           01587         MOVWF   _needreordering, B
000056                01588 _00469_DS_:
000056 CFE4 F000      01589         MOVFF   PREINC1, r0x02
00005A CFE4 F000      01590         MOVFF   PREINC1, r0x01
00005E CFE4 F000      01591         MOVFF   PREINC1, r0x00
000062 CFE4 FFD9      01592         MOVFF   PREINC1, FSR2L
000066 0012           01593         RETURN  
                      01594 
                      01595 ; ; Starting pCode block
                      01596 S_main__ServoDetach     code
000000                01597 _ServoDetach:
                      01598 ;       .line   226; /home/valentin/.icaro/firmware/tmp/servos.c        void ServoDetach(uchar pin)
000000 CFD9 FFE5      01599         MOVFF   FSR2L, POSTDEC1
000004 CFE1 FFD9      01600         MOVFF   FSR1L, FSR2L
000008 C??? F???      01601         MOVFF   r0x00, POSTDEC1
00000C C??? F???      01602         MOVFF   r0x01, POSTDEC1
000010 C??? F???      01603         MOVFF   r0x02, POSTDEC1
000014 C??? F???      01604         MOVFF   r0x03, POSTDEC1
000018 0E02           01605         MOVLW   0x02
00001A CFDB F000      01606         MOVFF   PLUSW2, r0x00
                      01607 ;       .line   228; /home/valentin/.icaro/firmware/tmp/servos.c        if(pin>=18) return;
00001E 0E12           01608         MOVLW   0x12
                      01609 ; #     SUBWF   r0x00, W
                      01610 ; #     BTFSS   STATUS, 0
                      01611 ; #     GOTO    _00437_DS_
                      01612 ; #     GOTO    _00444_DS_
                      01613 ; #     MOVLW   0x08
                      01614 ;       .line   230; /home/valentin/.icaro/firmware/tmp/servos.c        if(pin<8){
000020 5C??           01615         SUBWF   r0x00, W
000022 B0D8           01616         BTFSC   STATUS, 0
000024 D???           01617         BRA     _00444_DS_
000026 0E08           01618         MOVLW   0x08
000028 5C??           01619         SUBWF   r0x00, W
gpasm-1.2.0 #980 (Aug 15 2013) /home/valentin   4-23-2015  13:22:04         PAGE 33


LOC  OBJECT CODE     LINE SOURCE TEXT
  VALUE

00002A E2??           01620         BC      _00442_DS_
                      01621 ;       .line   231; /home/valentin/.icaro/firmware/tmp/servos.c        activatedservos[MaskPort_B] = ac
                            tivatedservos[MaskPort_B] ^ servomasks[pin];
00002C 0E??           01622         MOVLW   LOW(_servomasks)
00002E 24??           01623         ADDWF   r0x00, W
000030 6E??           01624         MOVWF   r0x01
000032 6A??           01625         CLRF    r0x02
000034 0E??           01626         MOVLW   HIGH(_servomasks)
000036 22??           01627         ADDWFC  r0x02, F
000038 6A??           01628         CLRF    r0x03
00003A 0E??           01629         MOVLW   UPPER(_servomasks)
00003C 22??           01630         ADDWFC  r0x03, F
00003E C??? F???      01631         MOVFF   r0x01, TBLPTRL
000042 C??? F???      01632         MOVFF   r0x02, TBLPTRH
000046 C??? F???      01633         MOVFF   r0x03, TBLPTRU
00004A 0009           01634         TBLRD*+ 
00004C CFF5 F000      01635         MOVFF   TABLAT, r0x01
000050 ????           01636         BANKSEL _activatedservos
000052 51??           01637         MOVF    _activatedservos, W, B
000054 1A??           01638         XORWF   r0x01, F
000056 50??           01639         MOVF    r0x01, W
                      01640 ; removed redundant BANKSEL
000058 6F??           01641         MOVWF   _activatedservos, B
00005A D???           01642         BRA     _00444_DS_
00005C                01643 _00442_DS_:
                      01644 ;       .line   232; /home/valentin/.icaro/firmware/tmp/servos.c        } else if (pin>12) {
00005C 0E0D           01645         MOVLW   0x0d
00005E 5C??           01646         SUBWF   r0x00, W
000060 E3??           01647         BNC     _00439_DS_
                      01648 ;       .line   233; /home/valentin/.icaro/firmware/tmp/servos.c        activatedservos[MaskPort_A] = ac
                            tivatedservos[MaskPort_A] ^ servomasks[pin];
000062 0E??           01649         MOVLW   LOW(_servomasks)
000064 24??           01650         ADDWF   r0x00, W
000066 6E??           01651         MOVWF   r0x01
000068 6A??           01652         CLRF    r0x02
00006A 0E??           01653         MOVLW   HIGH(_servomasks)
00006C 22??           01654         ADDWFC  r0x02, F
00006E 6A??           01655         CLRF    r0x03
000070 0E??           01656         MOVLW   UPPER(_servomasks)
000072 22??           01657         ADDWFC  r0x03, F
000074 C??? F???      01658         MOVFF   r0x01, TBLPTRL
000078 C??? F???      01659         MOVFF   r0x02, TBLPTRH
00007C C??? F???      01660         MOVFF   r0x03, TBLPTRU
000080 0009           01661         TBLRD*+ 
000082 CFF5 F000      01662         MOVFF   TABLAT, r0x01
000086 ????           01663         BANKSEL (_activatedservos + 2)
000088 51??           01664         MOVF    (_activatedservos + 2), W, B
00008A 1A??           01665         XORWF   r0x01, F
00008C 50??           01666         MOVF    r0x01, W
                      01667 ; removed redundant BANKSEL
00008E 6F??           01668         MOVWF   (_activatedservos + 2), B
000090 D???           01669         BRA     _00444_DS_
000092                01670 _00439_DS_:
gpasm-1.2.0 #980 (Aug 15 2013) /home/valentin   4-23-2015  13:22:04         PAGE 34


LOC  OBJECT CODE     LINE SOURCE TEXT
  VALUE

                      01671 ;       .line   235; /home/valentin/.icaro/firmware/tmp/servos.c        activatedservos[MaskPort_C] = ac
                            tivatedservos[MaskPort_C] ^ servomasks[pin];
000092 6A??           01672         CLRF    r0x01
000094 6A??           01673         CLRF    r0x02
000096 0E??           01674         MOVLW   LOW(_servomasks)
000098 26??           01675         ADDWF   r0x00, F
00009A 0E??           01676         MOVLW   HIGH(_servomasks)
00009C 22??           01677         ADDWFC  r0x01, F
00009E 0E??           01678         MOVLW   UPPER(_servomasks)
0000A0 22??           01679         ADDWFC  r0x02, F
0000A2 C??? F???      01680         MOVFF   r0x00, TBLPTRL
0000A6 C??? F???      01681         MOVFF   r0x01, TBLPTRH
0000AA C??? F???      01682         MOVFF   r0x02, TBLPTRU
0000AE 0009           01683         TBLRD*+ 
0000B0 CFF5 F000      01684         MOVFF   TABLAT, r0x00
0000B4 ????           01685         BANKSEL (_activatedservos + 1)
0000B6 51??           01686         MOVF    (_activatedservos + 1), W, B
0000B8 1A??           01687         XORWF   r0x00, F
0000BA 50??           01688         MOVF    r0x00, W
                      01689 ; removed redundant BANKSEL
0000BC 6F??           01690         MOVWF   (_activatedservos + 1), B
0000BE                01691 _00444_DS_:
0000BE CFE4 F000      01692         MOVFF   PREINC1, r0x03
0000C2 CFE4 F000      01693         MOVFF   PREINC1, r0x02
0000C6 CFE4 F000      01694         MOVFF   PREINC1, r0x01
0000CA CFE4 F000      01695         MOVFF   PREINC1, r0x00
0000CE CFE4 FFD9      01696         MOVFF   PREINC1, FSR2L
0000D2 0012           01697         RETURN  
                      01698 
                      01699 ; ; Starting pCode block
                      01700 S_main__ServoAttach     code
000000                01701 _ServoAttach:
                      01702 ;       .line   209; /home/valentin/.icaro/firmware/tmp/servos.c        void ServoAttach(uchar pin)
000000 CFD9 FFE5      01703         MOVFF   FSR2L, POSTDEC1
000004 CFE1 FFD9      01704         MOVFF   FSR1L, FSR2L
000008 C??? F???      01705         MOVFF   r0x00, POSTDEC1
00000C C??? F???      01706         MOVFF   r0x01, POSTDEC1
000010 C??? F???      01707         MOVFF   r0x02, POSTDEC1
000014 C??? F???      01708         MOVFF   r0x03, POSTDEC1
000018 C??? F???      01709         MOVFF   r0x04, POSTDEC1
00001C 0E02           01710         MOVLW   0x02
00001E CFDB F000      01711         MOVFF   PLUSW2, r0x00
                      01712 ;       .line   211; /home/valentin/.icaro/firmware/tmp/servos.c        if(pin>=18) return;
000022 0E12           01713         MOVLW   0x12
                      01714 ; #     SUBWF   r0x00, W
                      01715 ; #     BTFSS   STATUS, 0
                      01716 ; #     GOTO    _00409_DS_
                      01717 ; #     GOTO    _00416_DS_
                      01718 ; #     MOVLW   0x08
                      01719 ;       .line   213; /home/valentin/.icaro/firmware/tmp/servos.c        if(pin<8){
000024 5C??           01720         SUBWF   r0x00, W
000026 B0D8           01721         BTFSC   STATUS, 0
000028 D???           01722         BRA     _00416_DS_
gpasm-1.2.0 #980 (Aug 15 2013) /home/valentin   4-23-2015  13:22:04         PAGE 35


LOC  OBJECT CODE     LINE SOURCE TEXT
  VALUE

00002A 0E08           01723         MOVLW   0x08
00002C 5C??           01724         SUBWF   r0x00, W
00002E E2??           01725         BC      _00414_DS_
                      01726 ;       .line   214; /home/valentin/.icaro/firmware/tmp/servos.c        activatedservos[MaskPort_B] = ac
                            tivatedservos[MaskPort_B] | servomasks[pin];  // list pin as servo driver.
000030 0E??           01727         MOVLW   LOW(_servomasks)
000032 24??           01728         ADDWF   r0x00, W
000034 6E??           01729         MOVWF   r0x01
000036 6A??           01730         CLRF    r0x02
000038 0E??           01731         MOVLW   HIGH(_servomasks)
00003A 22??           01732         ADDWFC  r0x02, F
00003C 6A??           01733         CLRF    r0x03
00003E 0E??           01734         MOVLW   UPPER(_servomasks)
000040 22??           01735         ADDWFC  r0x03, F
000042 C??? F???      01736         MOVFF   r0x01, TBLPTRL
000046 C??? F???      01737         MOVFF   r0x02, TBLPTRH
00004A C??? F???      01738         MOVFF   r0x03, TBLPTRU
00004E 0009           01739         TBLRD*+ 
000050 CFF5 F000      01740         MOVFF   TABLAT, r0x04
000054 ????           01741         BANKSEL _activatedservos
000056 51??           01742         MOVF    _activatedservos, W, B
000058 12??           01743         IORWF   r0x04, F
00005A 50??           01744         MOVF    r0x04, W
                      01745 ; removed redundant BANKSEL
00005C 6F??           01746         MOVWF   _activatedservos, B
                      01747 ;       .line   215; /home/valentin/.icaro/firmware/tmp/servos.c        TRISB = TRISB & (255 - servomask
                            s[pin]); // set as output pin
00005E C??? F???      01748         MOVFF   r0x01, TBLPTRL
000062 C??? F???      01749         MOVFF   r0x02, TBLPTRH
000066 C??? F???      01750         MOVFF   r0x03, TBLPTRU
00006A 0009           01751         TBLRD*+ 
00006C CFF5 F000      01752         MOVFF   TABLAT, r0x01
000070 50??           01753         MOVF    r0x01, W
000072 08FF           01754         SUBLW   0xff
                      01755 ; #     MOVWF   r0x01
                      01756 ; #     MOVF    r0x01, W
000074 16??           01757         ANDWF   _TRISB, F
000076 D???           01758         BRA     _00416_DS_
000078                01759 _00414_DS_:
                      01760 ;       .line   216; /home/valentin/.icaro/firmware/tmp/servos.c        } else if (pin>12) {
000078 0E0D           01761         MOVLW   0x0d
00007A 5C??           01762         SUBWF   r0x00, W
00007C E3??           01763         BNC     _00411_DS_
                      01764 ;       .line   217; /home/valentin/.icaro/firmware/tmp/servos.c        activatedservos[MaskPort_A] = ac
                            tivatedservos[MaskPort_A] | servomasks[pin];  // list pin as servo driver.
00007E 0E??           01765         MOVLW   LOW(_servomasks)
000080 24??           01766         ADDWF   r0x00, W
000082 6E??           01767         MOVWF   r0x01
000084 6A??           01768         CLRF    r0x02
000086 0E??           01769         MOVLW   HIGH(_servomasks)
000088 22??           01770         ADDWFC  r0x02, F
00008A 6A??           01771         CLRF    r0x03
00008C 0E??           01772         MOVLW   UPPER(_servomasks)
gpasm-1.2.0 #980 (Aug 15 2013) /home/valentin   4-23-2015  13:22:04         PAGE 36


LOC  OBJECT CODE     LINE SOURCE TEXT
  VALUE

00008E 22??           01773         ADDWFC  r0x03, F
000090 C??? F???      01774         MOVFF   r0x01, TBLPTRL
000094 C??? F???      01775         MOVFF   r0x02, TBLPTRH
000098 C??? F???      01776         MOVFF   r0x03, TBLPTRU
00009C 0009           01777         TBLRD*+ 
00009E CFF5 F000      01778         MOVFF   TABLAT, r0x04
0000A2 ????           01779         BANKSEL (_activatedservos + 2)
0000A4 51??           01780         MOVF    (_activatedservos + 2), W, B
0000A6 12??           01781         IORWF   r0x04, F
0000A8 50??           01782         MOVF    r0x04, W
                      01783 ; removed redundant BANKSEL
0000AA 6F??           01784         MOVWF   (_activatedservos + 2), B
                      01785 ;       .line   218; /home/valentin/.icaro/firmware/tmp/servos.c        TRISA = TRISA & (255 - servomask
                            s[pin]); // set as output pin
0000AC C??? F???      01786         MOVFF   r0x01, TBLPTRL
0000B0 C??? F???      01787         MOVFF   r0x02, TBLPTRH
0000B4 C??? F???      01788         MOVFF   r0x03, TBLPTRU
0000B8 0009           01789         TBLRD*+ 
0000BA CFF5 F000      01790         MOVFF   TABLAT, r0x01
0000BE 50??           01791         MOVF    r0x01, W
0000C0 08FF           01792         SUBLW   0xff
                      01793 ; #     MOVWF   r0x01
                      01794 ; #     MOVF    r0x01, W
0000C2 16??           01795         ANDWF   _TRISA, F
0000C4 D???           01796         BRA     _00416_DS_
0000C6                01797 _00411_DS_:
                      01798 ;       .line   220; /home/valentin/.icaro/firmware/tmp/servos.c        activatedservos[MaskPort_C] = ac
                            tivatedservos[MaskPort_C] | servomasks[pin];  // list pin as servo driver.
0000C6 6A??           01799         CLRF    r0x01
0000C8 6A??           01800         CLRF    r0x02
0000CA 0E??           01801         MOVLW   LOW(_servomasks)
0000CC 26??           01802         ADDWF   r0x00, F
0000CE 0E??           01803         MOVLW   HIGH(_servomasks)
0000D0 22??           01804         ADDWFC  r0x01, F
0000D2 0E??           01805         MOVLW   UPPER(_servomasks)
0000D4 22??           01806         ADDWFC  r0x02, F
0000D6 C??? F???      01807         MOVFF   r0x00, TBLPTRL
0000DA C??? F???      01808         MOVFF   r0x01, TBLPTRH
0000DE C??? F???      01809         MOVFF   r0x02, TBLPTRU
0000E2 0009           01810         TBLRD*+ 
0000E4 CFF5 F000      01811         MOVFF   TABLAT, r0x03
0000E8 ????           01812         BANKSEL (_activatedservos + 1)
0000EA 51??           01813         MOVF    (_activatedservos + 1), W, B
0000EC 12??           01814         IORWF   r0x03, F
0000EE 50??           01815         MOVF    r0x03, W
                      01816 ; removed redundant BANKSEL
0000F0 6F??           01817         MOVWF   (_activatedservos + 1), B
                      01818 ;       .line   221; /home/valentin/.icaro/firmware/tmp/servos.c        TRISC = TRISC & (255 - servomask
                            s[pin]); // set as output pin
0000F2 C??? F???      01819         MOVFF   r0x00, TBLPTRL
0000F6 C??? F???      01820         MOVFF   r0x01, TBLPTRH
0000FA C??? F???      01821         MOVFF   r0x02, TBLPTRU
0000FE 0009           01822         TBLRD*+ 
gpasm-1.2.0 #980 (Aug 15 2013) /home/valentin   4-23-2015  13:22:04         PAGE 37


LOC  OBJECT CODE     LINE SOURCE TEXT
  VALUE

000100 CFF5 F000      01823         MOVFF   TABLAT, r0x00
000104 50??           01824         MOVF    r0x00, W
000106 08FF           01825         SUBLW   0xff
                      01826 ; #     MOVWF   r0x00
                      01827 ; #     MOVF    r0x00, W
000108 16??           01828         ANDWF   _TRISC, F
00010A                01829 _00416_DS_:
00010A CFE4 F000      01830         MOVFF   PREINC1, r0x04
00010E CFE4 F000      01831         MOVFF   PREINC1, r0x03
000112 CFE4 F000      01832         MOVFF   PREINC1, r0x02
000116 CFE4 F000      01833         MOVFF   PREINC1, r0x01
00011A CFE4 F000      01834         MOVFF   PREINC1, r0x00
00011E CFE4 FFD9      01835         MOVFF   PREINC1, FSR2L
000122 0012           01836         RETURN  
                      01837 
                      01838 ; ; Starting pCode block
                      01839 S_main__SortServoTimings        code
000000                01840 _SortServoTimings:
                      01841 ;       .line   125; /home/valentin/.icaro/firmware/tmp/servos.c        static void SortServoTimings()
000000 C??? F???      01842         MOVFF   r0x00, POSTDEC1
000004 C??? F???      01843         MOVFF   r0x01, POSTDEC1
000008 C??? F???      01844         MOVFF   r0x02, POSTDEC1
00000C C??? F???      01845         MOVFF   r0x03, POSTDEC1
000010 C??? F???      01846         MOVFF   r0x04, POSTDEC1
000014 C??? F???      01847         MOVFF   r0x05, POSTDEC1
000018 C??? F???      01848         MOVFF   r0x06, POSTDEC1
00001C C??? F???      01849         MOVFF   r0x07, POSTDEC1
000020 C??? F???      01850         MOVFF   r0x08, POSTDEC1
000024 C??? F???      01851         MOVFF   r0x09, POSTDEC1
000028 C??? F???      01852         MOVFF   r0x0a, POSTDEC1
00002C C??? F???      01853         MOVFF   r0x0b, POSTDEC1
000030 C??? F???      01854         MOVFF   r0x0c, POSTDEC1
000034 ????           01855         BANKSEL _SortServoTimings_mascaratotal_1_27
                      01856 ;       .line   132; /home/valentin/.icaro/firmware/tmp/servos.c        uchar mascaratotal[3]={0x00,0x00
                            ,0x00};
000036 6B??           01857         CLRF    _SortServoTimings_mascaratotal_1_27, B
                      01858 ; removed redundant BANKSEL
000038 6B??           01859         CLRF    (_SortServoTimings_mascaratotal_1_27 + 1), B
                      01860 ; removed redundant BANKSEL
00003A 6B??           01861         CLRF    (_SortServoTimings_mascaratotal_1_27 + 2), B
                      01862 ;       .line   135; /home/valentin/.icaro/firmware/tmp/servos.c        for(t=0;t<18;t++){
00003C 6A??           01863         CLRF    r0x00
00003E                01864 _00325_DS_:
                      01865 ;       .line   136; /home/valentin/.icaro/firmware/tmp/servos.c        timings[timevalue][t]=255;
00003E 0E??           01866         MOVLW   LOW(_timings + 54)
000040 24??           01867         ADDWF   r0x00, W
000042 6E??           01868         MOVWF   r0x01
000044 6A??           01869         CLRF    r0x02
000046 0E??           01870         MOVLW   HIGH(_timings + 54)
000048 22??           01871         ADDWFC  r0x02, F
00004A C??? F???      01872         MOVFF   r0x01, FSR0L
00004E C??? F???      01873         MOVFF   r0x02, FSR0H
000052 68EF           01874         SETF    INDF0
gpasm-1.2.0 #980 (Aug 15 2013) /home/valentin   4-23-2015  13:22:04         PAGE 38


LOC  OBJECT CODE     LINE SOURCE TEXT
  VALUE

                      01875 ;       .line   138; /home/valentin/.icaro/firmware/tmp/servos.c        timings[MaskPort_C][t]=0x00;
000054 0E??           01876         MOVLW   LOW(_timings + 18)
000056 24??           01877         ADDWF   r0x00, W
000058 6E??           01878         MOVWF   r0x01
00005A 6A??           01879         CLRF    r0x02
00005C 0E??           01880         MOVLW   HIGH(_timings + 18)
00005E 22??           01881         ADDWFC  r0x02, F
000060 C??? F???      01882         MOVFF   r0x01, FSR0L
000064 C??? F???      01883         MOVFF   r0x02, FSR0H
000068 6AEF           01884         CLRF    INDF0
                      01885 ;       .line   139; /home/valentin/.icaro/firmware/tmp/servos.c        timings[MaskPort_A][t]=0x00;
00006A 0E??           01886         MOVLW   LOW(_timings + 36)
00006C 24??           01887         ADDWF   r0x00, W
00006E 6E??           01888         MOVWF   r0x01
000070 6A??           01889         CLRF    r0x02
000072 0E??           01890         MOVLW   HIGH(_timings + 36)
000074 22??           01891         ADDWFC  r0x02, F
000076 C??? F???      01892         MOVFF   r0x01, FSR0L
00007A C??? F???      01893         MOVFF   r0x02, FSR0H
00007E 6AEF           01894         CLRF    INDF0
                      01895 ;       .line   135; /home/valentin/.icaro/firmware/tmp/servos.c        for(t=0;t<18;t++){
000080 2A??           01896         INCF    r0x00, F
000082 0E12           01897         MOVLW   0x12
000084 5C??           01898         SUBWF   r0x00, W
000086 E3??           01899         BNC     _00325_DS_
                      01900 ;       .line   142; /home/valentin/.icaro/firmware/tmp/servos.c        totalservos=0;
000088 6A??           01901         CLRF    r0x00
                      01902 ;       .line   144; /home/valentin/.icaro/firmware/tmp/servos.c        while(totalservos<18) {
00008A 6A??           01903         CLRF    r0x01
00008C                01904 _00322_DS_:
00008C 0E12           01905         MOVLW   0x12
00008E 5C??           01906         SUBWF   r0x00, W
000090 B0D8           01907         BTFSC   STATUS, 0
000092 D???           01908         BRA     _00324_DS_
                      01909 ;       .line   145; /home/valentin/.icaro/firmware/tmp/servos.c        numservos=1;
000094 0E01           01910         MOVLW   0x01
000096 6E??           01911         MOVWF   r0x02
                      01912 ;       .line   146; /home/valentin/.icaro/firmware/tmp/servos.c        for(s=0;s<18;s++) { 
000098 6A??           01913         CLRF    r0x03
00009A                01914 _00327_DS_:
                      01915 ;       .line   148; /home/valentin/.icaro/firmware/tmp/servos.c        if (s<8){
00009A 0E08           01916         MOVLW   0x08
00009C 5C??           01917         SUBWF   r0x03, W
00009E B0D8           01918         BTFSC   STATUS, 0
0000A0 D???           01919         BRA     _00319_DS_
                      01920 ;       .line   149; /home/valentin/.icaro/firmware/tmp/servos.c        if (servomasks[s] & mascaratotal
                            [MaskPort_B] & activatedservos[MaskPort_B]){
0000A2 0E??           01921         MOVLW   LOW(_servomasks)
0000A4 24??           01922         ADDWF   r0x03, W
0000A6 6E??           01923         MOVWF   r0x04
0000A8 6A??           01924         CLRF    r0x05
0000AA 0E??           01925         MOVLW   HIGH(_servomasks)
0000AC 22??           01926         ADDWFC  r0x05, F
gpasm-1.2.0 #980 (Aug 15 2013) /home/valentin   4-23-2015  13:22:04         PAGE 39


LOC  OBJECT CODE     LINE SOURCE TEXT
  VALUE

0000AE 6A??           01927         CLRF    r0x06
0000B0 0E??           01928         MOVLW   UPPER(_servomasks)
0000B2 22??           01929         ADDWFC  r0x06, F
0000B4 C??? F???      01930         MOVFF   r0x04, TBLPTRL
0000B8 C??? F???      01931         MOVFF   r0x05, TBLPTRH
0000BC C??? F???      01932         MOVFF   r0x06, TBLPTRU
0000C0 0009           01933         TBLRD*+ 
0000C2 CFF5 F000      01934         MOVFF   TABLAT, r0x04
0000C6 ????           01935         BANKSEL _SortServoTimings_mascaratotal_1_27
0000C8 51??           01936         MOVF    _SortServoTimings_mascaratotal_1_27, W, B
0000CA 16??           01937         ANDWF   r0x04, F
0000CC ????           01938         BANKSEL _activatedservos
0000CE 51??           01939         MOVF    _activatedservos, W, B
0000D0 16??           01940         ANDWF   r0x04, F
0000D2 50??           01941         MOVF    r0x04, W
0000D4 A4D8           01942         BTFSS   STATUS, 2
0000D6 D???           01943         BRA     _00328_DS_
                      01944 ;       .line   151; /home/valentin/.icaro/firmware/tmp/servos.c        else if (servovalues[s] < timing
                            s[timevalue][t]){
0000D8 0E??           01945         MOVLW   LOW(_servovalues)
0000DA 24??           01946         ADDWF   r0x03, W
0000DC 6E??           01947         MOVWF   r0x04
0000DE 6A??           01948         CLRF    r0x05
0000E0 0E??           01949         MOVLW   HIGH(_servovalues)
0000E2 22??           01950         ADDWFC  r0x05, F
0000E4 C??? F???      01951         MOVFF   r0x04, FSR0L
0000E8 C??? F???      01952         MOVFF   r0x05, FSR0H
0000EC CFEF F000      01953         MOVFF   INDF0, r0x04
0000F0 0E??           01954         MOVLW   LOW(_timings + 54)
0000F2 24??           01955         ADDWF   r0x01, W
0000F4 6E??           01956         MOVWF   r0x05
0000F6 6A??           01957         CLRF    r0x06
0000F8 0E??           01958         MOVLW   HIGH(_timings + 54)
0000FA 22??           01959         ADDWFC  r0x06, F
0000FC C??? F???      01960         MOVFF   r0x05, FSR0L
000100 C??? F???      01961         MOVFF   r0x06, FSR0H
000104 CFEF F000      01962         MOVFF   INDF0, r0x07
000108 50??           01963         MOVF    r0x07, W
00010A 5C??           01964         SUBWF   r0x04, W
00010C E2??           01965         BC      _00294_DS_
                      01966 ;       .line   152; /home/valentin/.icaro/firmware/tmp/servos.c        timings[timevalue][t]=servovalue
                            s[s];
00010E C??? F???      01967         MOVFF   r0x05, FSR0L
000112 C??? F???      01968         MOVFF   r0x06, FSR0H
000116 C??? F???      01969         MOVFF   r0x04, INDF0
                      01970 ;       .line   154; /home/valentin/.icaro/firmware/tmp/servos.c        timings[MaskPort_C][t]=0x00;
00011A 0E??           01971         MOVLW   LOW(_timings + 18)
00011C 24??           01972         ADDWF   r0x01, W
00011E 6E??           01973         MOVWF   r0x07
000120 6A??           01974         CLRF    r0x08
000122 0E??           01975         MOVLW   HIGH(_timings + 18)
000124 22??           01976         ADDWFC  r0x08, F
000126 C??? F???      01977         MOVFF   r0x07, FSR0L
gpasm-1.2.0 #980 (Aug 15 2013) /home/valentin   4-23-2015  13:22:04         PAGE 40


LOC  OBJECT CODE     LINE SOURCE TEXT
  VALUE

00012A C??? F???      01978         MOVFF   r0x08, FSR0H
00012E 6AEF           01979         CLRF    INDF0
                      01980 ;       .line   155; /home/valentin/.icaro/firmware/tmp/servos.c        timings[MaskPort_A][t]=0x00;
000130 0E??           01981         MOVLW   LOW(_timings + 36)
000132 24??           01982         ADDWF   r0x01, W
000134 6E??           01983         MOVWF   r0x07
000136 6A??           01984         CLRF    r0x08
000138 0E??           01985         MOVLW   HIGH(_timings + 36)
00013A 22??           01986         ADDWFC  r0x08, F
00013C C??? F???      01987         MOVFF   r0x07, FSR0L
000140 C??? F???      01988         MOVFF   r0x08, FSR0H
000144 6AEF           01989         CLRF    INDF0
                      01990 ;       .line   156; /home/valentin/.icaro/firmware/tmp/servos.c        numservos=1;
000146 0E01           01991         MOVLW   0x01
000148 6E??           01992         MOVWF   r0x02
00014A D???           01993         BRA     _00328_DS_
00014C                01994 _00294_DS_:
                      01995 ;       .line   158; /home/valentin/.icaro/firmware/tmp/servos.c        else if (servovalues[s] == timin
                            gs[timevalue][t]){
00014C C??? F???      01996         MOVFF   r0x05, FSR0L
000150 C??? F???      01997         MOVFF   r0x06, FSR0H
000154 CFEF F000      01998         MOVFF   INDF0, r0x05
000158 50??           01999         MOVF    r0x04, W
00015A 18??           02000         XORWF   r0x05, W
00015C E0??           02001         BZ      _00391_DS_
00015E D???           02002         BRA     _00328_DS_
000160                02003 _00391_DS_:
                      02004 ;       .line   160; /home/valentin/.icaro/firmware/tmp/servos.c        numservos++;
000160 2A??           02005         INCF    r0x02, F
000162 D???           02006         BRA     _00328_DS_
000164                02007 _00319_DS_:
                      02008 ;       .line   164; /home/valentin/.icaro/firmware/tmp/servos.c        else if (s>12){
000164 0E0D           02009         MOVLW   0x0d
000166 5C??           02010         SUBWF   r0x03, W
000168 A0D8           02011         BTFSS   STATUS, 0
00016A D???           02012         BRA     _00316_DS_
                      02013 ;       .line   165; /home/valentin/.icaro/firmware/tmp/servos.c        if (servomasks[s] & mascaratotal
                            [MaskPort_A] & activatedservos[MaskPort_A]){
00016C 0E??           02014         MOVLW   LOW(_servomasks)
00016E 24??           02015         ADDWF   r0x03, W
000170 6E??           02016         MOVWF   r0x04
000172 6A??           02017         CLRF    r0x05
000174 0E??           02018         MOVLW   HIGH(_servomasks)
000176 22??           02019         ADDWFC  r0x05, F
000178 6A??           02020         CLRF    r0x06
00017A 0E??           02021         MOVLW   UPPER(_servomasks)
00017C 22??           02022         ADDWFC  r0x06, F
00017E C??? F???      02023         MOVFF   r0x04, TBLPTRL
000182 C??? F???      02024         MOVFF   r0x05, TBLPTRH
000186 C??? F???      02025         MOVFF   r0x06, TBLPTRU
00018A 0009           02026         TBLRD*+ 
00018C CFF5 F000      02027         MOVFF   TABLAT, r0x07
000190 ????           02028         BANKSEL (_SortServoTimings_mascaratotal_1_27 + 2)
gpasm-1.2.0 #980 (Aug 15 2013) /home/valentin   4-23-2015  13:22:04         PAGE 41


LOC  OBJECT CODE     LINE SOURCE TEXT
  VALUE

000192 51??           02029         MOVF    (_SortServoTimings_mascaratotal_1_27 + 2), W, B
000194 14??           02030         ANDWF   r0x07, W
000196 6E??           02031         MOVWF   r0x08
000198 ????           02032         BANKSEL (_activatedservos + 2)
00019A 51??           02033         MOVF    (_activatedservos + 2), W, B
00019C 16??           02034         ANDWF   r0x08, F
00019E 50??           02035         MOVF    r0x08, W
0001A0 A4D8           02036         BTFSS   STATUS, 2
0001A2 D???           02037         BRA     _00328_DS_
                      02038 ;       .line   167; /home/valentin/.icaro/firmware/tmp/servos.c        else if (servovalues[s] < timing
                            s[timevalue][t]){
0001A4 0E??           02039         MOVLW   LOW(_servovalues)
0001A6 24??           02040         ADDWF   r0x03, W
0001A8 6E??           02041         MOVWF   r0x08
0001AA 6A??           02042         CLRF    r0x09
0001AC 0E??           02043         MOVLW   HIGH(_servovalues)
0001AE 22??           02044         ADDWFC  r0x09, F
0001B0 C??? F???      02045         MOVFF   r0x08, FSR0L
0001B4 C??? F???      02046         MOVFF   r0x09, FSR0H
0001B8 CFEF F000      02047         MOVFF   INDF0, r0x08
0001BC 0E??           02048         MOVLW   LOW(_timings + 54)
0001BE 24??           02049         ADDWF   r0x01, W
0001C0 6E??           02050         MOVWF   r0x09
0001C2 6A??           02051         CLRF    r0x0a
0001C4 0E??           02052         MOVLW   HIGH(_timings + 54)
0001C6 22??           02053         ADDWFC  r0x0a, F
0001C8 C??? F???      02054         MOVFF   r0x09, FSR0L
0001CC C??? F???      02055         MOVFF   r0x0a, FSR0H
0001D0 CFEF F000      02056         MOVFF   INDF0, r0x0b
0001D4 50??           02057         MOVF    r0x0b, W
0001D6 5C??           02058         SUBWF   r0x08, W
0001D8 E2??           02059         BC      _00302_DS_
                      02060 ;       .line   168; /home/valentin/.icaro/firmware/tmp/servos.c        timings[timevalue][t]=servovalue
                            s[s];
0001DA C??? F???      02061         MOVFF   r0x09, FSR0L
0001DE C??? F???      02062         MOVFF   r0x0a, FSR0H
0001E2 C??? F???      02063         MOVFF   r0x08, INDF0
                      02064 ;       .line   170; /home/valentin/.icaro/firmware/tmp/servos.c        timings[MaskPort_C][t]=0x00;
0001E6 0E??           02065         MOVLW   LOW(_timings + 18)
0001E8 24??           02066         ADDWF   r0x01, W
0001EA 6E??           02067         MOVWF   r0x0b
0001EC 6A??           02068         CLRF    r0x0c
0001EE 0E??           02069         MOVLW   HIGH(_timings + 18)
0001F0 22??           02070         ADDWFC  r0x0c, F
0001F2 C??? F???      02071         MOVFF   r0x0b, FSR0L
0001F6 C??? F???      02072         MOVFF   r0x0c, FSR0H
0001FA 6AEF           02073         CLRF    INDF0
                      02074 ;       .line   171; /home/valentin/.icaro/firmware/tmp/servos.c        timings[MaskPort_A][t]=servomask
                            s[s];
0001FC 0E??           02075         MOVLW   LOW(_timings + 36)
0001FE 24??           02076         ADDWF   r0x01, W
000200 6E??           02077         MOVWF   r0x0b
000202 6A??           02078         CLRF    r0x0c
gpasm-1.2.0 #980 (Aug 15 2013) /home/valentin   4-23-2015  13:22:04         PAGE 42


LOC  OBJECT CODE     LINE SOURCE TEXT
  VALUE

000204 0E??           02079         MOVLW   HIGH(_timings + 36)
000206 22??           02080         ADDWFC  r0x0c, F
000208 C??? F???      02081         MOVFF   r0x04, TBLPTRL
00020C C??? F???      02082         MOVFF   r0x05, TBLPTRH
000210 C??? F???      02083         MOVFF   r0x06, TBLPTRU
000214 0009           02084         TBLRD*+ 
000216 CFF5 F000      02085         MOVFF   TABLAT, r0x04
00021A C??? F???      02086         MOVFF   r0x0b, FSR0L
00021E C??? F???      02087         MOVFF   r0x0c, FSR0H
000222 C??? F???      02088         MOVFF   r0x04, INDF0
                      02089 ;       .line   172; /home/valentin/.icaro/firmware/tmp/servos.c        numservos=1;
000226 0E01           02090         MOVLW   0x01
000228 6E??           02091         MOVWF   r0x02
00022A D???           02092         BRA     _00328_DS_
00022C                02093 _00302_DS_:
                      02094 ;       .line   174; /home/valentin/.icaro/firmware/tmp/servos.c        else if (servovalues[s] == timin
                            gs[timevalue][t]){
00022C C??? F???      02095         MOVFF   r0x09, FSR0L
000230 C??? F???      02096         MOVFF   r0x0a, FSR0H
000234 CFEF F000      02097         MOVFF   INDF0, r0x09
000238 50??           02098         MOVF    r0x08, W
00023A 18??           02099         XORWF   r0x09, W
00023C E0??           02100         BZ      _00396_DS_
00023E D???           02101         BRA     _00328_DS_
000240                02102 _00396_DS_:
                      02103 ;       .line   175; /home/valentin/.icaro/firmware/tmp/servos.c        timings[MaskPort_A][t] |= servom
                            asks[s];
000240 0E??           02104         MOVLW   LOW(_timings + 36)
000242 24??           02105         ADDWF   r0x01, W
000244 6E??           02106         MOVWF   r0x04
000246 6A??           02107         CLRF    r0x05
000248 0E??           02108         MOVLW   HIGH(_timings + 36)
00024A 22??           02109         ADDWFC  r0x05, F
00024C C??? F???      02110         MOVFF   r0x04, FSR0L
000250 C??? F???      02111         MOVFF   r0x05, FSR0H
000254 CFEF F000      02112         MOVFF   INDF0, r0x06
000258 50??           02113         MOVF    r0x06, W
00025A 12??           02114         IORWF   r0x07, F
00025C C??? F???      02115         MOVFF   r0x04, FSR0L
000260 C??? F???      02116         MOVFF   r0x05, FSR0H
000264 C??? F???      02117         MOVFF   r0x07, INDF0
                      02118 ;       .line   176; /home/valentin/.icaro/firmware/tmp/servos.c        numservos++;
000268 2A??           02119         INCF    r0x02, F
00026A D???           02120         BRA     _00328_DS_
00026C                02121 _00316_DS_:
                      02122 ;       .line   181; /home/valentin/.icaro/firmware/tmp/servos.c        if (servomasks[s] & mascaratotal
                            [MaskPort_C] & activatedservos[MaskPort_C]){ 
00026C 0E??           02123         MOVLW   LOW(_servomasks)
00026E 24??           02124         ADDWF   r0x03, W
000270 6E??           02125         MOVWF   r0x04
000272 6A??           02126         CLRF    r0x05
000274 0E??           02127         MOVLW   HIGH(_servomasks)
000276 22??           02128         ADDWFC  r0x05, F
gpasm-1.2.0 #980 (Aug 15 2013) /home/valentin   4-23-2015  13:22:04         PAGE 43


LOC  OBJECT CODE     LINE SOURCE TEXT
  VALUE

000278 6A??           02129         CLRF    r0x06
00027A 0E??           02130         MOVLW   UPPER(_servomasks)
00027C 22??           02131         ADDWFC  r0x06, F
00027E C??? F???      02132         MOVFF   r0x04, TBLPTRL
000282 C??? F???      02133         MOVFF   r0x05, TBLPTRH
000286 C??? F???      02134         MOVFF   r0x06, TBLPTRU
00028A 0009           02135         TBLRD*+ 
00028C CFF5 F000      02136         MOVFF   TABLAT, r0x07
000290 ????           02137         BANKSEL (_SortServoTimings_mascaratotal_1_27 + 1)
000292 51??           02138         MOVF    (_SortServoTimings_mascaratotal_1_27 + 1), W, B
000294 14??           02139         ANDWF   r0x07, W
000296 6E??           02140         MOVWF   r0x08
000298 ????           02141         BANKSEL (_activatedservos + 1)
00029A 51??           02142         MOVF    (_activatedservos + 1), W, B
00029C 16??           02143         ANDWF   r0x08, F
00029E 50??           02144         MOVF    r0x08, W
0002A0 A4D8           02145         BTFSS   STATUS, 2
0002A2 D???           02146         BRA     _00328_DS_
                      02147 ;       .line   183; /home/valentin/.icaro/firmware/tmp/servos.c        else if (servovalues[s] < timing
                            s[timevalue][t]){
0002A4 0E??           02148         MOVLW   LOW(_servovalues)
0002A6 24??           02149         ADDWF   r0x03, W
0002A8 6E??           02150         MOVWF   r0x08
0002AA 6A??           02151         CLRF    r0x09
0002AC 0E??           02152         MOVLW   HIGH(_servovalues)
0002AE 22??           02153         ADDWFC  r0x09, F
0002B0 C??? F???      02154         MOVFF   r0x08, FSR0L
0002B4 C??? F???      02155         MOVFF   r0x09, FSR0H
0002B8 CFEF F000      02156         MOVFF   INDF0, r0x08
0002BC 0E??           02157         MOVLW   LOW(_timings + 54)
0002BE 24??           02158         ADDWF   r0x01, W
0002C0 6E??           02159         MOVWF   r0x09
0002C2 6A??           02160         CLRF    r0x0a
0002C4 0E??           02161         MOVLW   HIGH(_timings + 54)
0002C6 22??           02162         ADDWFC  r0x0a, F
0002C8 C??? F???      02163         MOVFF   r0x09, FSR0L
0002CC C??? F???      02164         MOVFF   r0x0a, FSR0H
0002D0 CFEF F000      02165         MOVFF   INDF0, r0x0b
0002D4 50??           02166         MOVF    r0x0b, W
0002D6 5C??           02167         SUBWF   r0x08, W
0002D8 E2??           02168         BC      _00310_DS_
                      02169 ;       .line   184; /home/valentin/.icaro/firmware/tmp/servos.c        timings[timevalue][t]=servovalue
                            s[s];
0002DA C??? F???      02170         MOVFF   r0x09, FSR0L
0002DE C??? F???      02171         MOVFF   r0x0a, FSR0H
0002E2 C??? F???      02172         MOVFF   r0x08, INDF0
                      02173 ;       .line   186; /home/valentin/.icaro/firmware/tmp/servos.c        timings[MaskPort_C][t]=servomask
                            s[s];
0002E6 0E??           02174         MOVLW   LOW(_timings + 18)
0002E8 24??           02175         ADDWF   r0x01, W
0002EA 6E??           02176         MOVWF   r0x0b
0002EC 6A??           02177         CLRF    r0x0c
0002EE 0E??           02178         MOVLW   HIGH(_timings + 18)
gpasm-1.2.0 #980 (Aug 15 2013) /home/valentin   4-23-2015  13:22:04         PAGE 44


LOC  OBJECT CODE     LINE SOURCE TEXT
  VALUE

0002F0 22??           02179         ADDWFC  r0x0c, F
0002F2 C??? F???      02180         MOVFF   r0x04, TBLPTRL
0002F6 C??? F???      02181         MOVFF   r0x05, TBLPTRH
0002FA C??? F???      02182         MOVFF   r0x06, TBLPTRU
0002FE 0009           02183         TBLRD*+ 
000300 CFF5 F000      02184         MOVFF   TABLAT, r0x04
000304 C??? F???      02185         MOVFF   r0x0b, FSR0L
000308 C??? F???      02186         MOVFF   r0x0c, FSR0H
00030C C??? F???      02187         MOVFF   r0x04, INDF0
                      02188 ;       .line   187; /home/valentin/.icaro/firmware/tmp/servos.c        timings[MaskPort_A][t]=0x00;
000310 0E??           02189         MOVLW   LOW(_timings + 36)
000312 24??           02190         ADDWF   r0x01, W
000314 6E??           02191         MOVWF   r0x04
000316 6A??           02192         CLRF    r0x05
000318 0E??           02193         MOVLW   HIGH(_timings + 36)
00031A 22??           02194         ADDWFC  r0x05, F
00031C C??? F???      02195         MOVFF   r0x04, FSR0L
000320 C??? F???      02196         MOVFF   r0x05, FSR0H
000324 6AEF           02197         CLRF    INDF0
                      02198 ;       .line   188; /home/valentin/.icaro/firmware/tmp/servos.c        numservos=1;
000326 0E01           02199         MOVLW   0x01
000328 6E??           02200         MOVWF   r0x02
00032A D???           02201         BRA     _00328_DS_
00032C                02202 _00310_DS_:
                      02203 ;       .line   190; /home/valentin/.icaro/firmware/tmp/servos.c        else if (servovalues[s] == timin
                            gs [timevalue][t]){
00032C C??? F???      02204         MOVFF   r0x09, FSR0L
000330 C??? F???      02205         MOVFF   r0x0a, FSR0H
000334 CFEF F000      02206         MOVFF   INDF0, r0x09
000338 50??           02207         MOVF    r0x08, W
00033A 18??           02208         XORWF   r0x09, W
00033C E1??           02209         BNZ     _00328_DS_
                      02210 ;       .line   191; /home/valentin/.icaro/firmware/tmp/servos.c        timings[MaskPort_C][t] |= servom
                            asks[s];
00033E 0E??           02211         MOVLW   LOW(_timings + 18)
000340 24??           02212         ADDWF   r0x01, W
000342 6E??           02213         MOVWF   r0x04
000344 6A??           02214         CLRF    r0x05
000346 0E??           02215         MOVLW   HIGH(_timings + 18)
000348 22??           02216         ADDWFC  r0x05, F
00034A C??? F???      02217         MOVFF   r0x04, FSR0L
00034E C??? F???      02218         MOVFF   r0x05, FSR0H
000352 CFEF F000      02219         MOVFF   INDF0, r0x06
000356 50??           02220         MOVF    r0x06, W
000358 12??           02221         IORWF   r0x07, F
00035A C??? F???      02222         MOVFF   r0x04, FSR0L
00035E C??? F???      02223         MOVFF   r0x05, FSR0H
000362 C??? F???      02224         MOVFF   r0x07, INDF0
                      02225 ;       .line   192; /home/valentin/.icaro/firmware/tmp/servos.c        numservos++;
000366 2A??           02226         INCF    r0x02, F
000368                02227 _00328_DS_:
                      02228 ;       .line   146; /home/valentin/.icaro/firmware/tmp/servos.c        for(s=0;s<18;s++) { 
000368 2A??           02229         INCF    r0x03, F
gpasm-1.2.0 #980 (Aug 15 2013) /home/valentin   4-23-2015  13:22:04         PAGE 45


LOC  OBJECT CODE     LINE SOURCE TEXT
  VALUE

00036A 0E12           02230         MOVLW   0x12
00036C 5C??           02231         SUBWF   r0x03, W
00036E A0D8           02232         BTFSS   STATUS, 0
000370 D???           02233         BRA     _00327_DS_
                      02234 ;       .line   198; /home/valentin/.icaro/firmware/tmp/servos.c        mascaratotal[MaskPort_C] |= timi
                            ngs[MaskPort_C][t];
000372 0E??           02235         MOVLW   LOW(_timings + 18)
000374 24??           02236         ADDWF   r0x01, W
000376 6E??           02237         MOVWF   r0x03
000378 6A??           02238         CLRF    r0x04
00037A 0E??           02239         MOVLW   HIGH(_timings + 18)
00037C 22??           02240         ADDWFC  r0x04, F
00037E C??? F???      02241         MOVFF   r0x03, FSR0L
000382 C??? F???      02242         MOVFF   r0x04, FSR0H
000386 CFEF F000      02243         MOVFF   INDF0, r0x03
00038A ????           02244         BANKSEL (_SortServoTimings_mascaratotal_1_27 + 1)
00038C 51??           02245         MOVF    (_SortServoTimings_mascaratotal_1_27 + 1), W, B
00038E 12??           02246         IORWF   r0x03, F
000390 50??           02247         MOVF    r0x03, W
                      02248 ; removed redundant BANKSEL
000392 6F??           02249         MOVWF   (_SortServoTimings_mascaratotal_1_27 + 1), B
                      02250 ;       .line   199; /home/valentin/.icaro/firmware/tmp/servos.c        mascaratotal[MaskPort_A] |= timi
                            ngs[MaskPort_A][t];
000394 0E??           02251         MOVLW   LOW(_timings + 36)
000396 24??           02252         ADDWF   r0x01, W
000398 6E??           02253         MOVWF   r0x03
00039A 6A??           02254         CLRF    r0x04
00039C 0E??           02255         MOVLW   HIGH(_timings + 36)
00039E 22??           02256         ADDWFC  r0x04, F
0003A0 C??? F???      02257         MOVFF   r0x03, FSR0L
0003A4 C??? F???      02258         MOVFF   r0x04, FSR0H
0003A8 CFEF F000      02259         MOVFF   INDF0, r0x03
                      02260 ; removed redundant BANKSEL
0003AC 51??           02261         MOVF    (_SortServoTimings_mascaratotal_1_27 + 2), W, B
0003AE 12??           02262         IORWF   r0x03, F
0003B0 50??           02263         MOVF    r0x03, W
                      02264 ; removed redundant BANKSEL
0003B2 6F??           02265         MOVWF   (_SortServoTimings_mascaratotal_1_27 + 2), B
                      02266 ;       .line   200; /home/valentin/.icaro/firmware/tmp/servos.c        totalservos += numservos;
0003B4 50??           02267         MOVF    r0x02, W
0003B6 26??           02268         ADDWF   r0x00, F
                      02269 ;       .line   201; /home/valentin/.icaro/firmware/tmp/servos.c        t++;
0003B8 2A??           02270         INCF    r0x01, F
0003BA D???           02271         BRA     _00322_DS_
0003BC                02272 _00324_DS_:
0003BC ????           02273         BANKSEL _needreordering
                      02274 ;       .line   204; /home/valentin/.icaro/firmware/tmp/servos.c        needreordering=0;  // This indic
                            ates that servo timings is ordered.     
0003BE 6B??           02275         CLRF    _needreordering, B
0003C0 CFE4 F000      02276         MOVFF   PREINC1, r0x0c
0003C4 CFE4 F000      02277         MOVFF   PREINC1, r0x0b
0003C8 CFE4 F000      02278         MOVFF   PREINC1, r0x0a
0003CC CFE4 F000      02279         MOVFF   PREINC1, r0x09
gpasm-1.2.0 #980 (Aug 15 2013) /home/valentin   4-23-2015  13:22:04         PAGE 46


LOC  OBJECT CODE     LINE SOURCE TEXT
  VALUE

0003D0 CFE4 F000      02280         MOVFF   PREINC1, r0x08
0003D4 CFE4 F000      02281         MOVFF   PREINC1, r0x07
0003D8 CFE4 F000      02282         MOVFF   PREINC1, r0x06
0003DC CFE4 F000      02283         MOVFF   PREINC1, r0x05
0003E0 CFE4 F000      02284         MOVFF   PREINC1, r0x04
0003E4 CFE4 F000      02285         MOVFF   PREINC1, r0x03
0003E8 CFE4 F000      02286         MOVFF   PREINC1, r0x02
0003EC CFE4 F000      02287         MOVFF   PREINC1, r0x01
0003F0 CFE4 F000      02288         MOVFF   PREINC1, r0x00
0003F4 0012           02289         RETURN  
                      02290 
                      02291 ; ; Starting pCode block
                      02292 S_main__ServosPulseUp   code
000000                02293 _ServosPulseUp:
                      02294 ;       .line   120; /home/valentin/.icaro/firmware/tmp/servos.c        PORTC = activatedservos[MaskPort
                            _C] & 0xFF;
000000 C??? F???      02295         MOVFF   (_activatedservos + 1), _PORTC
                      02296 ;       .line   121; /home/valentin/.icaro/firmware/tmp/servos.c        PORTA = activatedservos[MaskPort
                            _A] & 0xFF;     
000004 C??? F???      02297         MOVFF   (_activatedservos + 2), _PORTA
000008 0012           02298         RETURN  
                      02299 
                      02300 ; ; Starting pCode block
                      02301 S_main__ServosPulseDown code
000000                02302 _ServosPulseDown:
                      02303 ;       .line   92; /home/valentin/.icaro/firmware/tmp/servos.c static void ServosPulseDown()
000000 CFD9 FFE5      02304         MOVFF   FSR2L, POSTDEC1
000004 CFE1 FFD9      02305         MOVFF   FSR1L, FSR2L
000008 C??? F???      02306         MOVFF   r0x00, POSTDEC1
00000C C??? F???      02307         MOVFF   r0x01, POSTDEC1
000010 ????           02308         BANKSEL _timingindex
                      02309 ;       .line   94; /home/valentin/.icaro/firmware/tmp/servos.c timingindex = 0;
000012 6B??           02310         CLRF    _timingindex, B
000014 ????           02311         BANKSEL _timedivision
                      02312 ;       .line   96; /home/valentin/.icaro/firmware/tmp/servos.c for(timedivision=0;timedivision < 251;ti
                            medivision++){
000016 6B??           02313         CLRF    _timedivision, B
000018                02314 _00266_DS_:
                      02315 ;       .line   97; /home/valentin/.icaro/firmware/tmp/servos.c if (timings[timevalue][timingindex] == t
                            imedivision){
000018 C??? F???      02316         MOVFF   _timingindex, r0x00
00001C 6A??           02317         CLRF    r0x01
00001E 0E??           02318         MOVLW   LOW(_timings + 54)
000020 26??           02319         ADDWF   r0x00, F
000022 0E??           02320         MOVLW   HIGH(_timings + 54)
000024 22??           02321         ADDWFC  r0x01, F
000026 C??? F???      02322         MOVFF   r0x00, FSR0L
00002A C??? F???      02323         MOVFF   r0x01, FSR0H
00002E CFEF F000      02324         MOVFF   INDF0, r0x00
000032 50??           02325         MOVF    r0x00, W
000034 ????           02326         BANKSEL _timedivision
000036 19??           02327         XORWF   _timedivision, W, B
000038 E1??           02328         BNZ     _00264_DS_
gpasm-1.2.0 #980 (Aug 15 2013) /home/valentin   4-23-2015  13:22:04         PAGE 47


LOC  OBJECT CODE     LINE SOURCE TEXT
  VALUE

                      02329 ;       .line   99; /home/valentin/.icaro/firmware/tmp/servos.c PORTC = PORTC ^ timings[MaskPort_C][timi
                            ngindex];
00003A C??? F???      02330         MOVFF   _timingindex, r0x00
00003E 6A??           02331         CLRF    r0x01
000040 0E??           02332         MOVLW   LOW(_timings + 18)
000042 26??           02333         ADDWF   r0x00, F
000044 0E??           02334         MOVLW   HIGH(_timings + 18)
000046 22??           02335         ADDWFC  r0x01, F
000048 C??? F???      02336         MOVFF   r0x00, FSR0L
00004C C??? F???      02337         MOVFF   r0x01, FSR0H
000050 CFEF F000      02338         MOVFF   INDF0, r0x00
000054 50??           02339         MOVF    r0x00, W
000056 1A??           02340         XORWF   _PORTC, F
                      02341 ;       .line   100; /home/valentin/.icaro/firmware/tmp/servos.c        PORTA = PORTA ^ timings[MaskPort
                            _A][timingindex];
000058 C??? F???      02342         MOVFF   _timingindex, r0x00
00005C 6A??           02343         CLRF    r0x01
00005E 0E??           02344         MOVLW   LOW(_timings + 36)
000060 26??           02345         ADDWF   r0x00, F
000062 0E??           02346         MOVLW   HIGH(_timings + 36)
000064 22??           02347         ADDWFC  r0x01, F
000066 C??? F???      02348         MOVFF   r0x00, FSR0L
00006A C??? F???      02349         MOVFF   r0x01, FSR0H
00006E CFEF F000      02350         MOVFF   INDF0, r0x00
000072 50??           02351         MOVF    r0x00, W
000074 1A??           02352         XORWF   _PORTA, F
000076 ????           02353         BANKSEL _timingindex
                      02354 ;       .line   101; /home/valentin/.icaro/firmware/tmp/servos.c        timingindex++;
000078 2B??           02355         INCF    _timingindex, F, B
00007A                02356 _00264_DS_:
00007A 0E0C           02357         movlw 12
00007C 6E??           02358         movwf _loopvar
00007E                02359 bucle:
00007E 0000           02360         NOP
000080 2E??           02361         decfsz _loopvar,1
000082 EF?? F0??      02362         goto bucle
                      02363         
000086 ????           02364         BANKSEL _timedivision
                      02365 ;       .line   96; /home/valentin/.icaro/firmware/tmp/servos.c for(timedivision=0;timedivision < 251;ti
                            medivision++){
000088 2B??           02366         INCF    _timedivision, F, B
00008A 0EFB           02367         MOVLW   0xfb
                      02368 ; removed redundant BANKSEL
00008C 5D??           02369         SUBWF   _timedivision, W, B
00008E A0D8           02370         BTFSS   STATUS, 0
000090 D???           02371         BRA     _00266_DS_
000092 CFE4 F000      02372         MOVFF   PREINC1, r0x01
000096 CFE4 F000      02373         MOVFF   PREINC1, r0x00
00009A CFE4 FFD9      02374         MOVFF   PREINC1, FSR2L
00009E 0012           02375         RETURN  
                      02376 
                      02377 ; ; Starting pCode block
                      02378 S_main__servos_init     code
gpasm-1.2.0 #980 (Aug 15 2013) /home/valentin   4-23-2015  13:22:04         PAGE 48


LOC  OBJECT CODE     LINE SOURCE TEXT
  VALUE

000000                02379 _servos_init:
                      02380 ;       .line   71; /home/valentin/.icaro/firmware/tmp/servos.c void servos_init()
000000 C??? F???      02381         MOVFF   r0x00, POSTDEC1
000004 C??? F???      02382         MOVFF   r0x01, POSTDEC1
000008 C??? F???      02383         MOVFF   r0x02, POSTDEC1
                      02384 ;       .line   75; /home/valentin/.icaro/firmware/tmp/servos.c for(a=0;a<18;a++) servovalues[a]=255;
00000C 6A??           02385         CLRF    r0x00
00000E                02386 _00247_DS_:
00000E 0E??           02387         MOVLW   LOW(_servovalues)
000010 24??           02388         ADDWF   r0x00, W
000012 6E??           02389         MOVWF   r0x01
000014 6A??           02390         CLRF    r0x02
000016 0E??           02391         MOVLW   HIGH(_servovalues)
000018 22??           02392         ADDWFC  r0x02, F
00001A C??? F???      02393         MOVFF   r0x01, FSR0L
00001E C??? F???      02394         MOVFF   r0x02, FSR0H
000022 68EF           02395         SETF    INDF0
000024 2A??           02396         INCF    r0x00, F
000026 0E12           02397         MOVLW   0x12
000028 5C??           02398         SUBWF   r0x00, W
00002A E3??           02399         BNC     _00247_DS_
                      02400 ;       .line   78; /home/valentin/.icaro/firmware/tmp/servos.c TMR1H=0xFF;
00002C 68??           02401         SETF    _TMR1H
                      02402 ;       .line   79; /home/valentin/.icaro/firmware/tmp/servos.c TMR1L=0x00;
00002E 6A??           02403         CLRF    _TMR1L
                      02404 ;       .line   81; /home/valentin/.icaro/firmware/tmp/servos.c T1CON=0x01;
000030 0E01           02405         MOVLW   0x01
000032 6E??           02406         MOVWF   _T1CON
                      02407 ;       .line   83; /home/valentin/.icaro/firmware/tmp/servos.c PIE1bits.TMR1IE=1;
000034 80??           02408         BSF     _PIE1bits, 0
                      02409 ;       .line   85; /home/valentin/.icaro/firmware/tmp/servos.c INTCONbits.PEIE=1;
000036 8C??           02410         BSF     _INTCONbits, 6
                      02411 ;       .line   87; /home/valentin/.icaro/firmware/tmp/servos.c INTCONbits.GIE=1;
000038 8E??           02412         BSF     _INTCONbits, 7
00003A CFE4 F000      02413         MOVFF   PREINC1, r0x02
00003E CFE4 F000      02414         MOVFF   PREINC1, r0x01
000042 CFE4 F000      02415         MOVFF   PREINC1, r0x00
000046 0012           02416         RETURN  
                      02417 
                      02418 ; ; Starting pCode block
                      02419 S_main__pinmode code
000000                02420 _pinmode:
                      02421 ;       .line   69; /home/valentin/.icaro/firmware/tmp/digitalw.c       void pinmode(int input, int stat
                            e)
000000 CFD9 FFE5      02422         MOVFF   FSR2L, POSTDEC1
000004 CFE1 FFD9      02423         MOVFF   FSR1L, FSR2L
000008 C??? F???      02424         MOVFF   r0x00, POSTDEC1
00000C C??? F???      02425         MOVFF   r0x01, POSTDEC1
000010 C??? F???      02426         MOVFF   r0x02, POSTDEC1
000014 C??? F???      02427         MOVFF   r0x03, POSTDEC1
000018 C??? F???      02428         MOVFF   r0x04, POSTDEC1
00001C C??? F???      02429         MOVFF   r0x05, POSTDEC1
000020 C??? F???      02430         MOVFF   r0x06, POSTDEC1
gpasm-1.2.0 #980 (Aug 15 2013) /home/valentin   4-23-2015  13:22:04         PAGE 49


LOC  OBJECT CODE     LINE SOURCE TEXT
  VALUE

000024 0E02           02431         MOVLW   0x02
000026 CFDB F000      02432         MOVFF   PLUSW2, r0x00
00002A 0E03           02433         MOVLW   0x03
00002C CFDB F000      02434         MOVFF   PLUSW2, r0x01
000030 0E04           02435         MOVLW   0x04
000032 CFDB F000      02436         MOVFF   PLUSW2, r0x02
000036 0E05           02437         MOVLW   0x05
000038 CFDB F000      02438         MOVFF   PLUSW2, r0x03
                      02439 ;       .line   71; /home/valentin/.icaro/firmware/tmp/digitalw.c       switch (port[input])
00003C 0E??           02440         MOVLW   LOW(_port)
00003E 24??           02441         ADDWF   r0x00, W
000040 6E??           02442         MOVWF   r0x04
000042 0E??           02443         MOVLW   HIGH(_port)
000044 20??           02444         ADDWFC  r0x01, W
000046 6E??           02445         MOVWF   r0x05
000048 6A??           02446         CLRF    r0x06
00004A BE??           02447         BTFSC   r0x01, 7
00004C 68??           02448         SETF    r0x06
00004E 0E??           02449         MOVLW   UPPER(_port)
000050 22??           02450         ADDWFC  r0x06, F
000052 C??? F???      02451         MOVFF   r0x04, TBLPTRL
000056 C??? F???      02452         MOVFF   r0x05, TBLPTRH
00005A C??? F???      02453         MOVFF   r0x06, TBLPTRU
00005E 0009           02454         TBLRD*+ 
000060 CFF5 F000      02455         MOVFF   TABLAT, r0x04
000064 0E05           02456         MOVLW   0x05
000066 5C??           02457         SUBWF   r0x04, W
000068 B0D8           02458         BTFSC   STATUS, 0
00006A D???           02459         BRA     _00220_DS_
00006C 6AFA           02460         CLRF    PCLATH
00006E 6AFB           02461         CLRF    PCLATU
000070 34??           02462         RLCF    r0x04, W
000072 36FA           02463         RLCF    PCLATH, F
000074 34E8           02464         RLCF    WREG, W
000076 36FA           02465         RLCF    PCLATH, F
000078 0BFC           02466         ANDLW   0xfc
00007A 0F??           02467         ADDLW   LOW(_00241_DS_)
00007C 6EE5           02468         MOVWF   POSTDEC1
00007E 0E??           02469         MOVLW   HIGH(_00241_DS_)
000080 22FA           02470         ADDWFC  PCLATH, F
000082 0E??           02471         MOVLW   UPPER(_00241_DS_)
000084 22FB           02472         ADDWFC  PCLATU, F
000086 50E4           02473         MOVF    PREINC1, W
000088 6EF9           02474         MOVWF   PCL
00008A                02475 _00241_DS_:
00008A EF?? F0??      02476         GOTO    _00199_DS_
00008E EF?? F0??      02477         GOTO    _00203_DS_
000092 EF?? F0??      02478         GOTO    _00207_DS_
000096 EF?? F0??      02479         GOTO    _00211_DS_
00009A EF?? F0??      02480         GOTO    _00215_DS_
00009E                02481 _00199_DS_:
                      02482 ;       .line   73; /home/valentin/.icaro/firmware/tmp/digitalw.c       case 0: if (state) TRISB=TRISB |
                             mask[input];
gpasm-1.2.0 #980 (Aug 15 2013) /home/valentin   4-23-2015  13:22:04         PAGE 50


LOC  OBJECT CODE     LINE SOURCE TEXT
  VALUE

00009E 50??           02483         MOVF    r0x02, W
0000A0 10??           02484         IORWF   r0x03, W
0000A2 E0??           02485         BZ      _00201_DS_
0000A4 0E??           02486         MOVLW   LOW(_mask)
0000A6 24??           02487         ADDWF   r0x00, W
0000A8 6E??           02488         MOVWF   r0x04
0000AA 0E??           02489         MOVLW   HIGH(_mask)
0000AC 20??           02490         ADDWFC  r0x01, W
0000AE 6E??           02491         MOVWF   r0x05
0000B0 6A??           02492         CLRF    r0x06
0000B2 BE??           02493         BTFSC   r0x01, 7
0000B4 68??           02494         SETF    r0x06
0000B6 0E??           02495         MOVLW   UPPER(_mask)
0000B8 22??           02496         ADDWFC  r0x06, F
0000BA C??? F???      02497         MOVFF   r0x04, TBLPTRL
0000BE C??? F???      02498         MOVFF   r0x05, TBLPTRH
0000C2 C??? F???      02499         MOVFF   r0x06, TBLPTRU
0000C6 0009           02500         TBLRD*+ 
0000C8 CFF5 F000      02501         MOVFF   TABLAT, r0x04
0000CC 50??           02502         MOVF    r0x04, W
0000CE 12??           02503         IORWF   _TRISB, F
0000D0 D???           02504         BRA     _00220_DS_
0000D2                02505 _00201_DS_:
                      02506 ;       .line   74; /home/valentin/.icaro/firmware/tmp/digitalw.c       else TRISB=TRISB & (255-mask[inp
                            ut]);
0000D2 0E??           02507         MOVLW   LOW(_mask)
0000D4 24??           02508         ADDWF   r0x00, W
0000D6 6E??           02509         MOVWF   r0x04
0000D8 0E??           02510         MOVLW   HIGH(_mask)
0000DA 20??           02511         ADDWFC  r0x01, W
0000DC 6E??           02512         MOVWF   r0x05
0000DE 6A??           02513         CLRF    r0x06
0000E0 BE??           02514         BTFSC   r0x01, 7
0000E2 68??           02515         SETF    r0x06
0000E4 0E??           02516         MOVLW   UPPER(_mask)
0000E6 22??           02517         ADDWFC  r0x06, F
0000E8 C??? F???      02518         MOVFF   r0x04, TBLPTRL
0000EC C??? F???      02519         MOVFF   r0x05, TBLPTRH
0000F0 C??? F???      02520         MOVFF   r0x06, TBLPTRU
0000F4 0009           02521         TBLRD*+ 
0000F6 CFF5 F000      02522         MOVFF   TABLAT, r0x04
0000FA 50??           02523         MOVF    r0x04, W
0000FC 08FF           02524         SUBLW   0xff
                      02525 ; #     MOVWF   r0x04
                      02526 ; #     MOVF    r0x04, W
0000FE 16??           02527         ANDWF   _TRISB, F
                      02528 ;       .line   75; /home/valentin/.icaro/firmware/tmp/digitalw.c       break;
000100 D???           02529         BRA     _00220_DS_
000102                02530 _00203_DS_:
                      02531 ;       .line   76; /home/valentin/.icaro/firmware/tmp/digitalw.c       case 1: if (state) TRISC=TRISC |
                             mask[input];
000102 50??           02532         MOVF    r0x02, W
000104 10??           02533         IORWF   r0x03, W
gpasm-1.2.0 #980 (Aug 15 2013) /home/valentin   4-23-2015  13:22:04         PAGE 51


LOC  OBJECT CODE     LINE SOURCE TEXT
  VALUE

000106 E0??           02534         BZ      _00205_DS_
000108 0E??           02535         MOVLW   LOW(_mask)
00010A 24??           02536         ADDWF   r0x00, W
00010C 6E??           02537         MOVWF   r0x04
00010E 0E??           02538         MOVLW   HIGH(_mask)
000110 20??           02539         ADDWFC  r0x01, W
000112 6E??           02540         MOVWF   r0x05
000114 6A??           02541         CLRF    r0x06
000116 BE??           02542         BTFSC   r0x01, 7
000118 68??           02543         SETF    r0x06
00011A 0E??           02544         MOVLW   UPPER(_mask)
00011C 22??           02545         ADDWFC  r0x06, F
00011E C??? F???      02546         MOVFF   r0x04, TBLPTRL
000122 C??? F???      02547         MOVFF   r0x05, TBLPTRH
000126 C??? F???      02548         MOVFF   r0x06, TBLPTRU
00012A 0009           02549         TBLRD*+ 
00012C CFF5 F000      02550         MOVFF   TABLAT, r0x04
000130 50??           02551         MOVF    r0x04, W
000132 12??           02552         IORWF   _TRISC, F
000134 D???           02553         BRA     _00220_DS_
000136                02554 _00205_DS_:
                      02555 ;       .line   77; /home/valentin/.icaro/firmware/tmp/digitalw.c       else TRISC=TRISC & (255-mask[inp
                            ut]);
000136 0E??           02556         MOVLW   LOW(_mask)
000138 24??           02557         ADDWF   r0x00, W
00013A 6E??           02558         MOVWF   r0x04
00013C 0E??           02559         MOVLW   HIGH(_mask)
00013E 20??           02560         ADDWFC  r0x01, W
000140 6E??           02561         MOVWF   r0x05
000142 6A??           02562         CLRF    r0x06
000144 BE??           02563         BTFSC   r0x01, 7
000146 68??           02564         SETF    r0x06
000148 0E??           02565         MOVLW   UPPER(_mask)
00014A 22??           02566         ADDWFC  r0x06, F
00014C C??? F???      02567         MOVFF   r0x04, TBLPTRL
000150 C??? F???      02568         MOVFF   r0x05, TBLPTRH
000154 C??? F???      02569         MOVFF   r0x06, TBLPTRU
000158 0009           02570         TBLRD*+ 
00015A CFF5 F000      02571         MOVFF   TABLAT, r0x04
00015E 50??           02572         MOVF    r0x04, W
000160 08FF           02573         SUBLW   0xff
                      02574 ; #     MOVWF   r0x04
                      02575 ; #     MOVF    r0x04, W
000162 16??           02576         ANDWF   _TRISC, F
                      02577 ;       .line   78; /home/valentin/.icaro/firmware/tmp/digitalw.c       break;
000164 D???           02578         BRA     _00220_DS_
000166                02579 _00207_DS_:
                      02580 ;       .line   79; /home/valentin/.icaro/firmware/tmp/digitalw.c       case 2: if (state) TRISA=TRISA |
                             mask[input];
000166 50??           02581         MOVF    r0x02, W
000168 10??           02582         IORWF   r0x03, W
00016A E0??           02583         BZ      _00209_DS_
00016C 0E??           02584         MOVLW   LOW(_mask)
gpasm-1.2.0 #980 (Aug 15 2013) /home/valentin   4-23-2015  13:22:04         PAGE 52


LOC  OBJECT CODE     LINE SOURCE TEXT
  VALUE

00016E 24??           02585         ADDWF   r0x00, W
000170 6E??           02586         MOVWF   r0x04
000172 0E??           02587         MOVLW   HIGH(_mask)
000174 20??           02588         ADDWFC  r0x01, W
000176 6E??           02589         MOVWF   r0x05
000178 6A??           02590         CLRF    r0x06
00017A BE??           02591         BTFSC   r0x01, 7
00017C 68??           02592         SETF    r0x06
00017E 0E??           02593         MOVLW   UPPER(_mask)
000180 22??           02594         ADDWFC  r0x06, F
000182 C??? F???      02595         MOVFF   r0x04, TBLPTRL
000186 C??? F???      02596         MOVFF   r0x05, TBLPTRH
00018A C??? F???      02597         MOVFF   r0x06, TBLPTRU
00018E 0009           02598         TBLRD*+ 
000190 CFF5 F000      02599         MOVFF   TABLAT, r0x04
000194 50??           02600         MOVF    r0x04, W
000196 12??           02601         IORWF   _TRISA, F
000198 D???           02602         BRA     _00220_DS_
00019A                02603 _00209_DS_:
                      02604 ;       .line   80; /home/valentin/.icaro/firmware/tmp/digitalw.c       else TRISA=TRISA & (255-mask[inp
                            ut]);
00019A 0E??           02605         MOVLW   LOW(_mask)
00019C 24??           02606         ADDWF   r0x00, W
00019E 6E??           02607         MOVWF   r0x04
0001A0 0E??           02608         MOVLW   HIGH(_mask)
0001A2 20??           02609         ADDWFC  r0x01, W
0001A4 6E??           02610         MOVWF   r0x05
0001A6 6A??           02611         CLRF    r0x06
0001A8 BE??           02612         BTFSC   r0x01, 7
0001AA 68??           02613         SETF    r0x06
0001AC 0E??           02614         MOVLW   UPPER(_mask)
0001AE 22??           02615         ADDWFC  r0x06, F
0001B0 C??? F???      02616         MOVFF   r0x04, TBLPTRL
0001B4 C??? F???      02617         MOVFF   r0x05, TBLPTRH
0001B8 C??? F???      02618         MOVFF   r0x06, TBLPTRU
0001BC 0009           02619         TBLRD*+ 
0001BE CFF5 F000      02620         MOVFF   TABLAT, r0x04
0001C2 50??           02621         MOVF    r0x04, W
0001C4 08FF           02622         SUBLW   0xff
                      02623 ; #     MOVWF   r0x04
                      02624 ; #     MOVF    r0x04, W
0001C6 16??           02625         ANDWF   _TRISA, F
                      02626 ;       .line   81; /home/valentin/.icaro/firmware/tmp/digitalw.c       break;
0001C8 D???           02627         BRA     _00220_DS_
0001CA                02628 _00211_DS_:
                      02629 ;       .line   83; /home/valentin/.icaro/firmware/tmp/digitalw.c       case 3: if (state) TRISD=TRISD |
                             mask[input];
0001CA 50??           02630         MOVF    r0x02, W
0001CC 10??           02631         IORWF   r0x03, W
0001CE E0??           02632         BZ      _00213_DS_
0001D0 0E??           02633         MOVLW   LOW(_mask)
0001D2 24??           02634         ADDWF   r0x00, W
0001D4 6E??           02635         MOVWF   r0x04
gpasm-1.2.0 #980 (Aug 15 2013) /home/valentin   4-23-2015  13:22:04         PAGE 53


LOC  OBJECT CODE     LINE SOURCE TEXT
  VALUE

0001D6 0E??           02636         MOVLW   HIGH(_mask)
0001D8 20??           02637         ADDWFC  r0x01, W
0001DA 6E??           02638         MOVWF   r0x05
0001DC 6A??           02639         CLRF    r0x06
0001DE BE??           02640         BTFSC   r0x01, 7
0001E0 68??           02641         SETF    r0x06
0001E2 0E??           02642         MOVLW   UPPER(_mask)
0001E4 22??           02643         ADDWFC  r0x06, F
0001E6 C??? F???      02644         MOVFF   r0x04, TBLPTRL
0001EA C??? F???      02645         MOVFF   r0x05, TBLPTRH
0001EE C??? F???      02646         MOVFF   r0x06, TBLPTRU
0001F2 0009           02647         TBLRD*+ 
0001F4 CFF5 F000      02648         MOVFF   TABLAT, r0x04
0001F8 50??           02649         MOVF    r0x04, W
0001FA 12??           02650         IORWF   _TRISD, F
0001FC D???           02651         BRA     _00220_DS_
0001FE                02652 _00213_DS_:
                      02653 ;       .line   84; /home/valentin/.icaro/firmware/tmp/digitalw.c       else TRISD=TRISD & (255-mask[inp
                            ut]);
0001FE 0E??           02654         MOVLW   LOW(_mask)
000200 24??           02655         ADDWF   r0x00, W
000202 6E??           02656         MOVWF   r0x04
000204 0E??           02657         MOVLW   HIGH(_mask)
000206 20??           02658         ADDWFC  r0x01, W
000208 6E??           02659         MOVWF   r0x05
00020A 6A??           02660         CLRF    r0x06
00020C BE??           02661         BTFSC   r0x01, 7
00020E 68??           02662         SETF    r0x06
000210 0E??           02663         MOVLW   UPPER(_mask)
000212 22??           02664         ADDWFC  r0x06, F
000214 C??? F???      02665         MOVFF   r0x04, TBLPTRL
000218 C??? F???      02666         MOVFF   r0x05, TBLPTRH
00021C C??? F???      02667         MOVFF   r0x06, TBLPTRU
000220 0009           02668         TBLRD*+ 
000222 CFF5 F000      02669         MOVFF   TABLAT, r0x04
000226 50??           02670         MOVF    r0x04, W
000228 08FF           02671         SUBLW   0xff
                      02672 ; #     MOVWF   r0x04
                      02673 ; #     MOVF    r0x04, W
00022A 16??           02674         ANDWF   _TRISD, F
                      02675 ;       .line   85; /home/valentin/.icaro/firmware/tmp/digitalw.c       break;
00022C D???           02676         BRA     _00220_DS_
00022E                02677 _00215_DS_:
                      02678 ;       .line   86; /home/valentin/.icaro/firmware/tmp/digitalw.c       case 4: if (state) TRISE=TRISE |
                             mask[input];
00022E 50??           02679         MOVF    r0x02, W
000230 10??           02680         IORWF   r0x03, W
000232 E0??           02681         BZ      _00217_DS_
000234 0E??           02682         MOVLW   LOW(_mask)
000236 24??           02683         ADDWF   r0x00, W
000238 6E??           02684         MOVWF   r0x02
00023A 0E??           02685         MOVLW   HIGH(_mask)
00023C 20??           02686         ADDWFC  r0x01, W
gpasm-1.2.0 #980 (Aug 15 2013) /home/valentin   4-23-2015  13:22:04         PAGE 54


LOC  OBJECT CODE     LINE SOURCE TEXT
  VALUE

00023E 6E??           02687         MOVWF   r0x03
000240 6A??           02688         CLRF    r0x04
000242 BE??           02689         BTFSC   r0x01, 7
000244 68??           02690         SETF    r0x04
000246 0E??           02691         MOVLW   UPPER(_mask)
000248 22??           02692         ADDWFC  r0x04, F
00024A C??? F???      02693         MOVFF   r0x02, TBLPTRL
00024E C??? F???      02694         MOVFF   r0x03, TBLPTRH
000252 C??? F???      02695         MOVFF   r0x04, TBLPTRU
000256 0009           02696         TBLRD*+ 
000258 CFF5 F000      02697         MOVFF   TABLAT, r0x02
00025C 50??           02698         MOVF    r0x02, W
00025E 12??           02699         IORWF   _TRISE, F
000260 D???           02700         BRA     _00220_DS_
000262                02701 _00217_DS_:
                      02702 ;       .line   87; /home/valentin/.icaro/firmware/tmp/digitalw.c       else TRISE=TRISE & (255-mask[inp
                            ut]);
000262 6A??           02703         CLRF    r0x02
000264 BE??           02704         BTFSC   r0x01, 7
000266 68??           02705         SETF    r0x02
000268 0E??           02706         MOVLW   LOW(_mask)
00026A 26??           02707         ADDWF   r0x00, F
00026C 0E??           02708         MOVLW   HIGH(_mask)
00026E 22??           02709         ADDWFC  r0x01, F
000270 0E??           02710         MOVLW   UPPER(_mask)
000272 22??           02711         ADDWFC  r0x02, F
000274 C??? F???      02712         MOVFF   r0x00, TBLPTRL
000278 C??? F???      02713         MOVFF   r0x01, TBLPTRH
00027C C??? F???      02714         MOVFF   r0x02, TBLPTRU
000280 0009           02715         TBLRD*+ 
000282 CFF5 F000      02716         MOVFF   TABLAT, r0x00
000286 50??           02717         MOVF    r0x00, W
000288 08FF           02718         SUBLW   0xff
                      02719 ; #     MOVWF   r0x00
                      02720 ; #     MOVF    r0x00, W
00028A 16??           02721         ANDWF   _TRISE, F
00028C                02722 _00220_DS_:
                      02723 ;       .line   90; /home/valentin/.icaro/firmware/tmp/digitalw.c       }
00028C CFE4 F000      02724         MOVFF   PREINC1, r0x06
000290 CFE4 F000      02725         MOVFF   PREINC1, r0x05
000294 CFE4 F000      02726         MOVFF   PREINC1, r0x04
000298 CFE4 F000      02727         MOVFF   PREINC1, r0x03
00029C CFE4 F000      02728         MOVFF   PREINC1, r0x02
0002A0 CFE4 F000      02729         MOVFF   PREINC1, r0x01
0002A4 CFE4 F000      02730         MOVFF   PREINC1, r0x00
0002A8 CFE4 FFD9      02731         MOVFF   PREINC1, FSR2L
0002AC 0012           02732         RETURN  
                      02733 
                      02734 ; ; Starting pCode block
                      02735 S_main__digitalread     code
000000                02736 _digitalread:
                      02737 ;       .line   44; /home/valentin/.icaro/firmware/tmp/digitalw.c       int digitalread(int input)
000000 CFD9 FFE5      02738         MOVFF   FSR2L, POSTDEC1
gpasm-1.2.0 #980 (Aug 15 2013) /home/valentin   4-23-2015  13:22:04         PAGE 55


LOC  OBJECT CODE     LINE SOURCE TEXT
  VALUE

000004 CFE1 FFD9      02739         MOVFF   FSR1L, FSR2L
000008 C??? F???      02740         MOVFF   r0x00, POSTDEC1
00000C C??? F???      02741         MOVFF   r0x01, POSTDEC1
000010 C??? F???      02742         MOVFF   r0x02, POSTDEC1
000014 C??? F???      02743         MOVFF   r0x03, POSTDEC1
000018 C??? F???      02744         MOVFF   r0x04, POSTDEC1
00001C 0E02           02745         MOVLW   0x02
00001E CFDB F000      02746         MOVFF   PLUSW2, r0x00
000022 0E03           02747         MOVLW   0x03
000024 CFDB F000      02748         MOVFF   PLUSW2, r0x01
                      02749 ;       .line   46; /home/valentin/.icaro/firmware/tmp/digitalw.c       switch (port[input])
000028 0E??           02750         MOVLW   LOW(_port)
00002A 24??           02751         ADDWF   r0x00, W
00002C 6E??           02752         MOVWF   r0x02
00002E 0E??           02753         MOVLW   HIGH(_port)
000030 20??           02754         ADDWFC  r0x01, W
000032 6E??           02755         MOVWF   r0x03
000034 6A??           02756         CLRF    r0x04
000036 BE??           02757         BTFSC   r0x01, 7
000038 68??           02758         SETF    r0x04
00003A 0E??           02759         MOVLW   UPPER(_port)
00003C 22??           02760         ADDWFC  r0x04, F
00003E C??? F???      02761         MOVFF   r0x02, TBLPTRL
000042 C??? F???      02762         MOVFF   r0x03, TBLPTRH
000046 C??? F???      02763         MOVFF   r0x04, TBLPTRU
00004A 0009           02764         TBLRD*+ 
00004C CFF5 F000      02765         MOVFF   TABLAT, r0x02
000050 0E05           02766         MOVLW   0x05
000052 5C??           02767         SUBWF   r0x02, W
000054 B0D8           02768         BTFSC   STATUS, 0
000056 D???           02769         BRA     _00172_DS_
000058 6AFA           02770         CLRF    PCLATH
00005A 6AFB           02771         CLRF    PCLATU
00005C 34??           02772         RLCF    r0x02, W
00005E 36FA           02773         RLCF    PCLATH, F
000060 34E8           02774         RLCF    WREG, W
000062 36FA           02775         RLCF    PCLATH, F
000064 0BFC           02776         ANDLW   0xfc
000066 0F??           02777         ADDLW   LOW(_00194_DS_)
000068 6EE5           02778         MOVWF   POSTDEC1
00006A 0E??           02779         MOVLW   HIGH(_00194_DS_)
00006C 22FA           02780         ADDWFC  PCLATH, F
00006E 0E??           02781         MOVLW   UPPER(_00194_DS_)
000070 22FB           02782         ADDWFC  PCLATU, F
000072 50E4           02783         MOVF    PREINC1, W
000074 6EF9           02784         MOVWF   PCL
000076                02785 _00194_DS_:
000076 EF?? F0??      02786         GOTO    _00152_DS_
00007A EF?? F0??      02787         GOTO    _00156_DS_
00007E EF?? F0??      02788         GOTO    _00160_DS_
000082 EF?? F0??      02789         GOTO    _00164_DS_
000086 EF?? F0??      02790         GOTO    _00168_DS_
00008A                02791 _00152_DS_:
gpasm-1.2.0 #980 (Aug 15 2013) /home/valentin   4-23-2015  13:22:04         PAGE 56


LOC  OBJECT CODE     LINE SOURCE TEXT
  VALUE

                      02792 ;       .line   48; /home/valentin/.icaro/firmware/tmp/digitalw.c       case 0: if ((PORTB & mask[input]
                            )!=0) return (1);
00008A 0E??           02793         MOVLW   LOW(_mask)
00008C 24??           02794         ADDWF   r0x00, W
00008E 6E??           02795         MOVWF   r0x02
000090 0E??           02796         MOVLW   HIGH(_mask)
000092 20??           02797         ADDWFC  r0x01, W
000094 6E??           02798         MOVWF   r0x03
000096 6A??           02799         CLRF    r0x04
000098 BE??           02800         BTFSC   r0x01, 7
00009A 68??           02801         SETF    r0x04
00009C 0E??           02802         MOVLW   UPPER(_mask)
00009E 22??           02803         ADDWFC  r0x04, F
0000A0 C??? F???      02804         MOVFF   r0x02, TBLPTRL
0000A4 C??? F???      02805         MOVFF   r0x03, TBLPTRH
0000A8 C??? F???      02806         MOVFF   r0x04, TBLPTRU
0000AC 0009           02807         TBLRD*+ 
0000AE CFF5 F000      02808         MOVFF   TABLAT, r0x02
0000B2 50??           02809         MOVF    _PORTB, W
0000B4 16??           02810         ANDWF   r0x02, F
0000B6 50??           02811         MOVF    r0x02, W
0000B8 E0??           02812         BZ      _00154_DS_
0000BA 6AF3           02813         CLRF    PRODL
0000BC 0E01           02814         MOVLW   0x01
0000BE D???           02815         BRA     _00173_DS_
0000C0                02816 _00154_DS_:
                      02817 ;       .line   49; /home/valentin/.icaro/firmware/tmp/digitalw.c       else return (0);
0000C0 6AF3           02818         CLRF    PRODL
0000C2 6AE8           02819         CLRF    WREG
0000C4 D???           02820         BRA     _00173_DS_
0000C6                02821 _00156_DS_:
                      02822 ;       .line   51; /home/valentin/.icaro/firmware/tmp/digitalw.c       case 1: if ((PORTC & mask[input]
                            )!=0) return (1);
0000C6 0E??           02823         MOVLW   LOW(_mask)
0000C8 24??           02824         ADDWF   r0x00, W
0000CA 6E??           02825         MOVWF   r0x02
0000CC 0E??           02826         MOVLW   HIGH(_mask)
0000CE 20??           02827         ADDWFC  r0x01, W
0000D0 6E??           02828         MOVWF   r0x03
0000D2 6A??           02829         CLRF    r0x04
0000D4 BE??           02830         BTFSC   r0x01, 7
0000D6 68??           02831         SETF    r0x04
0000D8 0E??           02832         MOVLW   UPPER(_mask)
0000DA 22??           02833         ADDWFC  r0x04, F
0000DC C??? F???      02834         MOVFF   r0x02, TBLPTRL
0000E0 C??? F???      02835         MOVFF   r0x03, TBLPTRH
0000E4 C??? F???      02836         MOVFF   r0x04, TBLPTRU
0000E8 0009           02837         TBLRD*+ 
0000EA CFF5 F000      02838         MOVFF   TABLAT, r0x02
0000EE 50??           02839         MOVF    _PORTC, W
0000F0 16??           02840         ANDWF   r0x02, F
0000F2 50??           02841         MOVF    r0x02, W
0000F4 E0??           02842         BZ      _00158_DS_
gpasm-1.2.0 #980 (Aug 15 2013) /home/valentin   4-23-2015  13:22:04         PAGE 57


LOC  OBJECT CODE     LINE SOURCE TEXT
  VALUE

0000F6 6AF3           02843         CLRF    PRODL
0000F8 0E01           02844         MOVLW   0x01
0000FA D???           02845         BRA     _00173_DS_
0000FC                02846 _00158_DS_:
                      02847 ;       .line   52; /home/valentin/.icaro/firmware/tmp/digitalw.c       else return (0);
0000FC 6AF3           02848         CLRF    PRODL
0000FE 6AE8           02849         CLRF    WREG
000100 D???           02850         BRA     _00173_DS_
000102                02851 _00160_DS_:
                      02852 ;       .line   54; /home/valentin/.icaro/firmware/tmp/digitalw.c       case 2: if ((PORTA & mask[input]
                            )!=0) return (1);
000102 0E??           02853         MOVLW   LOW(_mask)
000104 24??           02854         ADDWF   r0x00, W
000106 6E??           02855         MOVWF   r0x02
000108 0E??           02856         MOVLW   HIGH(_mask)
00010A 20??           02857         ADDWFC  r0x01, W
00010C 6E??           02858         MOVWF   r0x03
00010E 6A??           02859         CLRF    r0x04
000110 BE??           02860         BTFSC   r0x01, 7
000112 68??           02861         SETF    r0x04
000114 0E??           02862         MOVLW   UPPER(_mask)
000116 22??           02863         ADDWFC  r0x04, F
000118 C??? F???      02864         MOVFF   r0x02, TBLPTRL
00011C C??? F???      02865         MOVFF   r0x03, TBLPTRH
000120 C??? F???      02866         MOVFF   r0x04, TBLPTRU
000124 0009           02867         TBLRD*+ 
000126 CFF5 F000      02868         MOVFF   TABLAT, r0x02
00012A 50??           02869         MOVF    _PORTA, W
00012C 16??           02870         ANDWF   r0x02, F
00012E 50??           02871         MOVF    r0x02, W
000130 E0??           02872         BZ      _00162_DS_
000132 6AF3           02873         CLRF    PRODL
000134 0E01           02874         MOVLW   0x01
000136 D???           02875         BRA     _00173_DS_
000138                02876 _00162_DS_:
                      02877 ;       .line   55; /home/valentin/.icaro/firmware/tmp/digitalw.c       else return (0);
000138 6AF3           02878         CLRF    PRODL
00013A 6AE8           02879         CLRF    WREG
00013C D???           02880         BRA     _00173_DS_
00013E                02881 _00164_DS_:
                      02882 ;       .line   58; /home/valentin/.icaro/firmware/tmp/digitalw.c       case 3: if ((PORTD & mask[input]
                            )!=0) return (1);
00013E 0E??           02883         MOVLW   LOW(_mask)
000140 24??           02884         ADDWF   r0x00, W
000142 6E??           02885         MOVWF   r0x02
000144 0E??           02886         MOVLW   HIGH(_mask)
000146 20??           02887         ADDWFC  r0x01, W
000148 6E??           02888         MOVWF   r0x03
00014A 6A??           02889         CLRF    r0x04
00014C BE??           02890         BTFSC   r0x01, 7
00014E 68??           02891         SETF    r0x04
000150 0E??           02892         MOVLW   UPPER(_mask)
000152 22??           02893         ADDWFC  r0x04, F
gpasm-1.2.0 #980 (Aug 15 2013) /home/valentin   4-23-2015  13:22:04         PAGE 58


LOC  OBJECT CODE     LINE SOURCE TEXT
  VALUE

000154 C??? F???      02894         MOVFF   r0x02, TBLPTRL
000158 C??? F???      02895         MOVFF   r0x03, TBLPTRH
00015C C??? F???      02896         MOVFF   r0x04, TBLPTRU
000160 0009           02897         TBLRD*+ 
000162 CFF5 F000      02898         MOVFF   TABLAT, r0x02
000166 50??           02899         MOVF    _PORTD, W
000168 16??           02900         ANDWF   r0x02, F
00016A 50??           02901         MOVF    r0x02, W
00016C E0??           02902         BZ      _00166_DS_
00016E 6AF3           02903         CLRF    PRODL
000170 0E01           02904         MOVLW   0x01
000172 D???           02905         BRA     _00173_DS_
000174                02906 _00166_DS_:
                      02907 ;       .line   59; /home/valentin/.icaro/firmware/tmp/digitalw.c       else return (0);
000174 6AF3           02908         CLRF    PRODL
000176 6AE8           02909         CLRF    WREG
000178 D???           02910         BRA     _00173_DS_
00017A                02911 _00168_DS_:
                      02912 ;       .line   61; /home/valentin/.icaro/firmware/tmp/digitalw.c       case 4: if ((PORTE & mask[input]
                            )!=0) return (1);
00017A 6A??           02913         CLRF    r0x02
00017C BE??           02914         BTFSC   r0x01, 7
00017E 68??           02915         SETF    r0x02
000180 0E??           02916         MOVLW   LOW(_mask)
000182 26??           02917         ADDWF   r0x00, F
000184 0E??           02918         MOVLW   HIGH(_mask)
000186 22??           02919         ADDWFC  r0x01, F
000188 0E??           02920         MOVLW   UPPER(_mask)
00018A 22??           02921         ADDWFC  r0x02, F
00018C C??? F???      02922         MOVFF   r0x00, TBLPTRL
000190 C??? F???      02923         MOVFF   r0x01, TBLPTRH
000194 C??? F???      02924         MOVFF   r0x02, TBLPTRU
000198 0009           02925         TBLRD*+ 
00019A CFF5 F000      02926         MOVFF   TABLAT, r0x00
00019E 50??           02927         MOVF    _PORTE, W
0001A0 16??           02928         ANDWF   r0x00, F
0001A2 50??           02929         MOVF    r0x00, W
0001A4 E0??           02930         BZ      _00170_DS_
0001A6 6AF3           02931         CLRF    PRODL
0001A8 0E01           02932         MOVLW   0x01
0001AA D???           02933         BRA     _00173_DS_
0001AC                02934 _00170_DS_:
                      02935 ;       .line   62; /home/valentin/.icaro/firmware/tmp/digitalw.c       else return (0);
0001AC 6AF3           02936         CLRF    PRODL
0001AE 6AE8           02937         CLRF    WREG
0001B0 D???           02938         BRA     _00173_DS_
0001B2                02939 _00172_DS_:
                      02940 ;       .line   66; /home/valentin/.icaro/firmware/tmp/digitalw.c       return (0);
0001B2 6AF3           02941         CLRF    PRODL
0001B4 6AE8           02942         CLRF    WREG
0001B6                02943 _00173_DS_:
0001B6 CFE4 F000      02944         MOVFF   PREINC1, r0x04
0001BA CFE4 F000      02945         MOVFF   PREINC1, r0x03
gpasm-1.2.0 #980 (Aug 15 2013) /home/valentin   4-23-2015  13:22:04         PAGE 59


LOC  OBJECT CODE     LINE SOURCE TEXT
  VALUE

0001BE CFE4 F000      02946         MOVFF   PREINC1, r0x02
0001C2 CFE4 F000      02947         MOVFF   PREINC1, r0x01
0001C6 CFE4 F000      02948         MOVFF   PREINC1, r0x00
0001CA CFE4 FFD9      02949         MOVFF   PREINC1, FSR2L
0001CE 0012           02950         RETURN  
                      02951 
                      02952 ; ; Starting pCode block
                      02953 S_main__digitalwrite    code
000000                02954 _digitalwrite:
                      02955 ;       .line   20; /home/valentin/.icaro/firmware/tmp/digitalw.c       void digitalwrite(int output,int
                             state)
000000 CFD9 FFE5      02956         MOVFF   FSR2L, POSTDEC1
000004 CFE1 FFD9      02957         MOVFF   FSR1L, FSR2L
000008 C??? F???      02958         MOVFF   r0x00, POSTDEC1
00000C C??? F???      02959         MOVFF   r0x01, POSTDEC1
000010 C??? F???      02960         MOVFF   r0x02, POSTDEC1
000014 C??? F???      02961         MOVFF   r0x03, POSTDEC1
000018 C??? F???      02962         MOVFF   r0x04, POSTDEC1
00001C C??? F???      02963         MOVFF   r0x05, POSTDEC1
000020 C??? F???      02964         MOVFF   r0x06, POSTDEC1
000024 0E02           02965         MOVLW   0x02
000026 CFDB F000      02966         MOVFF   PLUSW2, r0x00
00002A 0E03           02967         MOVLW   0x03
00002C CFDB F000      02968         MOVFF   PLUSW2, r0x01
000030 0E04           02969         MOVLW   0x04
000032 CFDB F000      02970         MOVFF   PLUSW2, r0x02
000036 0E05           02971         MOVLW   0x05
000038 CFDB F000      02972         MOVFF   PLUSW2, r0x03
                      02973 ;       .line   22; /home/valentin/.icaro/firmware/tmp/digitalw.c       switch (port[output])
00003C 0E??           02974         MOVLW   LOW(_port)
00003E 24??           02975         ADDWF   r0x00, W
000040 6E??           02976         MOVWF   r0x04
000042 0E??           02977         MOVLW   HIGH(_port)
000044 20??           02978         ADDWFC  r0x01, W
000046 6E??           02979         MOVWF   r0x05
000048 6A??           02980         CLRF    r0x06
00004A BE??           02981         BTFSC   r0x01, 7
00004C 68??           02982         SETF    r0x06
00004E 0E??           02983         MOVLW   UPPER(_port)
000050 22??           02984         ADDWFC  r0x06, F
000052 C??? F???      02985         MOVFF   r0x04, TBLPTRL
000056 C??? F???      02986         MOVFF   r0x05, TBLPTRH
00005A C??? F???      02987         MOVFF   r0x06, TBLPTRU
00005E 0009           02988         TBLRD*+ 
000060 CFF5 F000      02989         MOVFF   TABLAT, r0x04
000064 0E05           02990         MOVLW   0x05
000066 5C??           02991         SUBWF   r0x04, W
000068 B0D8           02992         BTFSC   STATUS, 0
00006A D???           02993         BRA     _00126_DS_
00006C 6AFA           02994         CLRF    PCLATH
00006E 6AFB           02995         CLRF    PCLATU
000070 34??           02996         RLCF    r0x04, W
000072 36FA           02997         RLCF    PCLATH, F
gpasm-1.2.0 #980 (Aug 15 2013) /home/valentin   4-23-2015  13:22:04         PAGE 60


LOC  OBJECT CODE     LINE SOURCE TEXT
  VALUE

000074 34E8           02998         RLCF    WREG, W
000076 36FA           02999         RLCF    PCLATH, F
000078 0BFC           03000         ANDLW   0xfc
00007A 0F??           03001         ADDLW   LOW(_00147_DS_)
00007C 6EE5           03002         MOVWF   POSTDEC1
00007E 0E??           03003         MOVLW   HIGH(_00147_DS_)
000080 22FA           03004         ADDWFC  PCLATH, F
000082 0E??           03005         MOVLW   UPPER(_00147_DS_)
000084 22FB           03006         ADDWFC  PCLATU, F
000086 50E4           03007         MOVF    PREINC1, W
000088 6EF9           03008         MOVWF   PCL
00008A                03009 _00147_DS_:
00008A EF?? F0??      03010         GOTO    _00105_DS_
00008E EF?? F0??      03011         GOTO    _00109_DS_
000092 EF?? F0??      03012         GOTO    _00113_DS_
000096 EF?? F0??      03013         GOTO    _00117_DS_
00009A EF?? F0??      03014         GOTO    _00121_DS_
00009E                03015 _00105_DS_:
                      03016 ;       .line   24; /home/valentin/.icaro/firmware/tmp/digitalw.c       case 0: if (state) PORTB=PORTB |
                             mask[output]; 
00009E 50??           03017         MOVF    r0x02, W
0000A0 10??           03018         IORWF   r0x03, W
0000A2 E0??           03019         BZ      _00107_DS_
0000A4 0E??           03020         MOVLW   LOW(_mask)
0000A6 24??           03021         ADDWF   r0x00, W
0000A8 6E??           03022         MOVWF   r0x04
0000AA 0E??           03023         MOVLW   HIGH(_mask)
0000AC 20??           03024         ADDWFC  r0x01, W
0000AE 6E??           03025         MOVWF   r0x05
0000B0 6A??           03026         CLRF    r0x06
0000B2 BE??           03027         BTFSC   r0x01, 7
0000B4 68??           03028         SETF    r0x06
0000B6 0E??           03029         MOVLW   UPPER(_mask)
0000B8 22??           03030         ADDWFC  r0x06, F
0000BA C??? F???      03031         MOVFF   r0x04, TBLPTRL
0000BE C??? F???      03032         MOVFF   r0x05, TBLPTRH
0000C2 C??? F???      03033         MOVFF   r0x06, TBLPTRU
0000C6 0009           03034         TBLRD*+ 
0000C8 CFF5 F000      03035         MOVFF   TABLAT, r0x04
0000CC 50??           03036         MOVF    r0x04, W
0000CE 12??           03037         IORWF   _PORTB, F
0000D0 D???           03038         BRA     _00126_DS_
0000D2                03039 _00107_DS_:
                      03040 ;       .line   25; /home/valentin/.icaro/firmware/tmp/digitalw.c       else PORTB=PORTB & (255-mask[out
                            put]);
0000D2 0E??           03041         MOVLW   LOW(_mask)
0000D4 24??           03042         ADDWF   r0x00, W
0000D6 6E??           03043         MOVWF   r0x04
0000D8 0E??           03044         MOVLW   HIGH(_mask)
0000DA 20??           03045         ADDWFC  r0x01, W
0000DC 6E??           03046         MOVWF   r0x05
0000DE 6A??           03047         CLRF    r0x06
0000E0 BE??           03048         BTFSC   r0x01, 7
gpasm-1.2.0 #980 (Aug 15 2013) /home/valentin   4-23-2015  13:22:04         PAGE 61


LOC  OBJECT CODE     LINE SOURCE TEXT
  VALUE

0000E2 68??           03049         SETF    r0x06
0000E4 0E??           03050         MOVLW   UPPER(_mask)
0000E6 22??           03051         ADDWFC  r0x06, F
0000E8 C??? F???      03052         MOVFF   r0x04, TBLPTRL
0000EC C??? F???      03053         MOVFF   r0x05, TBLPTRH
0000F0 C??? F???      03054         MOVFF   r0x06, TBLPTRU
0000F4 0009           03055         TBLRD*+ 
0000F6 CFF5 F000      03056         MOVFF   TABLAT, r0x04
0000FA 50??           03057         MOVF    r0x04, W
0000FC 08FF           03058         SUBLW   0xff
                      03059 ; #     MOVWF   r0x04
                      03060 ; #     MOVF    r0x04, W
0000FE 16??           03061         ANDWF   _PORTB, F
                      03062 ;       .line   26; /home/valentin/.icaro/firmware/tmp/digitalw.c       break;
000100 D???           03063         BRA     _00126_DS_
000102                03064 _00109_DS_:
                      03065 ;       .line   27; /home/valentin/.icaro/firmware/tmp/digitalw.c       case 1: if (state) PORTC=PORTC |
                             mask[output];
000102 50??           03066         MOVF    r0x02, W
000104 10??           03067         IORWF   r0x03, W
000106 E0??           03068         BZ      _00111_DS_
000108 0E??           03069         MOVLW   LOW(_mask)
00010A 24??           03070         ADDWF   r0x00, W
00010C 6E??           03071         MOVWF   r0x04
00010E 0E??           03072         MOVLW   HIGH(_mask)
000110 20??           03073         ADDWFC  r0x01, W
000112 6E??           03074         MOVWF   r0x05
000114 6A??           03075         CLRF    r0x06
000116 BE??           03076         BTFSC   r0x01, 7
000118 68??           03077         SETF    r0x06
00011A 0E??           03078         MOVLW   UPPER(_mask)
00011C 22??           03079         ADDWFC  r0x06, F
00011E C??? F???      03080         MOVFF   r0x04, TBLPTRL
000122 C??? F???      03081         MOVFF   r0x05, TBLPTRH
000126 C??? F???      03082         MOVFF   r0x06, TBLPTRU
00012A 0009           03083         TBLRD*+ 
00012C CFF5 F000      03084         MOVFF   TABLAT, r0x04
000130 50??           03085         MOVF    r0x04, W
000132 12??           03086         IORWF   _PORTC, F
000134 D???           03087         BRA     _00126_DS_
000136                03088 _00111_DS_:
                      03089 ;       .line   28; /home/valentin/.icaro/firmware/tmp/digitalw.c       else PORTC=PORTC & (255-mask[out
                            put]);
000136 0E??           03090         MOVLW   LOW(_mask)
000138 24??           03091         ADDWF   r0x00, W
00013A 6E??           03092         MOVWF   r0x04
00013C 0E??           03093         MOVLW   HIGH(_mask)
00013E 20??           03094         ADDWFC  r0x01, W
000140 6E??           03095         MOVWF   r0x05
000142 6A??           03096         CLRF    r0x06
000144 BE??           03097         BTFSC   r0x01, 7
000146 68??           03098         SETF    r0x06
000148 0E??           03099         MOVLW   UPPER(_mask)
gpasm-1.2.0 #980 (Aug 15 2013) /home/valentin   4-23-2015  13:22:04         PAGE 62


LOC  OBJECT CODE     LINE SOURCE TEXT
  VALUE

00014A 22??           03100         ADDWFC  r0x06, F
00014C C??? F???      03101         MOVFF   r0x04, TBLPTRL
000150 C??? F???      03102         MOVFF   r0x05, TBLPTRH
000154 C??? F???      03103         MOVFF   r0x06, TBLPTRU
000158 0009           03104         TBLRD*+ 
00015A CFF5 F000      03105         MOVFF   TABLAT, r0x04
00015E 50??           03106         MOVF    r0x04, W
000160 08FF           03107         SUBLW   0xff
                      03108 ; #     MOVWF   r0x04
                      03109 ; #     MOVF    r0x04, W
000162 16??           03110         ANDWF   _PORTC, F
                      03111 ;       .line   29; /home/valentin/.icaro/firmware/tmp/digitalw.c       break;
000164 D???           03112         BRA     _00126_DS_
000166                03113 _00113_DS_:
                      03114 ;       .line   30; /home/valentin/.icaro/firmware/tmp/digitalw.c       case 2: if (state) PORTA=PORTA |
                             mask[output];
000166 50??           03115         MOVF    r0x02, W
000168 10??           03116         IORWF   r0x03, W
00016A E0??           03117         BZ      _00115_DS_
00016C 0E??           03118         MOVLW   LOW(_mask)
00016E 24??           03119         ADDWF   r0x00, W
000170 6E??           03120         MOVWF   r0x04
000172 0E??           03121         MOVLW   HIGH(_mask)
000174 20??           03122         ADDWFC  r0x01, W
000176 6E??           03123         MOVWF   r0x05
000178 6A??           03124         CLRF    r0x06
00017A BE??           03125         BTFSC   r0x01, 7
00017C 68??           03126         SETF    r0x06
00017E 0E??           03127         MOVLW   UPPER(_mask)
000180 22??           03128         ADDWFC  r0x06, F
000182 C??? F???      03129         MOVFF   r0x04, TBLPTRL
000186 C??? F???      03130         MOVFF   r0x05, TBLPTRH
00018A C??? F???      03131         MOVFF   r0x06, TBLPTRU
00018E 0009           03132         TBLRD*+ 
000190 CFF5 F000      03133         MOVFF   TABLAT, r0x04
000194 50??           03134         MOVF    r0x04, W
000196 12??           03135         IORWF   _PORTA, F
000198 D???           03136         BRA     _00126_DS_
00019A                03137 _00115_DS_:
                      03138 ;       .line   31; /home/valentin/.icaro/firmware/tmp/digitalw.c       else PORTA=PORTA & (255-mask[out
                            put]);
00019A 0E??           03139         MOVLW   LOW(_mask)
00019C 24??           03140         ADDWF   r0x00, W
00019E 6E??           03141         MOVWF   r0x04
0001A0 0E??           03142         MOVLW   HIGH(_mask)
0001A2 20??           03143         ADDWFC  r0x01, W
0001A4 6E??           03144         MOVWF   r0x05
0001A6 6A??           03145         CLRF    r0x06
0001A8 BE??           03146         BTFSC   r0x01, 7
0001AA 68??           03147         SETF    r0x06
0001AC 0E??           03148         MOVLW   UPPER(_mask)
0001AE 22??           03149         ADDWFC  r0x06, F
0001B0 C??? F???      03150         MOVFF   r0x04, TBLPTRL
gpasm-1.2.0 #980 (Aug 15 2013) /home/valentin   4-23-2015  13:22:04         PAGE 63


LOC  OBJECT CODE     LINE SOURCE TEXT
  VALUE

0001B4 C??? F???      03151         MOVFF   r0x05, TBLPTRH
0001B8 C??? F???      03152         MOVFF   r0x06, TBLPTRU
0001BC 0009           03153         TBLRD*+ 
0001BE CFF5 F000      03154         MOVFF   TABLAT, r0x04
0001C2 50??           03155         MOVF    r0x04, W
0001C4 08FF           03156         SUBLW   0xff
                      03157 ; #     MOVWF   r0x04
                      03158 ; #     MOVF    r0x04, W
0001C6 16??           03159         ANDWF   _PORTA, F
                      03160 ;       .line   32; /home/valentin/.icaro/firmware/tmp/digitalw.c       break;
0001C8 D???           03161         BRA     _00126_DS_
0001CA                03162 _00117_DS_:
                      03163 ;       .line   34; /home/valentin/.icaro/firmware/tmp/digitalw.c       case 3: if (state) PORTD=PORTD |
                             mask[output]; 
0001CA 50??           03164         MOVF    r0x02, W
0001CC 10??           03165         IORWF   r0x03, W
0001CE E0??           03166         BZ      _00119_DS_
0001D0 0E??           03167         MOVLW   LOW(_mask)
0001D2 24??           03168         ADDWF   r0x00, W
0001D4 6E??           03169         MOVWF   r0x04
0001D6 0E??           03170         MOVLW   HIGH(_mask)
0001D8 20??           03171         ADDWFC  r0x01, W
0001DA 6E??           03172         MOVWF   r0x05
0001DC 6A??           03173         CLRF    r0x06
0001DE BE??           03174         BTFSC   r0x01, 7
0001E0 68??           03175         SETF    r0x06
0001E2 0E??           03176         MOVLW   UPPER(_mask)
0001E4 22??           03177         ADDWFC  r0x06, F
0001E6 C??? F???      03178         MOVFF   r0x04, TBLPTRL
0001EA C??? F???      03179         MOVFF   r0x05, TBLPTRH
0001EE C??? F???      03180         MOVFF   r0x06, TBLPTRU
0001F2 0009           03181         TBLRD*+ 
0001F4 CFF5 F000      03182         MOVFF   TABLAT, r0x04
0001F8 50??           03183         MOVF    r0x04, W
0001FA 12??           03184         IORWF   _PORTD, F
0001FC D???           03185         BRA     _00126_DS_
0001FE                03186 _00119_DS_:
                      03187 ;       .line   35; /home/valentin/.icaro/firmware/tmp/digitalw.c       else PORTD=PORTD & (255-mask[out
                            put]);
0001FE 0E??           03188         MOVLW   LOW(_mask)
000200 24??           03189         ADDWF   r0x00, W
000202 6E??           03190         MOVWF   r0x04
000204 0E??           03191         MOVLW   HIGH(_mask)
000206 20??           03192         ADDWFC  r0x01, W
000208 6E??           03193         MOVWF   r0x05
00020A 6A??           03194         CLRF    r0x06
00020C BE??           03195         BTFSC   r0x01, 7
00020E 68??           03196         SETF    r0x06
000210 0E??           03197         MOVLW   UPPER(_mask)
000212 22??           03198         ADDWFC  r0x06, F
000214 C??? F???      03199         MOVFF   r0x04, TBLPTRL
000218 C??? F???      03200         MOVFF   r0x05, TBLPTRH
00021C C??? F???      03201         MOVFF   r0x06, TBLPTRU
gpasm-1.2.0 #980 (Aug 15 2013) /home/valentin   4-23-2015  13:22:04         PAGE 64


LOC  OBJECT CODE     LINE SOURCE TEXT
  VALUE

000220 0009           03202         TBLRD*+ 
000222 CFF5 F000      03203         MOVFF   TABLAT, r0x04
000226 50??           03204         MOVF    r0x04, W
000228 08FF           03205         SUBLW   0xff
                      03206 ; #     MOVWF   r0x04
                      03207 ; #     MOVF    r0x04, W
00022A 16??           03208         ANDWF   _PORTD, F
                      03209 ;       .line   36; /home/valentin/.icaro/firmware/tmp/digitalw.c       break;
00022C D???           03210         BRA     _00126_DS_
00022E                03211 _00121_DS_:
                      03212 ;       .line   37; /home/valentin/.icaro/firmware/tmp/digitalw.c       case 4: if (state) PORTE=PORTE |
                             mask[output]; 
00022E 50??           03213         MOVF    r0x02, W
000230 10??           03214         IORWF   r0x03, W
000232 E0??           03215         BZ      _00123_DS_
000234 0E??           03216         MOVLW   LOW(_mask)
000236 24??           03217         ADDWF   r0x00, W
000238 6E??           03218         MOVWF   r0x02
00023A 0E??           03219         MOVLW   HIGH(_mask)
00023C 20??           03220         ADDWFC  r0x01, W
00023E 6E??           03221         MOVWF   r0x03
000240 6A??           03222         CLRF    r0x04
000242 BE??           03223         BTFSC   r0x01, 7
000244 68??           03224         SETF    r0x04
000246 0E??           03225         MOVLW   UPPER(_mask)
000248 22??           03226         ADDWFC  r0x04, F
00024A C??? F???      03227         MOVFF   r0x02, TBLPTRL
00024E C??? F???      03228         MOVFF   r0x03, TBLPTRH
000252 C??? F???      03229         MOVFF   r0x04, TBLPTRU
000256 0009           03230         TBLRD*+ 
000258 CFF5 F000      03231         MOVFF   TABLAT, r0x02
00025C 50??           03232         MOVF    r0x02, W
00025E 12??           03233         IORWF   _PORTE, F
000260 D???           03234         BRA     _00126_DS_
000262                03235 _00123_DS_:
                      03236 ;       .line   38; /home/valentin/.icaro/firmware/tmp/digitalw.c       else PORTE=PORTE & (255-mask[out
                            put]);
000262 6A??           03237         CLRF    r0x02
000264 BE??           03238         BTFSC   r0x01, 7
000266 68??           03239         SETF    r0x02
000268 0E??           03240         MOVLW   LOW(_mask)
00026A 26??           03241         ADDWF   r0x00, F
00026C 0E??           03242         MOVLW   HIGH(_mask)
00026E 22??           03243         ADDWFC  r0x01, F
000270 0E??           03244         MOVLW   UPPER(_mask)
000272 22??           03245         ADDWFC  r0x02, F
000274 C??? F???      03246         MOVFF   r0x00, TBLPTRL
000278 C??? F???      03247         MOVFF   r0x01, TBLPTRH
00027C C??? F???      03248         MOVFF   r0x02, TBLPTRU
000280 0009           03249         TBLRD*+ 
000282 CFF5 F000      03250         MOVFF   TABLAT, r0x00
000286 50??           03251         MOVF    r0x00, W
000288 08FF           03252         SUBLW   0xff
gpasm-1.2.0 #980 (Aug 15 2013) /home/valentin   4-23-2015  13:22:04         PAGE 65


LOC  OBJECT CODE     LINE SOURCE TEXT
  VALUE

                      03253 ; #     MOVWF   r0x00
                      03254 ; #     MOVF    r0x00, W
00028A 16??           03255         ANDWF   _PORTE, F
00028C                03256 _00126_DS_:
                      03257 ;       .line   41; /home/valentin/.icaro/firmware/tmp/digitalw.c       }
00028C CFE4 F000      03258         MOVFF   PREINC1, r0x06
000290 CFE4 F000      03259         MOVFF   PREINC1, r0x05
000294 CFE4 F000      03260         MOVFF   PREINC1, r0x04
000298 CFE4 F000      03261         MOVFF   PREINC1, r0x03
00029C CFE4 F000      03262         MOVFF   PREINC1, r0x02
0002A0 CFE4 F000      03263         MOVFF   PREINC1, r0x01
0002A4 CFE4 F000      03264         MOVFF   PREINC1, r0x00
0002A8 CFE4 FFD9      03265         MOVFF   PREINC1, FSR2L
0002AC 0012           03266         RETURN  
                      03267 
                      03268 ; ; Starting pCode block for Ival
                      03269         code
000000                03270 _mask:
000000 0201 0804 2010 03271         DB      0x01, 0x02, 0x04, 0x08, 0x10, 0x20, 0x40, 0x80, 0x40, 0x80, 0x01, 0x02
       8040 8040 0201 
00000C 0104 0402 2008 03272         DB      0x04, 0x01, 0x02, 0x04, 0x08, 0x20, 0x01, 0x02, 0x04, 0x01, 0x02, 0x04
       0201 0104 0402 
000018 1008 4020 0080 03273         DB      0x08, 0x10, 0x20, 0x40, 0x80
                      03274 ; ; Starting pCode block for Ival
00001E                03275 _port:
00001E 0000 0000 0000 03276         DB      0x00, 0x00, 0x00, 0x00, 0x00, 0x00, 0x00, 0x00, 0x01, 0x01, 0x01, 0x01
       0000 0101 0101 
00002A 0201 0202 0202 03277         DB      0x01, 0x02, 0x02, 0x02, 0x02, 0x02, 0x04, 0x04, 0x04, 0x03, 0x03, 0x03
       0404 0304 0303 
000036 0303 0303 0003 03278         DB      0x03, 0x03, 0x03, 0x03, 0x03
                      03279 ; ; Starting pCode block for Ival
00003C                03280 _servomasks:
00003C 0201 0804 2010 03281         DB      0x01, 0x02, 0x04, 0x08, 0x10, 0x20, 0x40, 0x80, 0x40, 0x80, 0x01, 0x02
       8040 8040 0201 
000048 0104 0402 2008 03282         DB      0x04, 0x01, 0x02, 0x04, 0x08, 0x20
                      03283 
                      03284 
                      03285 ; Statistics:
                      03286 ; code size:     5830 (0x16c6) bytes ( 4.45%)
                      03287 ;                2915 (0x0b63) words
                      03288 ; udata size:      96 (0x0060) bytes ( 5.36%)
                      03289 ; access size:     13 (0x000d) bytes
                      03290 
                      03291 
                      03292         end
gpasm-1.2.0 #980 (Aug 15 2013) /home/valentin   4-23-2015  13:22:04         PAGE 66


SYMBOL TABLE
  LABEL                             VALUE

BSR                               00000FE0
FSR0H                             00000FEA
FSR0L                             00000FE9
FSR1L                             00000FE1
FSR2L                             00000FD9
INDF0                             00000FEF
PCL                               00000FF9
PCLATH                            00000FFA
PCLATU                            00000FFB
PLUSW2                            00000FDB
POSTDEC1                          00000FE5
POSTINC1                          00000FE6
PREINC1                           00000FE4
PRODH                             00000FF4
PRODL                             00000FF3
STATUS                            00000FD8
TABLAT                            00000FF5
TBLPTRH                           00000FF7
TBLPTRL                           00000FF6
TBLPTRU                           00000FF8
WREG                              00000FE8
_00105_DS_                        0000009E
_00107_DS_                        000000D2
_00109_DS_                        00000102
_00111_DS_                        00000136
_00113_DS_                        00000166
_00115_DS_                        0000019A
_00117_DS_                        000001CA
_00119_DS_                        000001FE
_00121_DS_                        0000022E
_00123_DS_                        00000262
_00126_DS_                        0000028C
_00147_DS_                        0000008A
_00152_DS_                        0000008A
_00154_DS_                        000000C0
_00156_DS_                        000000C6
_00158_DS_                        000000FC
_00160_DS_                        00000102
_00162_DS_                        00000138
_00164_DS_                        0000013E
_00166_DS_                        00000174
_00168_DS_                        0000017A
_00170_DS_                        000001AC
_00172_DS_                        000001B2
_00173_DS_                        000001B6
_00194_DS_                        00000076
_00199_DS_                        0000009E
_00201_DS_                        000000D2
_00203_DS_                        00000102
_00205_DS_                        00000136
_00207_DS_                        00000166
_00209_DS_                        0000019A
_00211_DS_                        000001CA
gpasm-1.2.0 #980 (Aug 15 2013) /home/valentin   4-23-2015  13:22:04         PAGE 67


SYMBOL TABLE
  LABEL                             VALUE 

_00213_DS_                        000001FE
_00215_DS_                        0000022E
_00217_DS_                        00000262
_00220_DS_                        0000028C
_00241_DS_                        0000008A
_00247_DS_                        0000000E
_00264_DS_                        0000007A
_00266_DS_                        00000018
_00294_DS_                        0000014C
_00302_DS_                        0000022C
_00310_DS_                        0000032C
_00316_DS_                        0000026C
_00319_DS_                        00000164
_00322_DS_                        0000008C
_00324_DS_                        000003BC
_00325_DS_                        0000003E
_00327_DS_                        0000009A
_00328_DS_                        00000368
_00391_DS_                        00000160
_00396_DS_                        00000240
_00411_DS_                        000000C6
_00414_DS_                        00000078
_00416_DS_                        0000010A
_00439_DS_                        00000092
_00442_DS_                        0000005C
_00444_DS_                        000000BE
_00466_DS_                        00000030
_00468_DS_                        0000003A
_00469_DS_                        00000056
_00488_DS_                        00000020
_00489_DS_                        00000038
_00501_DS_                        00000036
_00513_DS_                        00000038
_00526_DS_                        00000024
_00530_DS_                        00000044
_00545_DS_                        0000001E
_00560_DS_                        00000042
_00565_DS_                        00000032
_00573_DS_                        00000048
_00575_DS_                        00000074
_00584_DS_                        0000005E
_00585_DS_                        00000072
_00592_DS_                        0000002C
_00594_DS_                        00000042
_00603_DS_                        0000003A
_00609_DS_                        000000AA
_00612_DS_                        00000086
_00616_DS_                        000000C0
_00627_DS_                        00000070
_00628_DS_                        0000007E
_00629_DS_                        00000092
_00635_DS_                        00000046
_00637_DS_                        00000096
gpasm-1.2.0 #980 (Aug 15 2013) /home/valentin   4-23-2015  13:22:04         PAGE 68


SYMBOL TABLE
  LABEL                             VALUE 

_00639_DS_                        000000C2
_00640_DS_                        000000CA
_00672_DS_                        0000004C
_00675_DS_                        00000036
_00676_DS_                        00000096
_00703_DS_                        00000074
_00708_DS_                        000000B4
_00722_DS_                        00000042
_00723_DS_                        00000044
_00728_DS_                        0000007E
_00729_DS_                        00000080
_00761_DS_                        0000003A
_00763_DS_                        0000003E
_00774_DS_                        00000018
_ADCON0                           00000000
_ADCON0bits                       00000000
_ADCON1                           00000000
_ADCON1bits                       00000000
_ADCON2                           00000000
_ADCON2bits                       00000000
_ADRESH                           00000000
_ADRESL                           00000000
_BAUDCON                          00000000
_BAUDCONbits                      00000000
_BSR                              00000000
_BSRbits                          00000000
_CCP1CON                          00000000
_CCP1CONbits                      00000000
_CCP2CON                          00000000
_CCP2CONbits                      00000000
_CCPR1H                           00000000
_CCPR1L                           00000000
_CCPR2H                           00000000
_CCPR2L                           00000000
_CMCON                            00000000
_CMCONbits                        00000000
_CVRCON                           00000000
_CVRCONbits                       00000000
_Delayms                          00000000
_Delayus                          00000000
_ECCP1AS                          00000000
_ECCP1ASbits                      00000000
_ECCP1DEL                         00000000
_ECCP1DELbits                     00000000
_EEADR                            00000000
_EECON1                           00000000
_EECON1bits                       00000000
_EECON2                           00000000
_EEDATA                           00000000
_FSR0H                            00000000
_FSR0Hbits                        00000000
_FSR0L                            00000000
_FSR1H                            00000000
gpasm-1.2.0 #980 (Aug 15 2013) /home/valentin   4-23-2015  13:22:04         PAGE 69


SYMBOL TABLE
  LABEL                             VALUE 

_FSR1Hbits                        00000000
_FSR1L                            00000000
_FSR2H                            00000000
_FSR2Hbits                        00000000
_FSR2L                            00000000
_HLVDCON                          00000000
_HLVDCONbits                      00000000
_INDF0                            00000000
_INDF1                            00000000
_INDF2                            00000000
_INTCON                           00000000
_INTCON2                          00000000
_INTCON2bits                      00000000
_INTCON3                          00000000
_INTCON3bits                      00000000
_INTCONbits                       00000000
_IPR1                             00000000
_IPR1bits                         00000000
_IPR2                             00000000
_IPR2bits                         00000000
_LATA                             00000000
_LATAbits                         00000000
_LATB                             00000000
_LATBbits                         00000000
_LATC                             00000000
_LATCbits                         00000000
_LATD                             00000000
_LATDbits                         00000000
_LATE                             00000000
_LATEbits                         00000000
_OSCCON                           00000000
_OSCCONbits                       00000000
_OSCTUNE                          00000000
_OSCTUNEbits                      00000000
_PCL                              00000000
_PCLATH                           00000000
_PCLATHbits                       00000000
_PCLATU                           00000000
_PCLATUbits                       00000000
_PIE1                             00000000
_PIE1bits                         00000000
_PIE2                             00000000
_PIE2bits                         00000000
_PIR1                             00000000
_PIR1bits                         00000000
_PIR2                             00000000
_PIR2bits                         00000000
_PLUSW0                           00000000
_PLUSW1                           00000000
_PLUSW2                           00000000
_PORTA                            00000000
_PORTAbits                        00000000
_PORTB                            00000000
gpasm-1.2.0 #980 (Aug 15 2013) /home/valentin   4-23-2015  13:22:04         PAGE 70


SYMBOL TABLE
  LABEL                             VALUE 

_PORTBbits                        00000000
_PORTC                            00000000
_PORTCbits                        00000000
_PORTD                            00000000
_PORTDbits                        00000000
_PORTE                            00000000
_PORTEbits                        00000000
_POSTDEC0                         00000000
_POSTDEC1                         00000000
_POSTDEC2                         00000000
_POSTINC0                         00000000
_POSTINC1                         00000000
_POSTINC2                         00000000
_PR2                              00000000
_PREINC0                          00000000
_PREINC1                          00000000
_PREINC2                          00000000
_PRODH                            00000000
_PRODL                            00000000
_PWM_set_dutycycle                00000000
_PWM_set_frequency                00000000
_PWM_set_percent_dutycycle        00000000
_RCON                             00000000
_RCONbits                         00000000
_RCREG                            00000000
_RCSTA                            00000000
_RCSTAbits                        00000000
_SPBRG                            00000000
_SPBRGH                           00000000
_SPPCFG                           00000000
_SPPCFGbits                       00000000
_SPPCON                           00000000
_SPPCONbits                       00000000
_SPPDATA                          00000000
_SPPDATAbits                      00000000
_SPPEPS                           00000000
_SPPEPSbits                       00000000
_SSPADD                           00000000
_SSPBUF                           00000000
_SSPCON1                          00000000
_SSPCON1bits                      00000000
_SSPCON2                          00000000
_SSPCON2bits                      00000000
_SSPSTAT                          00000000
_SSPSTATbits                      00000000
_STATUS                           00000000
_STATUSbits                       00000000
_STKPTR                           00000000
_STKPTRbits                       00000000
_ServoAttach                      00000000
_ServoDetach                      00000000
_ServoMaximumPulse                00000000
_ServoMinimumPulse                00000000
gpasm-1.2.0 #980 (Aug 15 2013) /home/valentin   4-23-2015  13:22:04         PAGE 71


SYMBOL TABLE
  LABEL                             VALUE 

_ServoRead                        00000000
_ServoWrite                       00000000
_ServosPulseDown                  00000000
_ServosPulseUp                    00000000
_SortServoTimings                 00000000
_SortServoTimings_mascaratotal_1_27  00000000
_T0CON                            00000000
_T0CONbits                        00000000
_T1CON                            00000000
_T1CONbits                        00000000
_T2CON                            00000000
_T2CONbits                        00000000
_T3CON                            00000000
_T3CONbits                        00000000
_TABLAT                           00000000
_TBLPTRH                          00000000
_TBLPTRL                          00000000
_TBLPTRU                          00000000
_TBLPTRUbits                      00000000
_TMR0H                            00000000
_TMR0L                            00000000
_TMR1H                            00000000
_TMR1L                            00000000
_TMR2                             00000000
_TMR3H                            00000000
_TMR3L                            00000000
_TOSH                             00000000
_TOSL                             00000000
_TOSU                             00000000
_TOSUbits                         00000000
_TRISA                            00000000
_TRISAbits                        00000000
_TRISB                            00000000
_TRISBbits                        00000000
_TRISC                            00000000
_TRISCbits                        00000000
_TRISD                            00000000
_TRISDbits                        00000000
_TRISE                            00000000
_TRISEbits                        00000000
_TXREG                            00000000
_TXSTA                            00000000
_TXSTAbits                        00000000
_UADDR                            00000000
_UADDRbits                        00000000
_UCFG                             00000000
_UCFGbits                         00000000
_UCON                             00000000
_UCONbits                         00000000
_UEIE                             00000000
_UEIEbits                         00000000
_UEIR                             00000000
_UEIRbits                         00000000
gpasm-1.2.0 #980 (Aug 15 2013) /home/valentin   4-23-2015  13:22:04         PAGE 72


SYMBOL TABLE
  LABEL                             VALUE 

_UEP0                             00000000
_UEP0bits                         00000000
_UEP1                             00000000
_UEP10                            00000000
_UEP10bits                        00000000
_UEP11                            00000000
_UEP11bits                        00000000
_UEP12                            00000000
_UEP12bits                        00000000
_UEP13                            00000000
_UEP13bits                        00000000
_UEP14                            00000000
_UEP14bits                        00000000
_UEP15                            00000000
_UEP15bits                        00000000
_UEP1bits                         00000000
_UEP2                             00000000
_UEP2bits                         00000000
_UEP3                             00000000
_UEP3bits                         00000000
_UEP4                             00000000
_UEP4bits                         00000000
_UEP5                             00000000
_UEP5bits                         00000000
_UEP6                             00000000
_UEP6bits                         00000000
_UEP7                             00000000
_UEP7bits                         00000000
_UEP8                             00000000
_UEP8bits                         00000000
_UEP9                             00000000
_UEP9bits                         00000000
_UFRMH                            00000000
_UFRMHbits                        00000000
_UFRML                            00000000
_UFRMLbits                        00000000
_UIE                              00000000
_UIEbits                          00000000
_UIR                              00000000
_UIRbits                          00000000
_USTAT                            00000000
_USTATbits                        00000000
_WDTCON                           00000000
_WDTCONbits                       00000000
_WREG                             00000000
__18F4550                         00000001
__divuint                         00000000
__divulong                        00000000
__i                               00000008
__mulint                          00000000
__pr2_plus1                       00000006
__t2con                           00000000
_activatedservos                  00000003
gpasm-1.2.0 #980 (Aug 15 2013) /home/valentin   4-23-2015  13:22:04         PAGE 73


SYMBOL TABLE
  LABEL                             VALUE 

_analogReference                  00000000
_analog_init                      00000000
_analogread                       00000000
_delay10ktcy                      00000000
_digitalread                      00000000
_digitalwrite                     00000000
_epap_in                          00000000
_epap_out                         00000000
_epapin_init                      00000000
_epapout_init                     00000000
_high_priority_isr                00002020
_init_PWM11                       00000000
_init_PWM12                       00000000
_loop                             00000000
_loopvar                          00000000
_low_priority_isr                 00004000
_mask                             00000000
_needreordering                   00000001
_phase                            00000000
_pinguino_main                    00000000
_pinmode                          00000000
_port                             0000001E
_sensordigital                    00000000
_servomasks                       0000003C
_servos_init                      00000000
_servos_interrupt                 00000000
_servovalues                      00000000
_set_PWM                          00000000
_setup                            00000000
_timedivision                     00000002
_timingindex                      00000000
_timings                          00000000
_usb_active_alt_setting           00000000
_usb_active_cfg                   00000000
_usb_device_state                 00000000
bucle                             0000007E
r0x00                             00000000
r0x01                             00000001
r0x02                             00000002
r0x03                             00000003
r0x04                             00000004
r0x05                             00000005
r0x06                             00000006
r0x07                             00000007
r0x08                             00000008
r0x09                             00000009
r0x0a                             0000000A
r0x0b                             0000000B
r0x0c                             0000000C

Errors   :     0
Warnings :     0 reported,     0 suppressed
Messages :     0 reported,     0 suppressed

