gpasm-0.14.3 #861 (Nov  5 2012) /home/valenti   6-16-2013  19:42:02         PAGE  1


LOC  OBJECT CODE     LINE SOURCE TEXT
  VALUE

                      00001 ;--------------------------------------------------------
                      00002 ; File Created by SDCC : free open source ANSI-C Compiler
                      00003 ; Version 3.1.0 #7066 (Feb 26 2012) (Linux)
                      00004 ; This file was generated Sun Jun 16 19:42:01 2013
                      00005 ;--------------------------------------------------------
                      00006 ; PIC16 port for the Microchip 16-bit core micros
                      00007 ;--------------------------------------------------------
                      00008         list    p=18f4550
                      00009 
                      00010         radix dec
                      00011 
                      00012 ;--------------------------------------------------------
                      00013 ; public variables in this module
                      00014 ;--------------------------------------------------------
                      00015         global _i
                      00016         global _tiempo2
                      00017         global _tiempo
                      00018         global _loopvar
                      00019         global _phase
                      00020         global _needreordering
                      00021         global _timingindex
                      00022         global _timedivision
                      00023         global _timings
                      00024         global _activatedservos
                      00025         global _servovalues
                      00026         global _TXBuffer
                      00027         global _RXbuffer
                      00028         global _usbrx
                      00029         global _usbwp
                      00030         global _usbrp
                      00031         global _ep2_num_bytes_to_send
                      00032         global _ep2_source_data
                      00033         global _received_char
                      00034         global _digitalwrite
                      00035         global _digitalread
                      00036         global _pinmode
                      00037         global _servos_init
                      00038         global _ServoAttach
                      00039         global _ServoDetach
                      00040         global _ServoWrite
                      00041         global _ServoRead
                      00042         global _ServoMinimumPulse
                      00043         global _ServoMaximumPulse
                      00044         global _servos_interrupt
                      00045         global _analog_init
                      00046         global _analogReference
                      00047         global _analogread
                      00048         global _Delayms
                      00049         global _Delayus
                      00050         global _usbavailable
                      00051         global _epapin_init
                      00052         global _prepare_ep2_in
                      00053         global _usbsend
gpasm-0.14.3 #861 (Nov  5 2012) /home/valenti   6-16-2013  19:42:02         PAGE  2


LOC  OBJECT CODE     LINE SOURCE TEXT
  VALUE

                      00054         global _epap_in
                      00055         global _usbread
                      00056         global _epap_out
                      00057         global _epapout_init
                      00058         global _sensordigital
                      00059         global _setup
                      00060         global _sensor
                      00061         global _ServoLento
                      00062         global _loop
                      00063         global _pinguino_main
                      00064         global _high_priority_isr
                      00065         global _low_priority_isr
                      00066         global _mask
                      00067         global _port
                      00068         global _servomasks
                      00069 
                      00070 ;--------------------------------------------------------
                      00071 ; extern variables in this module
                      00072 ;--------------------------------------------------------
                      00073         extern _SPPDATAbits
                      00074         extern _SPPCFGbits
                      00075         extern _SPPEPSbits
                      00076         extern _SPPCONbits
                      00077         extern _UFRMLbits
                      00078         extern _UFRMHbits
                      00079         extern _UIRbits
                      00080         extern _UIEbits
                      00081         extern _UEIRbits
                      00082         extern _UEIEbits
                      00083         extern _USTATbits
                      00084         extern _UCONbits
                      00085         extern _UADDRbits
                      00086         extern _UCFGbits
                      00087         extern _UEP0bits
                      00088         extern _UEP1bits
                      00089         extern _UEP2bits
                      00090         extern _UEP3bits
                      00091         extern _UEP4bits
                      00092         extern _UEP5bits
                      00093         extern _UEP6bits
                      00094         extern _UEP7bits
                      00095         extern _UEP8bits
                      00096         extern _UEP9bits
                      00097         extern _UEP10bits
                      00098         extern _UEP11bits
                      00099         extern _UEP12bits
                      00100         extern _UEP13bits
                      00101         extern _UEP14bits
                      00102         extern _UEP15bits
                      00103         extern _PORTAbits
                      00104         extern _PORTBbits
                      00105         extern _PORTCbits
                      00106         extern _PORTDbits
gpasm-0.14.3 #861 (Nov  5 2012) /home/valenti   6-16-2013  19:42:02         PAGE  3


LOC  OBJECT CODE     LINE SOURCE TEXT
  VALUE

                      00107         extern _PORTEbits
                      00108         extern _LATAbits
                      00109         extern _LATBbits
                      00110         extern _LATCbits
                      00111         extern _LATDbits
                      00112         extern _LATEbits
                      00113         extern _TRISAbits
                      00114         extern _TRISBbits
                      00115         extern _TRISCbits
                      00116         extern _TRISDbits
                      00117         extern _TRISEbits
                      00118         extern _OSCTUNEbits
                      00119         extern _PIE1bits
                      00120         extern _PIR1bits
                      00121         extern _IPR1bits
                      00122         extern _PIE2bits
                      00123         extern _PIR2bits
                      00124         extern _IPR2bits
                      00125         extern _EECON1bits
                      00126         extern _RCSTAbits
                      00127         extern _TXSTAbits
                      00128         extern _T3CONbits
                      00129         extern _CMCONbits
                      00130         extern _CVRCONbits
                      00131         extern _ECCP1ASbits
                      00132         extern _ECCP1DELbits
                      00133         extern _BAUDCONbits
                      00134         extern _CCP2CONbits
                      00135         extern _CCP1CONbits
                      00136         extern _ADCON2bits
                      00137         extern _ADCON1bits
                      00138         extern _ADCON0bits
                      00139         extern _SSPCON2bits
                      00140         extern _SSPCON1bits
                      00141         extern _SSPSTATbits
                      00142         extern _T2CONbits
                      00143         extern _T1CONbits
                      00144         extern _RCONbits
                      00145         extern _WDTCONbits
                      00146         extern _HLVDCONbits
                      00147         extern _OSCCONbits
                      00148         extern _T0CONbits
                      00149         extern _STATUSbits
                      00150         extern _FSR2Hbits
                      00151         extern _BSRbits
                      00152         extern _FSR1Hbits
                      00153         extern _FSR0Hbits
                      00154         extern _INTCON3bits
                      00155         extern _INTCON2bits
                      00156         extern _INTCONbits
                      00157         extern _TBLPTRUbits
                      00158         extern _PCLATHbits
                      00159         extern _PCLATUbits
gpasm-0.14.3 #861 (Nov  5 2012) /home/valenti   6-16-2013  19:42:02         PAGE  4


LOC  OBJECT CODE     LINE SOURCE TEXT
  VALUE

                      00160         extern _STKPTRbits
                      00161         extern _TOSUbits
                      00162         extern _usb_device_state
                      00163         extern _usb_active_cfg
                      00164         extern _usb_active_alt_setting
                      00165         extern _ep_bdt
                      00166         extern _SPPDATA
                      00167         extern _SPPCFG
                      00168         extern _SPPEPS
                      00169         extern _SPPCON
                      00170         extern _UFRML
                      00171         extern _UFRMH
                      00172         extern _UIR
                      00173         extern _UIE
                      00174         extern _UEIR
                      00175         extern _UEIE
                      00176         extern _USTAT
                      00177         extern _UCON
                      00178         extern _UADDR
                      00179         extern _UCFG
                      00180         extern _UEP0
                      00181         extern _UEP1
                      00182         extern _UEP2
                      00183         extern _UEP3
                      00184         extern _UEP4
                      00185         extern _UEP5
                      00186         extern _UEP6
                      00187         extern _UEP7
                      00188         extern _UEP8
                      00189         extern _UEP9
                      00190         extern _UEP10
                      00191         extern _UEP11
                      00192         extern _UEP12
                      00193         extern _UEP13
                      00194         extern _UEP14
                      00195         extern _UEP15
                      00196         extern _PORTA
                      00197         extern _PORTB
                      00198         extern _PORTC
                      00199         extern _PORTD
                      00200         extern _PORTE
                      00201         extern _LATA
                      00202         extern _LATB
                      00203         extern _LATC
                      00204         extern _LATD
                      00205         extern _LATE
                      00206         extern _TRISA
                      00207         extern _TRISB
                      00208         extern _TRISC
                      00209         extern _TRISD
                      00210         extern _TRISE
                      00211         extern _OSCTUNE
                      00212         extern _PIE1
gpasm-0.14.3 #861 (Nov  5 2012) /home/valenti   6-16-2013  19:42:02         PAGE  5


LOC  OBJECT CODE     LINE SOURCE TEXT
  VALUE

                      00213         extern _PIR1
                      00214         extern _IPR1
                      00215         extern _PIE2
                      00216         extern _PIR2
                      00217         extern _IPR2
                      00218         extern _EECON1
                      00219         extern _EECON2
                      00220         extern _EEDATA
                      00221         extern _EEADR
                      00222         extern _RCSTA
                      00223         extern _TXSTA
                      00224         extern _TXREG
                      00225         extern _RCREG
                      00226         extern _SPBRG
                      00227         extern _SPBRGH
                      00228         extern _T3CON
                      00229         extern _TMR3L
                      00230         extern _TMR3H
                      00231         extern _CMCON
                      00232         extern _CVRCON
                      00233         extern _ECCP1AS
                      00234         extern _ECCP1DEL
                      00235         extern _BAUDCON
                      00236         extern _CCP2CON
                      00237         extern _CCPR2L
                      00238         extern _CCPR2H
                      00239         extern _CCP1CON
                      00240         extern _CCPR1L
                      00241         extern _CCPR1H
                      00242         extern _ADCON2
                      00243         extern _ADCON1
                      00244         extern _ADCON0
                      00245         extern _ADRESL
                      00246         extern _ADRESH
                      00247         extern _SSPCON2
                      00248         extern _SSPCON1
                      00249         extern _SSPSTAT
                      00250         extern _SSPADD
                      00251         extern _SSPBUF
                      00252         extern _T2CON
                      00253         extern _PR2
                      00254         extern _TMR2
                      00255         extern _T1CON
                      00256         extern _TMR1L
                      00257         extern _TMR1H
                      00258         extern _RCON
                      00259         extern _WDTCON
                      00260         extern _HLVDCON
                      00261         extern _OSCCON
                      00262         extern _T0CON
                      00263         extern _TMR0L
                      00264         extern _TMR0H
                      00265         extern _STATUS
gpasm-0.14.3 #861 (Nov  5 2012) /home/valenti   6-16-2013  19:42:02         PAGE  6


LOC  OBJECT CODE     LINE SOURCE TEXT
  VALUE

                      00266         extern _FSR2L
                      00267         extern _FSR2H
                      00268         extern _PLUSW2
                      00269         extern _PREINC2
                      00270         extern _POSTDEC2
                      00271         extern _POSTINC2
                      00272         extern _INDF2
                      00273         extern _BSR
                      00274         extern _FSR1L
                      00275         extern _FSR1H
                      00276         extern _PLUSW1
                      00277         extern _PREINC1
                      00278         extern _POSTDEC1
                      00279         extern _POSTINC1
                      00280         extern _INDF1
                      00281         extern _WREG
                      00282         extern _FSR0L
                      00283         extern _FSR0H
                      00284         extern _PLUSW0
                      00285         extern _PREINC0
                      00286         extern _POSTDEC0
                      00287         extern _POSTINC0
                      00288         extern _INDF0
                      00289         extern _INTCON3
                      00290         extern _INTCON2
                      00291         extern _INTCON
                      00292         extern _PRODL
                      00293         extern _PRODH
                      00294         extern _TABLAT
                      00295         extern _TBLPTRL
                      00296         extern _TBLPTRH
                      00297         extern _TBLPTRU
                      00298         extern _PCL
                      00299         extern _PCLATH
                      00300         extern _PCLATU
                      00301         extern _STKPTR
                      00302         extern _TOSL
                      00303         extern _TOSH
                      00304         extern _TOSU
                      00305         extern _dispatch_usb_event
                      00306         extern _fill_in_buffer
                      00307         extern _delay10ktcy
                      00308 ;--------------------------------------------------------
                      00309 ;       Equates to used internal registers
                      00310 ;--------------------------------------------------------
  00000FD8            00311 STATUS  equ     0xfd8
  00000FF9            00312 PCL     equ     0xff9
  00000FFA            00313 PCLATH  equ     0xffa
  00000FFB            00314 PCLATU  equ     0xffb
  00000FE8            00315 WREG    equ     0xfe8
  00000FE0            00316 BSR     equ     0xfe0
  00000FF6            00317 TBLPTRL equ     0xff6
  00000FF7            00318 TBLPTRH equ     0xff7
gpasm-0.14.3 #861 (Nov  5 2012) /home/valenti   6-16-2013  19:42:02         PAGE  7


LOC  OBJECT CODE     LINE SOURCE TEXT
  VALUE

  00000FF8            00319 TBLPTRU equ     0xff8
  00000FF5            00320 TABLAT  equ     0xff5
  00000FE9            00321 FSR0L   equ     0xfe9
  00000FEA            00322 FSR0H   equ     0xfea
  00000FE1            00323 FSR1L   equ     0xfe1
  00000FD9            00324 FSR2L   equ     0xfd9
  00000FEF            00325 INDF0   equ     0xfef
  00000FE5            00326 POSTDEC1        equ     0xfe5
  00000FE4            00327 PREINC1 equ     0xfe4
  00000FDB            00328 PLUSW2  equ     0xfdb
  00000FF3            00329 PRODL   equ     0xff3
  00000FF4            00330 PRODH   equ     0xff4
                      00331 
                      00332 
                      00333         idata
000000 00             00334 _phase  db      0x00
000001 00             00335 _needreordering db      0x00
000002 00             00336 _timedivision   db      0x00
000003 00 00 00       00337 _activatedservos        db      0x00, 0x00, 0x00
000006 00 00 00 00    00338 _tiempo db      0x00, 0x00, 0x00, 0x00
00000A 00 00 00 00    00339 _tiempo2        db      0x00, 0x00, 0x00, 0x00
                      00340 
                      00341 
                      00342 ; Internal registers
                      00343 .registers      udata_ovr       0x0000
000000                00344 r0x00   res     1
000001                00345 r0x01   res     1
000002                00346 r0x02   res     1
000003                00347 r0x03   res     1
000004                00348 r0x04   res     1
000005                00349 r0x05   res     1
000006                00350 r0x06   res     1
000007                00351 r0x07   res     1
000008                00352 r0x08   res     1
000009                00353 r0x09   res     1
00000A                00354 r0x0a   res     1
00000B                00355 r0x0b   res     1
00000C                00356 r0x0c   res     1
                      00357 
                      00358 
                      00359 usb_buf udata
000000                00360 _TXBuffer       res     64
000040                00361 _RXbuffer       res     64
                      00362 
                      00363 udata_main_0    udata
000000                00364 _loopvar        res     1
                      00365 
                      00366 udata_main_1    udata
000000                00367 _last_send_was_null     res     1
                      00368 
                      00369 udata_main_2    udata
000000                00370 _i      res     1
                      00371 
gpasm-0.14.3 #861 (Nov  5 2012) /home/valenti   6-16-2013  19:42:02         PAGE  8


LOC  OBJECT CODE     LINE SOURCE TEXT
  VALUE

                      00372 udata_main_3    udata
000000                00373 _servovalues    res     18
                      00374 
                      00375 udata_main_4    udata
000000                00376 _timingindex    res     1
                      00377 
                      00378 udata_main_5    udata
000000                00379 _timings        res     72
                      00380 
                      00381 udata_main_6    udata
000000                00382 _SortServoTimings_mascaratotal_1_1      res     3
                      00383 
                      00384 udata_main_7    udata
000000                00385 _usbwp  res     1
                      00386 
                      00387 udata_main_8    udata
000000                00388 _usbrp  res     1
                      00389 
                      00390 udata_main_9    udata
000000                00391 _ep2_num_bytes_to_send  res     2
                      00392 
                      00393 udata_main_10   udata
000000                00394 _ep2_source_data        res     3
                      00395 
                      00396 udata_main_11   udata
000000                00397 _usbrx  res     64
                      00398 
                      00399 udata_main_12   udata
000000                00400 _received_char  res     1
                      00401 
                      00402 ;--------------------------------------------------------
                      00403 ; global & static initialisations
                      00404 ;--------------------------------------------------------
                      00405 ; ; Starting pCode block
                      00406 S_main__high_priority_isr       code    0X002020
002020                00407 _high_priority_isr:
                      00408 ;       .line   98; /home/valentin/.icaro/np05/source/main.c    void high_priority_isr(void) __interrupt
002020 CFE8 FFE5      00409         MOVFF   WREG, POSTDEC1
002024 CFD8 FFE5      00410         MOVFF   STATUS, POSTDEC1
002028 CFE0 FFE5      00411         MOVFF   BSR, POSTDEC1
00202C CFF3 FFE5      00412         MOVFF   PRODL, POSTDEC1
002030 CFF4 FFE5      00413         MOVFF   PRODH, POSTDEC1
002034 CFE9 FFE5      00414         MOVFF   FSR0L, POSTDEC1
002038 CFEA FFE5      00415         MOVFF   FSR0H, POSTDEC1
00203C CFFA FFE5      00416         MOVFF   PCLATH, POSTDEC1
002040 CFFB FFE5      00417         MOVFF   PCLATU, POSTDEC1
                      00418 ;       .line   111; /home/valentin/.icaro/np05/source/main.c   if(PIR2bits.USBIF)
002044 AA??           00419         BTFSS   _PIR2bits, 5
002046 D???           00420         BRA     _00678_DS_
                      00421 ;       .line   113; /home/valentin/.icaro/np05/source/main.c   dispatch_usb_event();
002048 EC00 F???      00422         CALL    _dispatch_usb_event
                      00423 ;       .line   114; /home/valentin/.icaro/np05/source/main.c   UIRbits.SOFIF = 0;
00204C 9C??           00424         BCF     _UIRbits, 6
gpasm-0.14.3 #861 (Nov  5 2012) /home/valenti   6-16-2013  19:42:02         PAGE  9


LOC  OBJECT CODE     LINE SOURCE TEXT
  VALUE

                      00425 ;       .line   115; /home/valentin/.icaro/np05/source/main.c   UIRbits.URSTIF = 0;
00204E 90??           00426         BCF     _UIRbits, 0
                      00427 ;       .line   116; /home/valentin/.icaro/np05/source/main.c   PIR2bits.USBIF = 0;
002050 9A??           00428         BCF     _PIR2bits, 5
                      00429 ;       .line   117; /home/valentin/.icaro/np05/source/main.c   UEIR = 0;
002052 6A??           00430         CLRF    _UEIR
002054                00431 _00678_DS_:
                      00432 ;       .line   134; /home/valentin/.icaro/np05/source/main.c   servos_interrupt();
002054 EC00 F???      00433         CALL    _servos_interrupt
002058 CFE4 FFFB      00434         MOVFF   PREINC1, PCLATU
00205C CFE4 FFFA      00435         MOVFF   PREINC1, PCLATH
002060 CFE4 FFEA      00436         MOVFF   PREINC1, FSR0H
002064 CFE4 FFE9      00437         MOVFF   PREINC1, FSR0L
002068 CFE4 FFF4      00438         MOVFF   PREINC1, PRODH
00206C CFE4 FFF3      00439         MOVFF   PREINC1, PRODL
002070 CFE4 FFE0      00440         MOVFF   PREINC1, BSR
002074 CFE4 FFD8      00441         MOVFF   PREINC1, STATUS
002078 CFE4 FFE8      00442         MOVFF   PREINC1, WREG
00207C 0010           00443         RETFIE  
                      00444 
                      00445 ; ; Starting pCode block
                      00446 S_main__low_priority_isr        code    0X004000
004000                00447 _low_priority_isr:
                      00448 ;       .line   142; /home/valentin/.icaro/np05/source/main.c   void low_priority_isr(void) __interrupt
004000 CFE8 FFE5      00449         MOVFF   WREG, POSTDEC1
004004 CFD8 FFE5      00450         MOVFF   STATUS, POSTDEC1
004008 CFE0 FFE5      00451         MOVFF   BSR, POSTDEC1
00400C CFF3 FFE5      00452         MOVFF   PRODL, POSTDEC1
004010 CFF4 FFE5      00453         MOVFF   PRODH, POSTDEC1
004014 CFE9 FFE5      00454         MOVFF   FSR0L, POSTDEC1
004018 CFEA FFE5      00455         MOVFF   FSR0H, POSTDEC1
00401C CFFA FFE5      00456         MOVFF   PCLATH, POSTDEC1
004020 CFFB FFE5      00457         MOVFF   PCLATU, POSTDEC1
                      00458 ;       .line   144; /home/valentin/.icaro/np05/source/main.c   }
004024 CFE4 FFFB      00459         MOVFF   PREINC1, PCLATU
004028 CFE4 FFFA      00460         MOVFF   PREINC1, PCLATH
00402C CFE4 FFEA      00461         MOVFF   PREINC1, FSR0H
004030 CFE4 FFE9      00462         MOVFF   PREINC1, FSR0L
004034 CFE4 FFF4      00463         MOVFF   PREINC1, PRODH
004038 CFE4 FFF3      00464         MOVFF   PREINC1, PRODL
00403C CFE4 FFE0      00465         MOVFF   PREINC1, BSR
004040 CFE4 FFD8      00466         MOVFF   PREINC1, STATUS
004044 CFE4 FFE8      00467         MOVFF   PREINC1, WREG
004048 0010           00468         RETFIE  
                      00469 
                      00470 ; I code from now on!
                      00471 ; ; Starting pCode block
                      00472 S_main__pinguino_main   code
000000                00473 _pinguino_main:
                      00474 ;       .line   54; /home/valentin/.icaro/np05/source/main.c    PIE1=0;
000000 6A??           00475         CLRF    _PIE1
                      00476 ;       .line   55; /home/valentin/.icaro/np05/source/main.c    PIE2=0;
000002 6A??           00477         CLRF    _PIE2
gpasm-0.14.3 #861 (Nov  5 2012) /home/valenti   6-16-2013  19:42:02         PAGE 10


LOC  OBJECT CODE     LINE SOURCE TEXT
  VALUE

                      00478 ;       .line   56; /home/valentin/.icaro/np05/source/main.c    ADCON1=0x0F;
000004 0E0F           00479         MOVLW   0x0f
000006 6E??           00480         MOVWF   _ADCON1
                      00481 ;       .line   58; /home/valentin/.icaro/np05/source/main.c    PIE2bits.USBIE = 1;
000008 8A??           00482         BSF     _PIE2bits, 5
                      00483 ;       .line   59; /home/valentin/.icaro/np05/source/main.c    INTCON = 0xC0;
00000A 0EC0           00484         MOVLW   0xc0
00000C 6E??           00485         MOVWF   _INTCON
                      00486 ;       .line   61; /home/valentin/.icaro/np05/source/main.c    setup();
00000E EC?? F???      00487         CALL    _setup
                      00488 ;       .line   63; /home/valentin/.icaro/np05/source/main.c    analog_init();
000012 EC?? F???      00489         CALL    _analog_init
                      00490 ;       .line   69; /home/valentin/.icaro/np05/source/main.c    servos_init();
000016 EC?? F???      00491         CALL    _servos_init
                      00492 ;       .line   85; /home/valentin/.icaro/np05/source/main.c    INTCONbits.PEIE=1;
00001A 8C??           00493         BSF     _INTCONbits, 6
                      00494 ;       .line   86; /home/valentin/.icaro/np05/source/main.c    INTCONbits.GIE=1;
00001C 8E??           00495         BSF     _INTCONbits, 7
00001E                00496 _00670_DS_:
                      00497 ;       .line   91; /home/valentin/.icaro/np05/source/main.c    loop();
00001E EC?? F???      00498         CALL    _loop
000022 D???           00499         BRA     _00670_DS_
000024 0012           00500         RETURN  
                      00501 
                      00502 ; ; Starting pCode block
                      00503 S_main__loop    code
000000                00504 _loop:
                      00505 ;       .line   66; /home/valentin/.icaro/np05/source/user.c    void loop()
000000 C??? FFE5      00506         MOVFF   r0x00, POSTDEC1
                      00507 ;       .line   68; /home/valentin/.icaro/np05/source/user.c    if (usbavailable())
000004 EC?? F???      00508         CALL    _usbavailable
000008 6E??           00509         MOVWF   r0x00
00000A 50??           00510         MOVF    r0x00, W
00000C B4D8           00511         BTFSC   STATUS, 2
00000E D???           00512         BRA     _00656_DS_
                      00513 ;       .line   70; /home/valentin/.icaro/np05/source/user.c    received_char=usbread();
000010 EC?? F???      00514         CALL    _usbread
                      00515 ; #     MOVWF   r0x00
                      00516 ; #     MOVF    r0x00, W
                      00517 ; #     MOVWF   _received_char, B
                      00518 ; #     MOVF    _received_char, W, B
000014 ????           00519         BANKSEL _received_char
                      00520 ;       .line   71; /home/valentin/.icaro/np05/source/user.c    if (received_char=='L')
000016 6F??           00521         MOVWF   _received_char, B
000018 0A4C           00522         XORLW   0x4c
00001A E1??           00523         BNZ     _00651_DS_
                      00524 ;       .line   73; /home/valentin/.icaro/np05/source/user.c    ServoWrite(10,100);
00001C 0E64           00525         MOVLW   0x64
00001E 6EE5           00526         MOVWF   POSTDEC1
000020 0E0A           00527         MOVLW   0x0a
000022 6EE5           00528         MOVWF   POSTDEC1
000024 EC?? F???      00529         CALL    _ServoWrite
000028 0E02           00530         MOVLW   0x02
gpasm-0.14.3 #861 (Nov  5 2012) /home/valenti   6-16-2013  19:42:02         PAGE 11


LOC  OBJECT CODE     LINE SOURCE TEXT
  VALUE

00002A 26E1           00531         ADDWF   FSR1L, F
00002C ????           00532         BANKSEL _received_char
                      00533 ;       .line   74; /home/valentin/.icaro/np05/source/user.c    usbsend(received_char,4);
00002E 51??           00534         MOVF    _received_char, W, B
000030 6E??           00535         MOVWF   r0x00
000032 6AE5           00536         CLRF    POSTDEC1
000034 0E04           00537         MOVLW   0x04
000036 6EE5           00538         MOVWF   POSTDEC1
000038 0E80           00539         MOVLW   0x80
00003A 6EE5           00540         MOVWF   POSTDEC1
00003C 6AE5           00541         CLRF    POSTDEC1
00003E 50??           00542         MOVF    r0x00, W
000040 6EE5           00543         MOVWF   POSTDEC1
000042 EC?? F???      00544         CALL    _usbsend
000046 0E05           00545         MOVLW   0x05
000048 26E1           00546         ADDWF   FSR1L, F
                      00547 ;       .line   75; /home/valentin/.icaro/np05/source/user.c    Delayms(1000);
00004A 6AE5           00548         CLRF    POSTDEC1
00004C 6AE5           00549         CLRF    POSTDEC1
00004E 0E03           00550         MOVLW   0x03
000050 6EE5           00551         MOVWF   POSTDEC1
000052 0EE8           00552         MOVLW   0xe8
000054 6EE5           00553         MOVWF   POSTDEC1
000056 EC?? F???      00554         CALL    _Delayms
00005A 0E04           00555         MOVLW   0x04
00005C 26E1           00556         ADDWF   FSR1L, F
00005E                00557 _00651_DS_:
00005E ????           00558         BANKSEL _received_char
                      00559 ;       .line   78; /home/valentin/.icaro/np05/source/user.c    if (received_char=='A')
000060 51??           00560         MOVF    _received_char, W, B
000062 0A41           00561         XORLW   0x41
000064 E1??           00562         BNZ     _00656_DS_
                      00563 ;       .line   80; /home/valentin/.icaro/np05/source/user.c    ServoWrite(10,20);
000066 0E14           00564         MOVLW   0x14
000068 6EE5           00565         MOVWF   POSTDEC1
00006A 0E0A           00566         MOVLW   0x0a
00006C 6EE5           00567         MOVWF   POSTDEC1
00006E EC?? F???      00568         CALL    _ServoWrite
000072 0E02           00569         MOVLW   0x02
000074 26E1           00570         ADDWF   FSR1L, F
000076 ????           00571         BANKSEL _received_char
                      00572 ;       .line   81; /home/valentin/.icaro/np05/source/user.c    usbsend(received_char,4);
000078 51??           00573         MOVF    _received_char, W, B
00007A 6E??           00574         MOVWF   r0x00
00007C 6AE5           00575         CLRF    POSTDEC1
00007E 0E04           00576         MOVLW   0x04
000080 6EE5           00577         MOVWF   POSTDEC1
000082 0E80           00578         MOVLW   0x80
000084 6EE5           00579         MOVWF   POSTDEC1
000086 6AE5           00580         CLRF    POSTDEC1
000088 50??           00581         MOVF    r0x00, W
00008A 6EE5           00582         MOVWF   POSTDEC1
00008C EC?? F???      00583         CALL    _usbsend
gpasm-0.14.3 #861 (Nov  5 2012) /home/valenti   6-16-2013  19:42:02         PAGE 12


LOC  OBJECT CODE     LINE SOURCE TEXT
  VALUE

000090 0E05           00584         MOVLW   0x05
000092 26E1           00585         ADDWF   FSR1L, F
                      00586 ;       .line   82; /home/valentin/.icaro/np05/source/user.c    Delayms(1000);
000094 6AE5           00587         CLRF    POSTDEC1
000096 6AE5           00588         CLRF    POSTDEC1
000098 0E03           00589         MOVLW   0x03
00009A 6EE5           00590         MOVWF   POSTDEC1
00009C 0EE8           00591         MOVLW   0xe8
00009E 6EE5           00592         MOVWF   POSTDEC1
0000A0 EC?? F???      00593         CALL    _Delayms
0000A4 0E04           00594         MOVLW   0x04
0000A6 26E1           00595         ADDWF   FSR1L, F
0000A8                00596 _00656_DS_:
0000A8 CFE4 F???      00597         MOVFF   PREINC1, r0x00
0000AC 0012           00598         RETURN  
                      00599 
                      00600 ; ; Starting pCode block
                      00601 S_main__ServoLento      code
000000                00602 _ServoLento:
                      00603 ;       .line   45; /home/valentin/.icaro/np05/source/user.c    void ServoLento(int servo,int inicial,int final,int tiempo)
000000 CFD9 FFE5      00604         MOVFF   FSR2L, POSTDEC1
000004 CFE1 FFD9      00605         MOVFF   FSR1L, FSR2L
000008 C??? FFE5      00606         MOVFF   r0x00, POSTDEC1
00000C C??? FFE5      00607         MOVFF   r0x01, POSTDEC1
000010 C??? FFE5      00608         MOVFF   r0x02, POSTDEC1
000014 C??? FFE5      00609         MOVFF   r0x03, POSTDEC1
000018 C??? FFE5      00610         MOVFF   r0x04, POSTDEC1
00001C C??? FFE5      00611         MOVFF   r0x05, POSTDEC1
000020 C??? FFE5      00612         MOVFF   r0x06, POSTDEC1
000024 C??? FFE5      00613         MOVFF   r0x07, POSTDEC1
000028 C??? FFE5      00614         MOVFF   r0x08, POSTDEC1
00002C C??? FFE5      00615         MOVFF   r0x09, POSTDEC1
000030 C??? FFE5      00616         MOVFF   r0x0a, POSTDEC1
000034 C??? FFE5      00617         MOVFF   r0x0b, POSTDEC1
000038 C??? FFE5      00618         MOVFF   r0x0c, POSTDEC1
00003C 0E02           00619         MOVLW   0x02
00003E CFDB F???      00620         MOVFF   PLUSW2, r0x00
000042 0E03           00621         MOVLW   0x03
000044 CFDB F???      00622         MOVFF   PLUSW2, r0x01
000048 0E04           00623         MOVLW   0x04
00004A CFDB F???      00624         MOVFF   PLUSW2, r0x02
00004E 0E05           00625         MOVLW   0x05
000050 CFDB F???      00626         MOVFF   PLUSW2, r0x03
000054 0E06           00627         MOVLW   0x06
000056 CFDB F???      00628         MOVFF   PLUSW2, r0x04
00005A 0E07           00629         MOVLW   0x07
00005C CFDB F???      00630         MOVFF   PLUSW2, r0x05
000060 0E08           00631         MOVLW   0x08
000062 CFDB F???      00632         MOVFF   PLUSW2, r0x06
000066 0E09           00633         MOVLW   0x09
000068 CFDB F???      00634         MOVFF   PLUSW2, r0x07
                      00635 ;       .line   48; /home/valentin/.icaro/np05/source/user.c    if (inicial<final)
00006C 50??           00636         MOVF    r0x03, W
gpasm-0.14.3 #861 (Nov  5 2012) /home/valenti   6-16-2013  19:42:02         PAGE 13


LOC  OBJECT CODE     LINE SOURCE TEXT
  VALUE

00006E 0F80           00637         ADDLW   0x80
000070 6EF3           00638         MOVWF   PRODL
000072 50??           00639         MOVF    r0x05, W
000074 0F80           00640         ADDLW   0x80
000076 5CF3           00641         SUBWF   PRODL, W
000078 E1??           00642         BNZ     _00642_DS_
00007A 50??           00643         MOVF    r0x04, W
00007C 5C??           00644         SUBWF   r0x02, W
00007E                00645 _00642_DS_:
00007E E2??           00646         BC      _00621_DS_
                      00647 ;       .line   50; /home/valentin/.icaro/np05/source/user.c    for (grado=inicial;grado<final;grado++)
000080 C??? F???      00648         MOVFF   r0x02, r0x08
000084 C??? F???      00649         MOVFF   r0x03, r0x09
000088                00650 _00624_DS_:
000088 50??           00651         MOVF    r0x09, W
00008A 0F80           00652         ADDLW   0x80
00008C 6EF3           00653         MOVWF   PRODL
00008E 50??           00654         MOVF    r0x05, W
000090 0F80           00655         ADDLW   0x80
000092 5CF3           00656         SUBWF   PRODL, W
000094 E1??           00657         BNZ     _00643_DS_
000096 50??           00658         MOVF    r0x04, W
000098 5C??           00659         SUBWF   r0x08, W
00009A                00660 _00643_DS_:
00009A E2??           00661         BC      _00621_DS_
                      00662 ;       .line   52; /home/valentin/.icaro/np05/source/user.c    ServoWrite(servo,grado);
00009C 50??           00663         MOVF    r0x00, W
00009E 6E??           00664         MOVWF   r0x0a
                      00665 ; #     MOVF    r0x08, W
                      00666 ; #     MOVWF   r0x0b
                      00667 ; #     MOVF    r0x0b, W
0000A0 50??           00668         MOVF    r0x08, W
0000A2 6EE5           00669         MOVWF   POSTDEC1
0000A4 50??           00670         MOVF    r0x0a, W
0000A6 6EE5           00671         MOVWF   POSTDEC1
0000A8 EC?? F???      00672         CALL    _ServoWrite
0000AC 0E02           00673         MOVLW   0x02
0000AE 26E1           00674         ADDWF   FSR1L, F
                      00675 ;       .line   53; /home/valentin/.icaro/np05/source/user.c    Delayms(tiempo);
0000B0 C??? F???      00676         MOVFF   r0x06, r0x0a
0000B4 C??? F???      00677         MOVFF   r0x07, r0x0b
0000B8 6AE8           00678         CLRF    WREG
0000BA BE??           00679         BTFSC   r0x07, 7
0000BC 0EFF           00680         MOVLW   0xff
0000BE 6E??           00681         MOVWF   r0x0c
                      00682 ; #     MOVWF   r0x0d
                      00683 ; #     MOVF    r0x0d, W
0000C0 6EE5           00684         MOVWF   POSTDEC1
0000C2 50??           00685         MOVF    r0x0c, W
0000C4 6EE5           00686         MOVWF   POSTDEC1
0000C6 50??           00687         MOVF    r0x0b, W
0000C8 6EE5           00688         MOVWF   POSTDEC1
0000CA 50??           00689         MOVF    r0x0a, W
gpasm-0.14.3 #861 (Nov  5 2012) /home/valenti   6-16-2013  19:42:02         PAGE 14


LOC  OBJECT CODE     LINE SOURCE TEXT
  VALUE

0000CC 6EE5           00690         MOVWF   POSTDEC1
0000CE EC?? F???      00691         CALL    _Delayms
0000D2 0E04           00692         MOVLW   0x04
0000D4 26E1           00693         ADDWF   FSR1L, F
                      00694 ;       .line   50; /home/valentin/.icaro/np05/source/user.c    for (grado=inicial;grado<final;grado++)
0000D6 2A??           00695         INCF    r0x08, F
0000D8 B0D8           00696         BTFSC   STATUS, 0
0000DA 2A??           00697         INCF    r0x09, F
0000DC D???           00698         BRA     _00624_DS_
0000DE                00699 _00621_DS_:
                      00700 ;       .line   56; /home/valentin/.icaro/np05/source/user.c    if (inicial>final)
0000DE 50??           00701         MOVF    r0x05, W
0000E0 0F80           00702         ADDLW   0x80
0000E2 6EF3           00703         MOVWF   PRODL
0000E4 50??           00704         MOVF    r0x03, W
0000E6 0F80           00705         ADDLW   0x80
0000E8 5CF3           00706         SUBWF   PRODL, W
0000EA E1??           00707         BNZ     _00644_DS_
0000EC 50??           00708         MOVF    r0x02, W
0000EE 5C??           00709         SUBWF   r0x04, W
0000F0                00710 _00644_DS_:
0000F0 E2??           00711         BC      _00632_DS_
0000F2                00712 _00628_DS_:
                      00713 ;       .line   58; /home/valentin/.icaro/np05/source/user.c    for (grado=inicial;grado>final;grado--)
0000F2 50??           00714         MOVF    r0x05, W
0000F4 0F80           00715         ADDLW   0x80
0000F6 6EF3           00716         MOVWF   PRODL
0000F8 50??           00717         MOVF    r0x03, W
0000FA 0F80           00718         ADDLW   0x80
0000FC 5CF3           00719         SUBWF   PRODL, W
0000FE E1??           00720         BNZ     _00645_DS_
000100 50??           00721         MOVF    r0x02, W
000102 5C??           00722         SUBWF   r0x04, W
000104                00723 _00645_DS_:
000104 E2??           00724         BC      _00632_DS_
                      00725 ;       .line   60; /home/valentin/.icaro/np05/source/user.c    ServoWrite(servo,grado);
000106 50??           00726         MOVF    r0x00, W
000108 6E??           00727         MOVWF   r0x08
                      00728 ; #     MOVF    r0x02, W
                      00729 ; #     MOVWF   r0x09
                      00730 ; #     MOVF    r0x09, W
00010A 50??           00731         MOVF    r0x02, W
00010C 6EE5           00732         MOVWF   POSTDEC1
00010E 50??           00733         MOVF    r0x08, W
000110 6EE5           00734         MOVWF   POSTDEC1
000112 EC?? F???      00735         CALL    _ServoWrite
000116 0E02           00736         MOVLW   0x02
000118 26E1           00737         ADDWF   FSR1L, F
                      00738 ;       .line   61; /home/valentin/.icaro/np05/source/user.c    Delayms(tiempo);
00011A C??? F???      00739         MOVFF   r0x06, r0x08
00011E C??? F???      00740         MOVFF   r0x07, r0x09
000122 6AE8           00741         CLRF    WREG
000124 BE??           00742         BTFSC   r0x07, 7
gpasm-0.14.3 #861 (Nov  5 2012) /home/valenti   6-16-2013  19:42:02         PAGE 15


LOC  OBJECT CODE     LINE SOURCE TEXT
  VALUE

000126 0EFF           00743         MOVLW   0xff
000128 6E??           00744         MOVWF   r0x0a
                      00745 ; #     MOVWF   r0x0b
                      00746 ; #     MOVF    r0x0b, W
00012A 6EE5           00747         MOVWF   POSTDEC1
00012C 50??           00748         MOVF    r0x0a, W
00012E 6EE5           00749         MOVWF   POSTDEC1
000130 50??           00750         MOVF    r0x09, W
000132 6EE5           00751         MOVWF   POSTDEC1
000134 50??           00752         MOVF    r0x08, W
000136 6EE5           00753         MOVWF   POSTDEC1
000138 EC?? F???      00754         CALL    _Delayms
00013C 0E04           00755         MOVLW   0x04
00013E 26E1           00756         ADDWF   FSR1L, F
                      00757 ;       .line   58; /home/valentin/.icaro/np05/source/user.c    for (grado=inicial;grado>final;grado--)
000140 0EFF           00758         MOVLW   0xff
000142 26??           00759         ADDWF   r0x02, F
000144 A0D8           00760         BTFSS   STATUS, 0
000146 06??           00761         DECF    r0x03, F
000148 D???           00762         BRA     _00628_DS_
00014A                00763 _00632_DS_:
00014A CFE4 F???      00764         MOVFF   PREINC1, r0x0c
00014E CFE4 F???      00765         MOVFF   PREINC1, r0x0b
000152 CFE4 F???      00766         MOVFF   PREINC1, r0x0a
000156 CFE4 F???      00767         MOVFF   PREINC1, r0x09
00015A CFE4 F???      00768         MOVFF   PREINC1, r0x08
00015E CFE4 F???      00769         MOVFF   PREINC1, r0x07
000162 CFE4 F???      00770         MOVFF   PREINC1, r0x06
000166 CFE4 F???      00771         MOVFF   PREINC1, r0x05
00016A CFE4 F???      00772         MOVFF   PREINC1, r0x04
00016E CFE4 F???      00773         MOVFF   PREINC1, r0x03
000172 CFE4 F???      00774         MOVFF   PREINC1, r0x02
000176 CFE4 F???      00775         MOVFF   PREINC1, r0x01
00017A CFE4 F???      00776         MOVFF   PREINC1, r0x00
00017E CFE4 FFD9      00777         MOVFF   PREINC1, FSR2L
000182 0012           00778         RETURN  
                      00779 
                      00780 ; ; Starting pCode block
                      00781 S_main__sensor  code
000000                00782 _sensor:
                      00783 ;       .line   38; /home/valentin/.icaro/np05/source/user.c    unsigned int sensor(int valor)
000000 CFD9 FFE5      00784         MOVFF   FSR2L, POSTDEC1
000004 CFE1 FFD9      00785         MOVFF   FSR1L, FSR2L
000008 C??? FFE5      00786         MOVFF   r0x00, POSTDEC1
00000C C??? FFE5      00787         MOVFF   r0x01, POSTDEC1
000010 0E02           00788         MOVLW   0x02
000012 CFDB F???      00789         MOVFF   PLUSW2, r0x00
000016 0E03           00790         MOVLW   0x03
000018 CFDB F???      00791         MOVFF   PLUSW2, r0x01
                      00792 ;       .line   41; /home/valentin/.icaro/np05/source/user.c    an=analogread(valor);
00001C 50??           00793         MOVF    r0x00, W
00001E 6EE5           00794         MOVWF   POSTDEC1
000020 EC?? F???      00795         CALL    _analogread
gpasm-0.14.3 #861 (Nov  5 2012) /home/valenti   6-16-2013  19:42:02         PAGE 16


LOC  OBJECT CODE     LINE SOURCE TEXT
  VALUE

000024 CFF3 F???      00796         MOVFF   PRODL, r0x01
000028 2AE1           00797         INCF    FSR1L, F
                      00798 ;       .line   42; /home/valentin/.icaro/np05/source/user.c    return an;
00002A C??? FFF3      00799         MOVFF   r0x01, PRODL
00002E CFE4 F???      00800         MOVFF   PREINC1, r0x01
000032 CFE4 F???      00801         MOVFF   PREINC1, r0x00
000036 CFE4 FFD9      00802         MOVFF   PREINC1, FSR2L
00003A 0012           00803         RETURN  
                      00804 
                      00805 ; ; Starting pCode block
                      00806 S_main__setup   code
000000                00807 _setup:
                      00808 ;       .line   21; /home/valentin/.icaro/np05/source/user.c    TRISB=0;
000000 6A??           00809         CLRF    _TRISB
                      00810 ;       .line   22; /home/valentin/.icaro/np05/source/user.c    pinmode(15,INPUT);
000002 6AE5           00811         CLRF    POSTDEC1
000004 0E01           00812         MOVLW   0x01
000006 6EE5           00813         MOVWF   POSTDEC1
000008 6AE5           00814         CLRF    POSTDEC1
00000A 0E0F           00815         MOVLW   0x0f
00000C 6EE5           00816         MOVWF   POSTDEC1
00000E EC?? F???      00817         CALL    _pinmode
000012 0E04           00818         MOVLW   0x04
000014 26E1           00819         ADDWF   FSR1L, F
                      00820 ;       .line   23; /home/valentin/.icaro/np05/source/user.c    pinmode(21,INPUT);
000016 6AE5           00821         CLRF    POSTDEC1
000018 0E01           00822         MOVLW   0x01
00001A 6EE5           00823         MOVWF   POSTDEC1
00001C 6AE5           00824         CLRF    POSTDEC1
00001E 0E15           00825         MOVLW   0x15
000020 6EE5           00826         MOVWF   POSTDEC1
000022 EC?? F???      00827         CALL    _pinmode
000026 0E04           00828         MOVLW   0x04
000028 26E1           00829         ADDWF   FSR1L, F
                      00830 ;       .line   24; /home/valentin/.icaro/np05/source/user.c    pinmode(22,INPUT);
00002A 6AE5           00831         CLRF    POSTDEC1
00002C 0E01           00832         MOVLW   0x01
00002E 6EE5           00833         MOVWF   POSTDEC1
000030 6AE5           00834         CLRF    POSTDEC1
000032 0E16           00835         MOVLW   0x16
000034 6EE5           00836         MOVWF   POSTDEC1
000036 EC?? F???      00837         CALL    _pinmode
00003A 0E04           00838         MOVLW   0x04
00003C 26E1           00839         ADDWF   FSR1L, F
                      00840 ;       .line   25; /home/valentin/.icaro/np05/source/user.c    pinmode(23,INPUT);
00003E 6AE5           00841         CLRF    POSTDEC1
000040 0E01           00842         MOVLW   0x01
000042 6EE5           00843         MOVWF   POSTDEC1
000044 6AE5           00844         CLRF    POSTDEC1
000046 0E17           00845         MOVLW   0x17
000048 6EE5           00846         MOVWF   POSTDEC1
00004A EC?? F???      00847         CALL    _pinmode
00004E 0E04           00848         MOVLW   0x04
gpasm-0.14.3 #861 (Nov  5 2012) /home/valenti   6-16-2013  19:42:02         PAGE 17


LOC  OBJECT CODE     LINE SOURCE TEXT
  VALUE

000050 26E1           00849         ADDWF   FSR1L, F
                      00850 ;       .line   26; /home/valentin/.icaro/np05/source/user.c    pinmode(24,INPUT);
000052 6AE5           00851         CLRF    POSTDEC1
000054 0E01           00852         MOVLW   0x01
000056 6EE5           00853         MOVWF   POSTDEC1
000058 6AE5           00854         CLRF    POSTDEC1
00005A 0E18           00855         MOVLW   0x18
00005C 6EE5           00856         MOVWF   POSTDEC1
00005E EC?? F???      00857         CALL    _pinmode
000062 0E04           00858         MOVLW   0x04
000064 26E1           00859         ADDWF   FSR1L, F
                      00860 ;       .line   27; /home/valentin/.icaro/np05/source/user.c    pinmode(25,OUTPUT);
000066 6AE5           00861         CLRF    POSTDEC1
000068 6AE5           00862         CLRF    POSTDEC1
00006A 6AE5           00863         CLRF    POSTDEC1
00006C 0E19           00864         MOVLW   0x19
00006E 6EE5           00865         MOVWF   POSTDEC1
000070 EC?? F???      00866         CALL    _pinmode
000074 0E04           00867         MOVLW   0x04
000076 26E1           00868         ADDWF   FSR1L, F
                      00869 ;       .line   28; /home/valentin/.icaro/np05/source/user.c    pinmode(26,OUTPUT);
000078 6AE5           00870         CLRF    POSTDEC1
00007A 6AE5           00871         CLRF    POSTDEC1
00007C 6AE5           00872         CLRF    POSTDEC1
00007E 0E1A           00873         MOVLW   0x1a
000080 6EE5           00874         MOVWF   POSTDEC1
000082 EC?? F???      00875         CALL    _pinmode
000086 0E04           00876         MOVLW   0x04
000088 26E1           00877         ADDWF   FSR1L, F
                      00878 ;       .line   29; /home/valentin/.icaro/np05/source/user.c    pinmode(27,OUTPUT);
00008A 6AE5           00879         CLRF    POSTDEC1
00008C 6AE5           00880         CLRF    POSTDEC1
00008E 6AE5           00881         CLRF    POSTDEC1
000090 0E1B           00882         MOVLW   0x1b
000092 6EE5           00883         MOVWF   POSTDEC1
000094 EC?? F???      00884         CALL    _pinmode
000098 0E04           00885         MOVLW   0x04
00009A 26E1           00886         ADDWF   FSR1L, F
                      00887 ;       .line   30; /home/valentin/.icaro/np05/source/user.c    pinmode(28,OUTPUT);
00009C 6AE5           00888         CLRF    POSTDEC1
00009E 6AE5           00889         CLRF    POSTDEC1
0000A0 6AE5           00890         CLRF    POSTDEC1
0000A2 0E1C           00891         MOVLW   0x1c
0000A4 6EE5           00892         MOVWF   POSTDEC1
0000A6 EC?? F???      00893         CALL    _pinmode
0000AA 0E04           00894         MOVLW   0x04
0000AC 26E1           00895         ADDWF   FSR1L, F
                      00896 ;       .line   31; /home/valentin/.icaro/np05/source/user.c    ServoAttach(10);
0000AE 0E0A           00897         MOVLW   0x0a
0000B0 6EE5           00898         MOVWF   POSTDEC1
0000B2 EC?? F???      00899         CALL    _ServoAttach
0000B6 2AE1           00900         INCF    FSR1L, F
                      00901 ;       .line   32; /home/valentin/.icaro/np05/source/user.c    ServoAttach(11);
gpasm-0.14.3 #861 (Nov  5 2012) /home/valenti   6-16-2013  19:42:02         PAGE 18


LOC  OBJECT CODE     LINE SOURCE TEXT
  VALUE

0000B8 0E0B           00902         MOVLW   0x0b
0000BA 6EE5           00903         MOVWF   POSTDEC1
0000BC EC?? F???      00904         CALL    _ServoAttach
0000C0 2AE1           00905         INCF    FSR1L, F
                      00906 ;       .line   33; /home/valentin/.icaro/np05/source/user.c    ServoAttach(12);
0000C2 0E0C           00907         MOVLW   0x0c
0000C4 6EE5           00908         MOVWF   POSTDEC1
0000C6 EC?? F???      00909         CALL    _ServoAttach
0000CA 2AE1           00910         INCF    FSR1L, F
                      00911 ;       .line   34; /home/valentin/.icaro/np05/source/user.c    ServoAttach(8);
0000CC 0E08           00912         MOVLW   0x08
0000CE 6EE5           00913         MOVWF   POSTDEC1
0000D0 EC?? F???      00914         CALL    _ServoAttach
0000D4 2AE1           00915         INCF    FSR1L, F
                      00916 ;       .line   35; /home/valentin/.icaro/np05/source/user.c    ServoAttach(9);
0000D6 0E09           00917         MOVLW   0x09
0000D8 6EE5           00918         MOVWF   POSTDEC1
0000DA EC?? F???      00919         CALL    _ServoAttach
0000DE 2AE1           00920         INCF    FSR1L, F
0000E0 0012           00921         RETURN  
                      00922 
                      00923 ; ; Starting pCode block
                      00924 S_main__sensordigital   code
000000                00925 _sensordigital:
                      00926 ;       .line   5; /home/valentin/.icaro/np05/source/user.c     int sensordigital(int valor)
000000 CFD9 FFE5      00927         MOVFF   FSR2L, POSTDEC1
000004 CFE1 FFD9      00928         MOVFF   FSR1L, FSR2L
000008 C??? FFE5      00929         MOVFF   r0x00, POSTDEC1
00000C C??? FFE5      00930         MOVFF   r0x01, POSTDEC1
000010 0E02           00931         MOVLW   0x02
000012 CFDB F???      00932         MOVFF   PLUSW2, r0x00
000016 0E03           00933         MOVLW   0x03
000018 CFDB F???      00934         MOVFF   PLUSW2, r0x01
                      00935 ;       .line   9; /home/valentin/.icaro/np05/source/user.c     temp=digitalread(valor);
00001C 50??           00936         MOVF    r0x01, W
00001E 6EE5           00937         MOVWF   POSTDEC1
000020 50??           00938         MOVF    r0x00, W
000022 6EE5           00939         MOVWF   POSTDEC1
000024 EC?? F???      00940         CALL    _digitalread
000028 6E??           00941         MOVWF   r0x00
00002A CFF3 F???      00942         MOVFF   PRODL, r0x01
00002E 0E02           00943         MOVLW   0x02
000030 26E1           00944         ADDWF   FSR1L, F
                      00945 ;       .line   10; /home/valentin/.icaro/np05/source/user.c    if (temp==0)
000032 50??           00946         MOVF    r0x00, W
000034 10??           00947         IORWF   r0x01, W
000036 E1??           00948         BNZ     _00603_DS_
                      00949 ;       .line   12; /home/valentin/.icaro/np05/source/user.c    return 1;
000038 6AF3           00950         CLRF    PRODL
00003A 0E01           00951         MOVLW   0x01
00003C D???           00952         BRA     _00605_DS_
00003E                00953 _00603_DS_:
                      00954 ;       .line   16; /home/valentin/.icaro/np05/source/user.c    return 0;
gpasm-0.14.3 #861 (Nov  5 2012) /home/valenti   6-16-2013  19:42:02         PAGE 19


LOC  OBJECT CODE     LINE SOURCE TEXT
  VALUE

00003E 6AF3           00955         CLRF    PRODL
000040 6AE8           00956         CLRF    WREG
000042                00957 _00605_DS_:
000042 CFE4 F???      00958         MOVFF   PREINC1, r0x01
000046 CFE4 F???      00959         MOVFF   PREINC1, r0x00
00004A CFE4 FFD9      00960         MOVFF   PREINC1, FSR2L
00004E 0012           00961         RETURN  
                      00962 
                      00963 ; ; Starting pCode block
                      00964 S_main__epapout_init    code
000000                00965 _epapout_init:
                      00966 ;       .line   146; /home/valentin/.icaro/np05/tmp/usb.c       EP_OUT_BD(1).Cnt = EP1_BUFFER_SIZE;
000000 0E40           00967         MOVLW   0x40
000002 ????           00968         BANKSEL (_ep_bdt + 9)
000004 6F??           00969         MOVWF   (_ep_bdt + 9), B
                      00970 ;       .line   147; /home/valentin/.icaro/np05/tmp/usb.c       EP_OUT_BD(1).ADR = (uchar __data *)&RXbuffer;
000006 0E??           00971         MOVLW   LOW(_RXbuffer)
                      00972 ; removed redundant BANKSEL
000008 6F??           00973         MOVWF   (_ep_bdt + 10), B
00000A 0E??           00974         MOVLW   HIGH(_RXbuffer)
                      00975 ; removed redundant BANKSEL
00000C 6F??           00976         MOVWF   (_ep_bdt + 11), B
                      00977 ;       .line   148; /home/valentin/.icaro/np05/tmp/usb.c       EP_OUT_BD(1).Stat.uc = BDS_USIE | BDS_DAT0 | BDS_DTSEN;
00000E 0E88           00978         MOVLW   0x88
                      00979 ; removed redundant BANKSEL
000010 6F??           00980         MOVWF   (_ep_bdt + 8), B
                      00981 ;       .line   149; /home/valentin/.icaro/np05/tmp/usb.c       UEP1 = EPHSHK_EN | EPOUTEN_EN | EPCONDIS_EN;            // Init EPAPPLI as an OUT EP
000012 0E1C           00982         MOVLW   0x1c
000014 6E??           00983         MOVWF   _UEP1
                      00984 ; #     MOVLW   0x01
                      00985 ; #     MOVWF   _usbwp, B
                      00986 ; #     MOVLW   0x01
                      00987 ;       .line   150; /home/valentin/.icaro/np05/tmp/usb.c       usbwp=1;                                                // init pointer for rx buffer pinguino
000016 0E01           00988         MOVLW   0x01
000018 ????           00989         BANKSEL _usbwp
                      00990 ;       .line   151; /home/valentin/.icaro/np05/tmp/usb.c       usbrp=1;
00001A 6F??           00991         MOVWF   _usbwp, B
00001C ????           00992         BANKSEL _usbrp
00001E 6F??           00993         MOVWF   _usbrp, B
000020 0012           00994         RETURN  
                      00995 
                      00996 ; ; Starting pCode block
                      00997 S_main__epap_out        code
000000                00998 _epap_out:
                      00999 ;       .line   110; /home/valentin/.icaro/np05/tmp/usb.c       void epap_out(void)
000000 C??? FFE5      01000         MOVFF   r0x00, POSTDEC1
000004 C??? FFE5      01001         MOVFF   r0x01, POSTDEC1
000008 C??? FFE5      01002         MOVFF   r0x02, POSTDEC1
00000C C??? FFE5      01003         MOVFF   r0x03, POSTDEC1
                      01004 ;       .line   116; /home/valentin/.icaro/np05/tmp/usb.c       if((EP_OUT_BD(1).Cnt >= 1) && ( EP_OUT_BD(1).Cnt<EP1_BUFFER_SIZE))
000010 0E01           01005         MOVLW   0x01
000012 ????           01006         BANKSEL (_ep_bdt + 9)
000014 5D??           01007         SUBWF   (_ep_bdt + 9), W, B
gpasm-0.14.3 #861 (Nov  5 2012) /home/valenti   6-16-2013  19:42:02         PAGE 20


LOC  OBJECT CODE     LINE SOURCE TEXT
  VALUE

000016 A0D8           01008         BTFSS   STATUS, 0
000018 D???           01009         BRA     _00566_DS_
00001A 0E40           01010         MOVLW   0x40
                      01011 ; removed redundant BANKSEL
00001C 5D??           01012         SUBWF   (_ep_bdt + 9), W, B
00001E B0D8           01013         BTFSC   STATUS, 0
000020 D???           01014         BRA     _00566_DS_
                      01015 ;       .line   118; /home/valentin/.icaro/np05/tmp/usb.c       for (cpt=0;cpt<EP_OUT_BD(1).Cnt;cpt++)
000022 6A??           01016         CLRF    r0x00
000024                01017 _00569_DS_:
000024 ????           01018         BANKSEL (_ep_bdt + 9)
000026 51??           01019         MOVF    (_ep_bdt + 9), W, B
000028 5C??           01020         SUBWF   r0x00, W
00002A E2??           01021         BC      _00572_DS_
                      01022 ;       .line   120; /home/valentin/.icaro/np05/tmp/usb.c       caractere=RXbuffer[cpt];
00002C 0E??           01023         MOVLW   LOW(_RXbuffer)
00002E 24??           01024         ADDWF   r0x00, W
000030 6E??           01025         MOVWF   r0x01
000032 6A??           01026         CLRF    r0x02
000034 0E??           01027         MOVLW   HIGH(_RXbuffer)
000036 22??           01028         ADDWFC  r0x02, F
000038 C??? FFE9      01029         MOVFF   r0x01, FSR0L
00003C C??? FFEA      01030         MOVFF   r0x02, FSR0H
000040 CFEF F???      01031         MOVFF   INDF0, r0x01
000044 ????           01032         BANKSEL _usbwp
                      01033 ;       .line   121; /home/valentin/.icaro/np05/tmp/usb.c       if (usbwp!=USBRXSIZE-1) newusbwp=usbwp+1;               
000046 51??           01034         MOVF    _usbwp, W, B
000048 0A3F           01035         XORLW   0x3f
00004A E0??           01036         BZ      _00556_DS_
00004C                01037 _00588_DS_:
00004C ????           01038         BANKSEL _usbwp
00004E 29??           01039         INCF    _usbwp, W, B
000050 6E??           01040         MOVWF   r0x02
000052 D???           01041         BRA     _00557_DS_
000054                01042 _00556_DS_:
                      01043 ;       .line   122; /home/valentin/.icaro/np05/tmp/usb.c       else newusbwp=1;
000054 0E01           01044         MOVLW   0x01
000056 6E??           01045         MOVWF   r0x02
000058                01046 _00557_DS_:
000058 ????           01047         BANKSEL _usbrp
                      01048 ;       .line   123; /home/valentin/.icaro/np05/tmp/usb.c       if (usbrp!=newusbwp) usbrx[usbwp++]=caractere;
00005A 51??           01049         MOVF    _usbrp, W, B
00005C 18??           01050         XORWF   r0x02, W
00005E E0??           01051         BZ      _00559_DS_
000060 C??? F???      01052         MOVFF   _usbwp, r0x02
000064 ????           01053         BANKSEL _usbwp
000066 2B??           01054         INCF    _usbwp, F, B
000068 6A??           01055         CLRF    r0x03
00006A 0E??           01056         MOVLW   LOW(_usbrx)
00006C 26??           01057         ADDWF   r0x02, F
00006E 0E??           01058         MOVLW   HIGH(_usbrx)
000070 22??           01059         ADDWFC  r0x03, F
000072 C??? FFE9      01060         MOVFF   r0x02, FSR0L
gpasm-0.14.3 #861 (Nov  5 2012) /home/valenti   6-16-2013  19:42:02         PAGE 21


LOC  OBJECT CODE     LINE SOURCE TEXT
  VALUE

000076 C??? FFEA      01061         MOVFF   r0x03, FSR0H
00007A C??? FFEF      01062         MOVFF   r0x01, INDF0
00007E                01063 _00559_DS_:
00007E ????           01064         BANKSEL _usbwp
                      01065 ;       .line   124; /home/valentin/.icaro/np05/tmp/usb.c       if (usbwp==USBRXSIZE) usbwp=1;
000080 51??           01066         MOVF    _usbwp, W, B
000082 0A40           01067         XORLW   0x40
000084 E1??           01068         BNZ     _00571_DS_
000086 0E01           01069         MOVLW   0x01
000088 ????           01070         BANKSEL _usbwp
00008A 6F??           01071         MOVWF   _usbwp, B
00008C                01072 _00571_DS_:
                      01073 ;       .line   118; /home/valentin/.icaro/np05/tmp/usb.c       for (cpt=0;cpt<EP_OUT_BD(1).Cnt;cpt++)
00008C 2A??           01074         INCF    r0x00, F
00008E D???           01075         BRA     _00569_DS_
000090                01076 _00572_DS_:
                      01077 ;       .line   126; /home/valentin/.icaro/np05/tmp/usb.c       EP_OUT_BD(1).Cnt = EP1_BUFFER_SIZE;
000090 0E40           01078         MOVLW   0x40
000092 ????           01079         BANKSEL (_ep_bdt + 9)
000094 6F??           01080         MOVWF   (_ep_bdt + 9), B
                      01081 ; removed redundant BANKSEL
                      01082 ;       .line   127; /home/valentin/.icaro/np05/tmp/usb.c       if(EP_OUT_BD(1).Stat.DTS == 0)
000096 BD??           01083         BTFSC   (_ep_bdt + 8), 6, B
000098 D???           01084         BRA     _00563_DS_
                      01085 ;       .line   129; /home/valentin/.icaro/np05/tmp/usb.c       EP_OUT_BD(1).Stat.uc = BDS_USIE | BDS_DAT1 | BDS_DTSEN;
00009A 0EC8           01086         MOVLW   0xc8
                      01087 ; removed redundant BANKSEL
00009C 6F??           01088         MOVWF   (_ep_bdt + 8), B
00009E D???           01089         BRA     _00573_DS_
0000A0                01090 _00563_DS_:
                      01091 ;       .line   133; /home/valentin/.icaro/np05/tmp/usb.c       EP_OUT_BD(1).Stat.uc = BDS_USIE | BDS_DAT0 | BDS_DTSEN;
0000A0 0E88           01092         MOVLW   0x88
0000A2 ????           01093         BANKSEL (_ep_bdt + 8)
0000A4 6F??           01094         MOVWF   (_ep_bdt + 8), B
0000A6 D???           01095         BRA     _00573_DS_
0000A8                01096 _00566_DS_:
                      01097 ;       .line   138; /home/valentin/.icaro/np05/tmp/usb.c       EP_OUT_BD(1).Cnt = EP1_BUFFER_SIZE;
0000A8 0E40           01098         MOVLW   0x40
0000AA ????           01099         BANKSEL (_ep_bdt + 9)
0000AC 6F??           01100         MOVWF   (_ep_bdt + 9), B
                      01101 ;       .line   139; /home/valentin/.icaro/np05/tmp/usb.c       EP_OUT_BD(1).ADR = (uchar __data *)&RXbuffer;
0000AE 0E??           01102         MOVLW   LOW(_RXbuffer)
                      01103 ; removed redundant BANKSEL
0000B0 6F??           01104         MOVWF   (_ep_bdt + 10), B
0000B2 0E??           01105         MOVLW   HIGH(_RXbuffer)
                      01106 ; removed redundant BANKSEL
0000B4 6F??           01107         MOVWF   (_ep_bdt + 11), B
                      01108 ;       .line   140; /home/valentin/.icaro/np05/tmp/usb.c       EP_OUT_BD(1).Stat.uc = BDS_USIE | BDS_BSTALL;
0000B6 0E84           01109         MOVLW   0x84
                      01110 ; removed redundant BANKSEL
0000B8 6F??           01111         MOVWF   (_ep_bdt + 8), B
0000BA                01112 _00573_DS_:
0000BA CFE4 F???      01113         MOVFF   PREINC1, r0x03
gpasm-0.14.3 #861 (Nov  5 2012) /home/valenti   6-16-2013  19:42:02         PAGE 22


LOC  OBJECT CODE     LINE SOURCE TEXT
  VALUE

0000BE CFE4 F???      01114         MOVFF   PREINC1, r0x02
0000C2 CFE4 F???      01115         MOVFF   PREINC1, r0x01
0000C6 CFE4 F???      01116         MOVFF   PREINC1, r0x00
0000CA 0012           01117         RETURN  
                      01118 
                      01119 ; ; Starting pCode block
                      01120 S_main__usbread code
000000                01121 _usbread:
                      01122 ;       .line   97; /home/valentin/.icaro/np05/tmp/usb.c        uchar usbread()
000000 C??? FFE5      01123         MOVFF   r0x00, POSTDEC1
000004 C??? FFE5      01124         MOVFF   r0x01, POSTDEC1
000008 C??? FFE5      01125         MOVFF   r0x02, POSTDEC1
                      01126 ;       .line   99; /home/valentin/.icaro/np05/tmp/usb.c        uchar caractere=0;
00000C 6A??           01127         CLRF    r0x00
                      01128 ;       .line   101; /home/valentin/.icaro/np05/tmp/usb.c       if (usbavailable)
00000E 50??           01129         MOVF    LOW(_usbavailable), W
000010 10??           01130         IORWF   HIGH(_usbavailable), W
000012 10??           01131         IORWF   UPPER(_usbavailable), W
000014 E0??           01132         BZ      _00544_DS_
                      01133 ;       .line   103; /home/valentin/.icaro/np05/tmp/usb.c       caractere=usbrx[usbrp++];
000016 C??? F???      01134         MOVFF   _usbrp, r0x01
00001A ????           01135         BANKSEL _usbrp
00001C 2B??           01136         INCF    _usbrp, F, B
00001E 6A??           01137         CLRF    r0x02
000020 0E??           01138         MOVLW   LOW(_usbrx)
000022 26??           01139         ADDWF   r0x01, F
000024 0E??           01140         MOVLW   HIGH(_usbrx)
000026 22??           01141         ADDWFC  r0x02, F
000028 C??? FFE9      01142         MOVFF   r0x01, FSR0L
00002C C??? FFEA      01143         MOVFF   r0x02, FSR0H
000030 CFEF F???      01144         MOVFF   INDF0, r0x00
                      01145 ; removed redundant BANKSEL
                      01146 ;       .line   104; /home/valentin/.icaro/np05/tmp/usb.c       if (usbrp==USBRXSIZE)
000034 51??           01147         MOVF    _usbrp, W, B
000036 0A40           01148         XORLW   0x40
000038 E1??           01149         BNZ     _00544_DS_
                      01150 ;       .line   105; /home/valentin/.icaro/np05/tmp/usb.c       usbrp=1;
00003A 0E01           01151         MOVLW   0x01
00003C ????           01152         BANKSEL _usbrp
00003E 6F??           01153         MOVWF   _usbrp, B
000040                01154 _00544_DS_:
                      01155 ;       .line   107; /home/valentin/.icaro/np05/tmp/usb.c       return(caractere);
000040 50??           01156         MOVF    r0x00, W
000042 CFE4 F???      01157         MOVFF   PREINC1, r0x02
000046 CFE4 F???      01158         MOVFF   PREINC1, r0x01
00004A CFE4 F???      01159         MOVFF   PREINC1, r0x00
00004E 0012           01160         RETURN  
                      01161 
                      01162 ; ; Starting pCode block
                      01163 S_main__epap_in code
000000                01164 _epap_in:
                      01165 ;       .line   76; /home/valentin/.icaro/np05/tmp/usb.c        void epap_in(void)
000000 C??? FFE5      01166         MOVFF   r0x00, POSTDEC1
gpasm-0.14.3 #861 (Nov  5 2012) /home/valenti   6-16-2013  19:42:02         PAGE 23


LOC  OBJECT CODE     LINE SOURCE TEXT
  VALUE

000004 ????           01167         BANKSEL _ep2_num_bytes_to_send
                      01168 ;       .line   78; /home/valentin/.icaro/np05/tmp/usb.c        if((ep2_num_bytes_to_send == 0) && last_send_was_null)
000006 51??           01169         MOVF    _ep2_num_bytes_to_send, W, B
                      01170 ; removed redundant BANKSEL
000008 11??           01171         IORWF   (_ep2_num_bytes_to_send + 1), W, B
00000A E1??           01172         BNZ     _00525_DS_
                      01173 ; #     MOVF    _last_send_was_null, W, B
                      01174 ; #     BTFSC   STATUS, 2
                      01175 ; #     GOTO    _00525_DS_
                      01176 ; #     GOTO    _00530_DS_
                      01177 ; #     MOVLW   0x00
00000C ????           01178         BANKSEL _last_send_was_null
                      01179 ;       .line   80; /home/valentin/.icaro/np05/tmp/usb.c        return;
00000E 51??           01180         MOVF    _last_send_was_null, W, B
                      01181 ;       .line   82; /home/valentin/.icaro/np05/tmp/usb.c        last_send_was_null = (ep2_num_bytes_to_send < EP2_BUFFER_SIZE);
000010 E1??           01182         BNZ     _00530_DS_
000012                01183 _00525_DS_:
000012 0E00           01184         MOVLW   0x00
000014 ????           01185         BANKSEL (_ep2_num_bytes_to_send + 1)
000016 5D??           01186         SUBWF   (_ep2_num_bytes_to_send + 1), W, B
000018 E1??           01187         BNZ     _00536_DS_
00001A 0E40           01188         MOVLW   0x40
                      01189 ; removed redundant BANKSEL
00001C 5D??           01190         SUBWF   _ep2_num_bytes_to_send, W, B
00001E                01191 _00536_DS_:
00001E 70D8           01192         BTG     STATUS, 0
000020 6A??           01193         CLRF    r0x00
000022 36??           01194         RLCF    r0x00, F
000024 50??           01195         MOVF    r0x00, W
000026 ????           01196         BANKSEL _last_send_was_null
000028 6F??           01197         MOVWF   _last_send_was_null, B
                      01198 ; #     MOVF    _ep2_num_bytes_to_send, W, B
                      01199 ; #     MOVWF   r0x00
                      01200 ; #     MOVF    r0x00, W
00002A ????           01201         BANKSEL _ep2_num_bytes_to_send
                      01202 ;       .line   83; /home/valentin/.icaro/np05/tmp/usb.c        EP_IN_BD(2).Cnt = ep2_num_bytes_to_send;
00002C 51??           01203         MOVF    _ep2_num_bytes_to_send, W, B
00002E ????           01204         BANKSEL (_ep_bdt + 21)
000030 6F??           01205         MOVWF   (_ep_bdt + 21), B
                      01206 ;       .line   84; /home/valentin/.icaro/np05/tmp/usb.c        fill_in_buffer(2, &ep2_source_data, EP2_BUFFER_SIZE, &ep2_num_bytes_to_send);
000032 0E80           01207         MOVLW   0x80
                      01208 ; #     MOVWF   r0x05
                      01209 ; #     MOVF    r0x05, W
000034 6EE5           01210         MOVWF   POSTDEC1
000036 0E??           01211         MOVLW   HIGH(_ep2_num_bytes_to_send)
000038 6EE5           01212         MOVWF   POSTDEC1
00003A 0E??           01213         MOVLW   LOW(_ep2_num_bytes_to_send)
00003C 6EE5           01214         MOVWF   POSTDEC1
00003E 6AE5           01215         CLRF    POSTDEC1
000040 0E40           01216         MOVLW   0x40
000042 6EE5           01217         MOVWF   POSTDEC1
000044 0E80           01218         MOVLW   0x80
000046 6EE5           01219         MOVWF   POSTDEC1
gpasm-0.14.3 #861 (Nov  5 2012) /home/valenti   6-16-2013  19:42:02         PAGE 24


LOC  OBJECT CODE     LINE SOURCE TEXT
  VALUE

000048 0E??           01220         MOVLW   HIGH(_ep2_source_data)
00004A 6EE5           01221         MOVWF   POSTDEC1
00004C 0E??           01222         MOVLW   LOW(_ep2_source_data)
00004E 6EE5           01223         MOVWF   POSTDEC1
000050 0E02           01224         MOVLW   0x02
000052 6EE5           01225         MOVWF   POSTDEC1
000054 EC?? F???      01226         CALL    _fill_in_buffer
000058 0E09           01227         MOVLW   0x09
00005A 26E1           01228         ADDWF   FSR1L, F
00005C ????           01229         BANKSEL (_ep_bdt + 20)
                      01230 ;       .line   85; /home/valentin/.icaro/np05/tmp/usb.c        if(EP_IN_BD(2).Stat.DTS == 0)
00005E BD??           01231         BTFSC   (_ep_bdt + 20), 6, B
000060 D???           01232         BRA     _00528_DS_
                      01233 ;       .line   87; /home/valentin/.icaro/np05/tmp/usb.c        EP_IN_BD(2).Stat.uc = BDS_USIE | BDS_DAT1 | BDS_DTSEN;
000062 0EC8           01234         MOVLW   0xc8
                      01235 ; removed redundant BANKSEL
000064 6F??           01236         MOVWF   (_ep_bdt + 20), B
000066 D???           01237         BRA     _00530_DS_
000068                01238 _00528_DS_:
                      01239 ;       .line   91; /home/valentin/.icaro/np05/tmp/usb.c        EP_IN_BD(2).Stat.uc = BDS_USIE | BDS_DAT0 | BDS_DTSEN;
000068 0E88           01240         MOVLW   0x88
00006A ????           01241         BANKSEL (_ep_bdt + 20)
00006C 6F??           01242         MOVWF   (_ep_bdt + 20), B
00006E                01243 _00530_DS_:
00006E CFE4 F???      01244         MOVFF   PREINC1, r0x00
000072 0012           01245         RETURN  
                      01246 
                      01247 ; ; Starting pCode block
                      01248 S_main__usbsend code
000000                01249 _usbsend:
                      01250 ;       .line   59; /home/valentin/.icaro/np05/tmp/usb.c        void usbsend(uchar *txpointer,uint length)
000000 CFD9 FFE5      01251         MOVFF   FSR2L, POSTDEC1
000004 CFE1 FFD9      01252         MOVFF   FSR1L, FSR2L
000008 0E02           01253         MOVLW   0x02
00000A CFDB F???      01254         MOVFF   PLUSW2, _ep2_source_data
00000E 0E03           01255         MOVLW   0x03
000010 CFDB F???      01256         MOVFF   PLUSW2, (_ep2_source_data + 1)
000014 0E04           01257         MOVLW   0x04
000016 CFDB F???      01258         MOVFF   PLUSW2, (_ep2_source_data + 2)
00001A 0E05           01259         MOVLW   0x05
00001C CFDB F???      01260         MOVFF   PLUSW2, _ep2_num_bytes_to_send
000020 0E06           01261         MOVLW   0x06
000022 CFDB F???      01262         MOVFF   PLUSW2, (_ep2_num_bytes_to_send + 1)
                      01263 ;       .line   63; /home/valentin/.icaro/np05/tmp/usb.c        prepare_ep2_in();
000026 EC?? F???      01264         CALL    _prepare_ep2_in
00002A CFE4 FFD9      01265         MOVFF   PREINC1, FSR2L
00002E 0012           01266         RETURN  
                      01267 
                      01268 ; ; Starting pCode block
                      01269 S_main__prepare_ep2_in  code
000000                01270 _prepare_ep2_in:
                      01271 ;       .line   43; /home/valentin/.icaro/np05/tmp/usb.c        void prepare_ep2_in(void)
000000 C??? FFE5      01272         MOVFF   r0x00, POSTDEC1
gpasm-0.14.3 #861 (Nov  5 2012) /home/valenti   6-16-2013  19:42:02         PAGE 25


LOC  OBJECT CODE     LINE SOURCE TEXT
  VALUE

                      01273 ;       .line   45; /home/valentin/.icaro/np05/tmp/usb.c        last_send_was_null = (ep2_num_bytes_to_send < EP2_BUFFER_SIZE);
000004 0E00           01274         MOVLW   0x00
000006 ????           01275         BANKSEL (_ep2_num_bytes_to_send + 1)
000008 5D??           01276         SUBWF   (_ep2_num_bytes_to_send + 1), W, B
00000A E1??           01277         BNZ     _00514_DS_
00000C 0E40           01278         MOVLW   0x40
                      01279 ; removed redundant BANKSEL
00000E 5D??           01280         SUBWF   _ep2_num_bytes_to_send, W, B
000010                01281 _00514_DS_:
000010 70D8           01282         BTG     STATUS, 0
000012 6A??           01283         CLRF    r0x00
000014 36??           01284         RLCF    r0x00, F
000016 50??           01285         MOVF    r0x00, W
000018 ????           01286         BANKSEL _last_send_was_null
00001A 6F??           01287         MOVWF   _last_send_was_null, B
                      01288 ; #     MOVF    _ep2_num_bytes_to_send, W, B
                      01289 ; #     MOVWF   r0x00
                      01290 ; #     MOVF    r0x00, W
00001C ????           01291         BANKSEL _ep2_num_bytes_to_send
                      01292 ;       .line   46; /home/valentin/.icaro/np05/tmp/usb.c        EP_IN_BD(2).Cnt = ep2_num_bytes_to_send;
00001E 51??           01293         MOVF    _ep2_num_bytes_to_send, W, B
000020 ????           01294         BANKSEL (_ep_bdt + 21)
000022 6F??           01295         MOVWF   (_ep_bdt + 21), B
                      01296 ;       .line   47; /home/valentin/.icaro/np05/tmp/usb.c        EP_IN_BD(2).ADR = (uchar __data *)&TXBuffer;
000024 0E??           01297         MOVLW   LOW(_TXBuffer)
                      01298 ; removed redundant BANKSEL
000026 6F??           01299         MOVWF   (_ep_bdt + 22), B
000028 0E??           01300         MOVLW   HIGH(_TXBuffer)
                      01301 ; removed redundant BANKSEL
00002A 6F??           01302         MOVWF   (_ep_bdt + 23), B
                      01303 ;       .line   48; /home/valentin/.icaro/np05/tmp/usb.c        fill_in_buffer(2, &ep2_source_data, EP2_BUFFER_SIZE, &ep2_num_bytes_to_send);
00002C 0E80           01304         MOVLW   0x80
                      01305 ; #     MOVWF   r0x05
                      01306 ; #     MOVF    r0x05, W
00002E 6EE5           01307         MOVWF   POSTDEC1
000030 0E??           01308         MOVLW   HIGH(_ep2_num_bytes_to_send)
000032 6EE5           01309         MOVWF   POSTDEC1
000034 0E??           01310         MOVLW   LOW(_ep2_num_bytes_to_send)
000036 6EE5           01311         MOVWF   POSTDEC1
000038 6AE5           01312         CLRF    POSTDEC1
00003A 0E40           01313         MOVLW   0x40
00003C 6EE5           01314         MOVWF   POSTDEC1
00003E 0E80           01315         MOVLW   0x80
000040 6EE5           01316         MOVWF   POSTDEC1
000042 0E??           01317         MOVLW   HIGH(_ep2_source_data)
000044 6EE5           01318         MOVWF   POSTDEC1
000046 0E??           01319         MOVLW   LOW(_ep2_source_data)
000048 6EE5           01320         MOVWF   POSTDEC1
00004A 0E02           01321         MOVLW   0x02
00004C 6EE5           01322         MOVWF   POSTDEC1
00004E EC?? F???      01323         CALL    _fill_in_buffer
000052 0E09           01324         MOVLW   0x09
000054 26E1           01325         ADDWF   FSR1L, F
gpasm-0.14.3 #861 (Nov  5 2012) /home/valenti   6-16-2013  19:42:02         PAGE 26


LOC  OBJECT CODE     LINE SOURCE TEXT
  VALUE

000056 ????           01326         BANKSEL (_ep_bdt + 20)
                      01327 ;       .line   49; /home/valentin/.icaro/np05/tmp/usb.c        if(EP_IN_BD(2).Stat.DTS == 0)
000058 BD??           01328         BTFSC   (_ep_bdt + 20), 6, B
00005A D???           01329         BRA     _00508_DS_
                      01330 ;       .line   51; /home/valentin/.icaro/np05/tmp/usb.c        EP_IN_BD(2).Stat.uc = BDS_USIE | BDS_DAT1 | BDS_DTSEN;
00005C 0EC8           01331         MOVLW   0xc8
                      01332 ; removed redundant BANKSEL
00005E 6F??           01333         MOVWF   (_ep_bdt + 20), B
000060 D???           01334         BRA     _00510_DS_
000062                01335 _00508_DS_:
                      01336 ;       .line   55; /home/valentin/.icaro/np05/tmp/usb.c        EP_IN_BD(2).Stat.uc = BDS_USIE | BDS_DAT0 | BDS_DTSEN;
000062 0E88           01337         MOVLW   0x88
000064 ????           01338         BANKSEL (_ep_bdt + 20)
000066 6F??           01339         MOVWF   (_ep_bdt + 20), B
000068                01340 _00510_DS_:
000068 CFE4 F???      01341         MOVFF   PREINC1, r0x00
00006C 0012           01342         RETURN  
                      01343 
                      01344 ; ; Starting pCode block
                      01345 S_main__epapin_init     code
000000                01346 _epapin_init:
                      01347 ;       .line   39; /home/valentin/.icaro/np05/tmp/usb.c        EP_IN_BD(2).Stat.uc = BDS_UCPU | BDS_DAT1 | BDS_DTSEN;
000000 0E48           01348         MOVLW   0x48
000002 ????           01349         BANKSEL (_ep_bdt + 20)
000004 6F??           01350         MOVWF   (_ep_bdt + 20), B
                      01351 ;       .line   40; /home/valentin/.icaro/np05/tmp/usb.c        UEP2 = EPHSHK_EN | EPINEN_EN |  EPCONDIS_EN;
000006 0E1A           01352         MOVLW   0x1a
000008 6E??           01353         MOVWF   _UEP2
00000A 0012           01354         RETURN  
                      01355 
                      01356 ; ; Starting pCode block
                      01357 S_main__usbavailable    code
000000                01358 _usbavailable:
                      01359 ;       .line   30; /home/valentin/.icaro/np05/tmp/usb.c        uchar usbavailable()
000000 C??? FFE5      01360         MOVFF   r0x00, POSTDEC1
                      01361 ;       .line   32; /home/valentin/.icaro/np05/tmp/usb.c        return (usbwp!=usbrp);
000004 6A??           01362         CLRF    r0x00
000006 ????           01363         BANKSEL _usbwp
000008 51??           01364         MOVF    _usbwp, W, B
00000A ????           01365         BANKSEL _usbrp
00000C 19??           01366         XORWF   _usbrp, W, B
00000E E1??           01367         BNZ     _00497_DS_
000010 2A??           01368         INCF    r0x00, F
000012                01369 _00497_DS_:
000012 50??           01370         MOVF    r0x00, W
000014 80D8           01371         BSF     STATUS, 0
000016 66E8           01372         TSTFSZ  WREG
000018 90D8           01373         BCF     STATUS, 0
00001A 6A??           01374         CLRF    r0x00
00001C 36??           01375         RLCF    r0x00, F
00001E 50??           01376         MOVF    r0x00, W
000020 CFE4 F???      01377         MOVFF   PREINC1, r0x00
000024 0012           01378         RETURN  
gpasm-0.14.3 #861 (Nov  5 2012) /home/valenti   6-16-2013  19:42:02         PAGE 27


LOC  OBJECT CODE     LINE SOURCE TEXT
  VALUE

                      01379 
                      01380 ; ; Starting pCode block
                      01381 S_main__Delayus code
000000                01382 _Delayus:
                      01383 ;       .line   16; /home/valentin/.icaro/np05/tmp/arduinodelay.c       void Delayus(int microsecondes)
000000 CFD9 FFE5      01384         MOVFF   FSR2L, POSTDEC1
000004 CFE1 FFD9      01385         MOVFF   FSR1L, FSR2L
000008 C??? FFE5      01386         MOVFF   r0x00, POSTDEC1
00000C C??? FFE5      01387         MOVFF   r0x01, POSTDEC1
000010 C??? FFE5      01388         MOVFF   r0x02, POSTDEC1
000014 C??? FFE5      01389         MOVFF   r0x03, POSTDEC1
000018 C??? FFE5      01390         MOVFF   r0x04, POSTDEC1
00001C 0E02           01391         MOVLW   0x02
00001E CFDB F???      01392         MOVFF   PLUSW2, r0x00
000022 0E03           01393         MOVLW   0x03
000024 CFDB F???      01394         MOVFF   PLUSW2, r0x01
                      01395 ;       .line   20; /home/valentin/.icaro/np05/tmp/arduinodelay.c       for (i=0;i<microsecondes;i++);
000028 6A??           01396         CLRF    r0x02
00002A 6A??           01397         CLRF    r0x03
00002C                01398 _00480_DS_:
00002C 50??           01399         MOVF    r0x00, W
00002E 6E??           01400         MOVWF   r0x04
                      01401 ; #     MOVF    r0x01, W
                      01402 ; #     MOVWF   r0x05
                      01403 ; #     MOVF    r0x05, W
000030 50??           01404         MOVF    r0x01, W
000032 5C??           01405         SUBWF   r0x03, W
000034 E1??           01406         BNZ     _00489_DS_
000036 50??           01407         MOVF    r0x04, W
000038 5C??           01408         SUBWF   r0x02, W
00003A                01409 _00489_DS_:
00003A E2??           01410         BC      _00484_DS_
00003C 2A??           01411         INCF    r0x02, F
00003E B0D8           01412         BTFSC   STATUS, 0
000040 2A??           01413         INCF    r0x03, F
000042 D???           01414         BRA     _00480_DS_
000044                01415 _00484_DS_:
000044 CFE4 F???      01416         MOVFF   PREINC1, r0x04
000048 CFE4 F???      01417         MOVFF   PREINC1, r0x03
00004C CFE4 F???      01418         MOVFF   PREINC1, r0x02
000050 CFE4 F???      01419         MOVFF   PREINC1, r0x01
000054 CFE4 F???      01420         MOVFF   PREINC1, r0x00
000058 CFE4 FFD9      01421         MOVFF   PREINC1, FSR2L
00005C 0012           01422         RETURN  
                      01423 
                      01424 ; ; Starting pCode block
                      01425 S_main__Delayms code
000000                01426 _Delayms:
                      01427 ;       .line   9; /home/valentin/.icaro/np05/tmp/arduinodelay.c        void Delayms(unsigned long milliseconde)
000000 CFD9 FFE5      01428         MOVFF   FSR2L, POSTDEC1
000004 CFE1 FFD9      01429         MOVFF   FSR1L, FSR2L
000008 C??? FFE5      01430         MOVFF   r0x00, POSTDEC1
00000C C??? FFE5      01431         MOVFF   r0x01, POSTDEC1
gpasm-0.14.3 #861 (Nov  5 2012) /home/valenti   6-16-2013  19:42:02         PAGE 28


LOC  OBJECT CODE     LINE SOURCE TEXT
  VALUE

000010 C??? FFE5      01432         MOVFF   r0x02, POSTDEC1
000014 C??? FFE5      01433         MOVFF   r0x03, POSTDEC1
000018 C??? FFE5      01434         MOVFF   r0x04, POSTDEC1
00001C C??? FFE5      01435         MOVFF   r0x05, POSTDEC1
000020 C??? FFE5      01436         MOVFF   r0x06, POSTDEC1
000024 C??? FFE5      01437         MOVFF   r0x07, POSTDEC1
000028 0E02           01438         MOVLW   0x02
00002A CFDB F???      01439         MOVFF   PLUSW2, r0x00
00002E 0E03           01440         MOVLW   0x03
000030 CFDB F???      01441         MOVFF   PLUSW2, r0x01
000034 0E04           01442         MOVLW   0x04
000036 CFDB F???      01443         MOVFF   PLUSW2, r0x02
00003A 0E05           01444         MOVLW   0x05
00003C CFDB F???      01445         MOVFF   PLUSW2, r0x03
                      01446 ;       .line   13; /home/valentin/.icaro/np05/tmp/arduinodelay.c       for (i=0;i<milliseconde;i++) delay10ktcy(1);
000040 6A??           01447         CLRF    r0x04
000042 6A??           01448         CLRF    r0x05
000044 6A??           01449         CLRF    r0x06
000046 6A??           01450         CLRF    r0x07
000048                01451 _00466_DS_:
000048 50??           01452         MOVF    r0x03, W
00004A 5C??           01453         SUBWF   r0x07, W
00004C E1??           01454         BNZ     _00475_DS_
00004E 50??           01455         MOVF    r0x02, W
000050 5C??           01456         SUBWF   r0x06, W
000052 E1??           01457         BNZ     _00475_DS_
000054 50??           01458         MOVF    r0x01, W
000056 5C??           01459         SUBWF   r0x05, W
000058 E1??           01460         BNZ     _00475_DS_
00005A 50??           01461         MOVF    r0x00, W
00005C 5C??           01462         SUBWF   r0x04, W
00005E                01463 _00475_DS_:
00005E E2??           01464         BC      _00470_DS_
000060 0E01           01465         MOVLW   0x01
000062 EC?? F???      01466         CALL    _delay10ktcy
000066 2A??           01467         INCF    r0x04, F
000068 B0D8           01468         BTFSC   STATUS, 0
00006A 2A??           01469         INCF    r0x05, F
00006C B0D8           01470         BTFSC   STATUS, 0
00006E 2A??           01471         INCF    r0x06, F
000070 B0D8           01472         BTFSC   STATUS, 0
000072 2A??           01473         INCF    r0x07, F
000074 D???           01474         BRA     _00466_DS_
000076                01475 _00470_DS_:
000076 CFE4 F???      01476         MOVFF   PREINC1, r0x07
00007A CFE4 F???      01477         MOVFF   PREINC1, r0x06
00007E CFE4 F???      01478         MOVFF   PREINC1, r0x05
000082 CFE4 F???      01479         MOVFF   PREINC1, r0x04
000086 CFE4 F???      01480         MOVFF   PREINC1, r0x03
00008A CFE4 F???      01481         MOVFF   PREINC1, r0x02
00008E CFE4 F???      01482         MOVFF   PREINC1, r0x01
000092 CFE4 F???      01483         MOVFF   PREINC1, r0x00
000096 CFE4 FFD9      01484         MOVFF   PREINC1, FSR2L
gpasm-0.14.3 #861 (Nov  5 2012) /home/valenti   6-16-2013  19:42:02         PAGE 29


LOC  OBJECT CODE     LINE SOURCE TEXT
  VALUE

00009A 0012           01485         RETURN  
                      01486 
                      01487 ; ; Starting pCode block
                      01488 S_main__analogread      code
000000                01489 _analogread:
                      01490 ;       .line   40; /home/valentin/.icaro/np05/tmp/analog.c     unsigned int analogread(unsigned char channel)
000000 CFD9 FFE5      01491         MOVFF   FSR2L, POSTDEC1
000004 CFE1 FFD9      01492         MOVFF   FSR1L, FSR2L
000008 C??? FFE5      01493         MOVFF   r0x00, POSTDEC1
00000C C??? FFE5      01494         MOVFF   r0x01, POSTDEC1
000010 C??? FFE5      01495         MOVFF   r0x02, POSTDEC1
000014 C??? FFE5      01496         MOVFF   r0x03, POSTDEC1
000018 0E02           01497         MOVLW   0x02
00001A CFDB F???      01498         MOVFF   PLUSW2, r0x00
                      01499 ;       .line   55; /home/valentin/.icaro/np05/tmp/analog.c     ADCON0=(channel-13)*4;
00001E 0EF3           01500         MOVLW   0xf3
000020 26??           01501         ADDWF   r0x00, F
                      01502 ; ;multiply lit val:0x04 by variable r0x00 and store in _ADCON0
                      01503 ; ;Unrolled 8 X 8 multiplication
                      01504 ; ;FIXME: the function does not support result==WREG
000022 50??           01505         MOVF    r0x00, W
000024 0D04           01506         MULLW   0x04
000026 CFF3 F???      01507         MOVFF   PRODL, _ADCON0
                      01508 ;       .line   59; /home/valentin/.icaro/np05/tmp/analog.c     ADCON0bits.ADON=1;
00002A 80??           01509         BSF     _ADCON0bits, 0
                      01510 ;       .line   60; /home/valentin/.icaro/np05/tmp/analog.c     for (result=1;result<10;result++) __asm NOP __endasm;
00002C 0E09           01511         MOVLW   0x09
00002E 6E??           01512         MOVWF   r0x00
000030 6A??           01513         CLRF    r0x01
000032                01514 _00460_DS_:
000032 0000           01515         NOP 
000034 0EFF           01516         MOVLW   0xff
000036 26??           01517         ADDWF   r0x00, F
000038 A0D8           01518         BTFSS   STATUS, 0
00003A 06??           01519         DECF    r0x01, F
00003C 50??           01520         MOVF    r0x00, W
00003E 10??           01521         IORWF   r0x01, W
000040 E1??           01522         BNZ     _00460_DS_
                      01523 ;       .line   61; /home/valentin/.icaro/np05/tmp/analog.c     ADCON0bits.GO=1;
000042 82??           01524         BSF     _ADCON0bits, 1
000044                01525 _00455_DS_:
                      01526 ;       .line   62; /home/valentin/.icaro/np05/tmp/analog.c     while (ADCON0bits.GO);
000044 B2??           01527         BTFSC   _ADCON0bits, 1
000046 D???           01528         BRA     _00455_DS_
                      01529 ;       .line   63; /home/valentin/.icaro/np05/tmp/analog.c     result=ADRESH<<8;
000048 C??? F???      01530         MOVFF   _ADRESH, r0x00
00004C 6A??           01531         CLRF    r0x01
00004E 50??           01532         MOVF    r0x00, W
000050 6E??           01533         MOVWF   r0x03
000052 6A??           01534         CLRF    r0x02
000054 50??           01535         MOVF    r0x02, W
000056 6E??           01536         MOVWF   r0x00
000058 50??           01537         MOVF    r0x03, W
gpasm-0.14.3 #861 (Nov  5 2012) /home/valenti   6-16-2013  19:42:02         PAGE 30


LOC  OBJECT CODE     LINE SOURCE TEXT
  VALUE

00005A 6E??           01538         MOVWF   r0x01
                      01539 ;       .line   64; /home/valentin/.icaro/np05/tmp/analog.c     result+=ADRESL;
00005C C??? F???      01540         MOVFF   _ADRESL, r0x02
000060 6A??           01541         CLRF    r0x03
000062 50??           01542         MOVF    r0x02, W
000064 26??           01543         ADDWF   r0x00, F
000066 50??           01544         MOVF    r0x03, W
000068 22??           01545         ADDWFC  r0x01, F
                      01546 ;       .line   65; /home/valentin/.icaro/np05/tmp/analog.c     ADCON0bits.ADON=0;
00006A 90??           01547         BCF     _ADCON0bits, 0
                      01548 ;       .line   66; /home/valentin/.icaro/np05/tmp/analog.c     return(result);
00006C C??? FFF3      01549         MOVFF   r0x01, PRODL
000070 50??           01550         MOVF    r0x00, W
000072 CFE4 F???      01551         MOVFF   PREINC1, r0x03
000076 CFE4 F???      01552         MOVFF   PREINC1, r0x02
00007A CFE4 F???      01553         MOVFF   PREINC1, r0x01
00007E CFE4 F???      01554         MOVFF   PREINC1, r0x00
000082 CFE4 FFD9      01555         MOVFF   PREINC1, FSR2L
000086 0012           01556         RETURN  
                      01557 
                      01558 ; ; Starting pCode block
                      01559 S_main__analogReference code
000000                01560 _analogReference:
                      01561 ;       .line   32; /home/valentin/.icaro/np05/tmp/analog.c     void analogReference(unsigned char Type)
000000 CFD9 FFE5      01562         MOVFF   FSR2L, POSTDEC1
000004 CFE1 FFD9      01563         MOVFF   FSR1L, FSR2L
000008 C??? FFE5      01564         MOVFF   r0x00, POSTDEC1
00000C 0E02           01565         MOVLW   0x02
00000E CFDB F???      01566         MOVFF   PLUSW2, r0x00
                      01567 ; #     MOVF    r0x00, W
                      01568 ; #     BTFSS   STATUS, 2
                      01569 ; #     GOTO    _00443_DS_
                      01570 ; #     GOTO    _00445_DS_
                      01571 ; #     MOVF    r0x00, W
                      01572 ;       .line   34; /home/valentin/.icaro/np05/tmp/analog.c     if(Type == DEFAULT)                     //the default analog reference of 5 volts (on 5V Arduino boards) or 3.3 volts (on 3.3V Arduino boards)
000012 50??           01573         MOVF    r0x00, W
                      01574 ;       .line   35; /home/valentin/.icaro/np05/tmp/analog.c     ADCON1|=0x00;                   //Vref+ = VDD
000014 E0??           01575         BZ      _00445_DS_
                      01576 ;       .line   36; /home/valentin/.icaro/np05/tmp/analog.c     else if(Type == EXTERNAL)       //the voltage applied to the AREF pin (0 to 5V only) is used as the reference.
000016 50??           01577         MOVF    r0x00, W
000018 0A01           01578         XORLW   0x01
00001A E1??           01579         BNZ     _00445_DS_
                      01580 ;       .line   37; /home/valentin/.icaro/np05/tmp/analog.c     ADCON1|=0x10;                   //Vref+ = External source
00001C 88??           01581         BSF     _ADCON1, 4
00001E                01582 _00445_DS_:
00001E CFE4 F???      01583         MOVFF   PREINC1, r0x00
000022 CFE4 FFD9      01584         MOVFF   PREINC1, FSR2L
000026 0012           01585         RETURN  
                      01586 
                      01587 ; ; Starting pCode block
                      01588 S_main__analog_init     code
000000                01589 _analog_init:
                      01590 ;       .line   15; /home/valentin/.icaro/np05/tmp/analog.c     TRISA=TRISA | 0x2F;
gpasm-0.14.3 #861 (Nov  5 2012) /home/valenti   6-16-2013  19:42:02         PAGE 31


LOC  OBJECT CODE     LINE SOURCE TEXT
  VALUE

000000 0E2F           01591         MOVLW   0x2f
000002 12??           01592         IORWF   _TRISA, F
                      01593 ;       .line   16; /home/valentin/.icaro/np05/tmp/analog.c     TRISE=TRISE | 0x07;     
000004 0E07           01594         MOVLW   0x07
000006 12??           01595         IORWF   _TRISE, F
                      01596 ;       .line   17; /home/valentin/.icaro/np05/tmp/analog.c     ADCON1=0x07;
000008 6E??           01597         MOVWF   _ADCON1
                      01598 ;       .line   18; /home/valentin/.icaro/np05/tmp/analog.c     ADCON2=0xBD;
00000A 0EBD           01599         MOVLW   0xbd
00000C 6E??           01600         MOVWF   _ADCON2
00000E 0012           01601         RETURN  
                      01602 
                      01603 ; ; Starting pCode block
                      01604 S_main__servos_interrupt        code
000000                01605 _servos_interrupt:
                      01606 ;       .line   289; /home/valentin/.icaro/np05/tmp/servos.c    if (PIR1bits.TMR1IF) {
000000 A0??           01607         BTFSS   _PIR1bits, 0
000002 D???           01608         BRA     _00430_DS_
                      01609 ;       .line   290; /home/valentin/.icaro/np05/tmp/servos.c    PIR1bits.TMR1IF=0;
000004 90??           01610         BCF     _PIR1bits, 0
                      01611 ;       .line   291; /home/valentin/.icaro/np05/tmp/servos.c    T1CON=0x00;
000006 6A??           01612         CLRF    _T1CON
000008 ????           01613         BANKSEL _phase
                      01614 ;       .line   292; /home/valentin/.icaro/np05/tmp/servos.c    if (phase) {
00000A 51??           01615         MOVF    _phase, W, B
00000C E0??           01616         BZ      _00426_DS_
                      01617 ;       .line   294; /home/valentin/.icaro/np05/tmp/servos.c    ServosPulseUp();
00000E EC?? F???      01618         CALL    _ServosPulseUp
                      01619 ;       .line   296; /home/valentin/.icaro/np05/tmp/servos.c    TMR1H= 0xd3;
000012 0ED3           01620         MOVLW   0xd3
000014 6E??           01621         MOVWF   _TMR1H
                      01622 ;       .line   297; /home/valentin/.icaro/np05/tmp/servos.c    TMR1L= 0x8f;
000016 0E8F           01623         MOVLW   0x8f
000018 6E??           01624         MOVWF   _TMR1L
                      01625 ;       .line   299; /home/valentin/.icaro/np05/tmp/servos.c    T1CON=1;
00001A 0E01           01626         MOVLW   0x01
00001C 6E??           01627         MOVWF   _T1CON
00001E ????           01628         BANKSEL _phase
                      01629 ;       .line   300; /home/valentin/.icaro/np05/tmp/servos.c    phase = 0;
000020 6B??           01630         CLRF    _phase, B
000022 D???           01631         BRA     _00430_DS_
000024                01632 _00426_DS_:
                      01633 ;       .line   305; /home/valentin/.icaro/np05/tmp/servos.c    ServosPulseDown();
000024 EC?? F???      01634         CALL    _ServosPulseDown
                      01635 ;       .line   309; /home/valentin/.icaro/np05/tmp/servos.c    TMR1H= 0x2d;
000028 0E2D           01636         MOVLW   0x2d
00002A 6E??           01637         MOVWF   _TMR1H
                      01638 ;       .line   310; /home/valentin/.icaro/np05/tmp/servos.c    TMR1L= 0x0f;
00002C 0E0F           01639         MOVLW   0x0f
00002E 6E??           01640         MOVWF   _TMR1L
                      01641 ; #     MOVF    _needreordering, W, B
                      01642 ; #     BTFSC   STATUS, 2
                      01643 ; #     GOTO    _00424_DS_
gpasm-0.14.3 #861 (Nov  5 2012) /home/valenti   6-16-2013  19:42:02         PAGE 32


LOC  OBJECT CODE     LINE SOURCE TEXT
  VALUE

                      01644 ; #     CALL    _SortServoTimings
                      01645 ; #     MOVLW   0x21
000030 ????           01646         BANKSEL _needreordering
                      01647 ;       .line   312; /home/valentin/.icaro/np05/tmp/servos.c    if (needreordering)     
000032 51??           01648         MOVF    _needreordering, W, B
                      01649 ;       .line   313; /home/valentin/.icaro/np05/tmp/servos.c    SortServoTimings();  // This takes more than 1 ms, but it's call only if needed.
000034 A4D8           01650         BTFSS   STATUS, 2
                      01651 ;       .line   314; /home/valentin/.icaro/np05/tmp/servos.c    T1CON= ( 1 | 2 << 4 ) ; // activate timer1 and prescaler = 1:4
000036 EC?? F???      01652         CALL    _SortServoTimings
00003A 0E21           01653         MOVLW   0x21
00003C 6E??           01654         MOVWF   _T1CON
                      01655 ;       .line   315; /home/valentin/.icaro/np05/tmp/servos.c    phase = 1;  //This indicates that after next interrupt it will start the servos cycle.
00003E 0E01           01656         MOVLW   0x01
000040 ????           01657         BANKSEL _phase
000042 6F??           01658         MOVWF   _phase, B
000044                01659 _00430_DS_:
                      01660 ;       .line   318; /home/valentin/.icaro/np05/tmp/servos.c    return;
000044 0012           01661         RETURN  
                      01662 
                      01663 ; ; Starting pCode block
                      01664 S_main__ServoMaximumPulse       code
000000                01665 _ServoMaximumPulse:
                      01666 ;       .line   274; /home/valentin/.icaro/np05/tmp/servos.c    void ServoMaximumPulse(uchar servo)
000000 CFD9 FFE5      01667         MOVFF   FSR2L, POSTDEC1
000004 CFE1 FFD9      01668         MOVFF   FSR1L, FSR2L
000008 C??? FFE5      01669         MOVFF   r0x00, POSTDEC1
00000C C??? FFE5      01670         MOVFF   r0x01, POSTDEC1
000010 0E02           01671         MOVLW   0x02
000012 CFDB F???      01672         MOVFF   PLUSW2, r0x00
                      01673 ;       .line   276; /home/valentin/.icaro/np05/tmp/servos.c    if(servo>=18)        // test if numservo is valid
000016 0E12           01674         MOVLW   0x12
                      01675 ; #     SUBWF   r0x00, W
                      01676 ; #     BTFSS   STATUS, 0
                      01677 ; #     GOTO    _00414_DS_
                      01678 ; #     GOTO    _00415_DS_
                      01679 ; #     CLRF    r0x01
                      01680 ;       .line   277; /home/valentin/.icaro/np05/tmp/servos.c    return;
000018 5C??           01681         SUBWF   r0x00, W
                      01682 ;       .line   279; /home/valentin/.icaro/np05/tmp/servos.c    servovalues[servo]=SERVOMAX;  //  250 = 2000 useg pulse
00001A E2??           01683         BC      _00415_DS_
00001C 6A??           01684         CLRF    r0x01
00001E 0E??           01685         MOVLW   LOW(_servovalues)
000020 26??           01686         ADDWF   r0x00, F
000022 0E??           01687         MOVLW   HIGH(_servovalues)
000024 22??           01688         ADDWFC  r0x01, F
000026 C??? FFE9      01689         MOVFF   r0x00, FSR0L
00002A C??? FFEA      01690         MOVFF   r0x01, FSR0H
00002E 0EFA           01691         MOVLW   0xfa
000030 6EEF           01692         MOVWF   INDF0
                      01693 ;       .line   281; /home/valentin/.icaro/np05/tmp/servos.c    needreordering=1;  // This indicates servo timings must be reordered.
000032 0E01           01694         MOVLW   0x01
000034 ????           01695         BANKSEL _needreordering
000036 6F??           01696         MOVWF   _needreordering, B
gpasm-0.14.3 #861 (Nov  5 2012) /home/valenti   6-16-2013  19:42:02         PAGE 33


LOC  OBJECT CODE     LINE SOURCE TEXT
  VALUE

000038                01697 _00415_DS_:
000038 CFE4 F???      01698         MOVFF   PREINC1, r0x01
00003C CFE4 F???      01699         MOVFF   PREINC1, r0x00
000040 CFE4 FFD9      01700         MOVFF   PREINC1, FSR2L
000044 0012           01701         RETURN  
                      01702 
                      01703 ; ; Starting pCode block
                      01704 S_main__ServoMinimumPulse       code
000000                01705 _ServoMinimumPulse:
                      01706 ;       .line   263; /home/valentin/.icaro/np05/tmp/servos.c    void ServoMinimumPulse(uchar servo)
000000 CFD9 FFE5      01707         MOVFF   FSR2L, POSTDEC1
000004 CFE1 FFD9      01708         MOVFF   FSR1L, FSR2L
000008 C??? FFE5      01709         MOVFF   r0x00, POSTDEC1
00000C C??? FFE5      01710         MOVFF   r0x01, POSTDEC1
000010 0E02           01711         MOVLW   0x02
000012 CFDB F???      01712         MOVFF   PLUSW2, r0x00
                      01713 ;       .line   265; /home/valentin/.icaro/np05/tmp/servos.c    if(servo>=18)        // test if numservo is valid
000016 0E12           01714         MOVLW   0x12
                      01715 ; #     SUBWF   r0x00, W
                      01716 ; #     BTFSS   STATUS, 0
                      01717 ; #     GOTO    _00404_DS_
                      01718 ; #     GOTO    _00405_DS_
                      01719 ; #     CLRF    r0x01
                      01720 ;       .line   266; /home/valentin/.icaro/np05/tmp/servos.c    return;
000018 5C??           01721         SUBWF   r0x00, W
                      01722 ;       .line   268; /home/valentin/.icaro/np05/tmp/servos.c    servovalues[servo]=SERVOMIN;  //  1 = 1000 useg pulse
00001A E2??           01723         BC      _00405_DS_
00001C 6A??           01724         CLRF    r0x01
00001E 0E??           01725         MOVLW   LOW(_servovalues)
000020 26??           01726         ADDWF   r0x00, F
000022 0E??           01727         MOVLW   HIGH(_servovalues)
000024 22??           01728         ADDWFC  r0x01, F
000026 C??? FFE9      01729         MOVFF   r0x00, FSR0L
00002A C??? FFEA      01730         MOVFF   r0x01, FSR0H
00002E 0E01           01731         MOVLW   0x01
000030 6EEF           01732         MOVWF   INDF0
000032 ????           01733         BANKSEL _needreordering
                      01734 ;       .line   270; /home/valentin/.icaro/np05/tmp/servos.c    needreordering=1;  // This indicates servo timings must be reordered.
000034 6F??           01735         MOVWF   _needreordering, B
000036                01736 _00405_DS_:
000036 CFE4 F???      01737         MOVFF   PREINC1, r0x01
00003A CFE4 F???      01738         MOVFF   PREINC1, r0x00
00003E CFE4 FFD9      01739         MOVFF   PREINC1, FSR2L
000042 0012           01740         RETURN  
                      01741 
                      01742 ; ; Starting pCode block
                      01743 S_main__ServoRead       code
000000                01744 _ServoRead:
                      01745 ;       .line   255; /home/valentin/.icaro/np05/tmp/servos.c    unsigned char ServoRead(uchar servo)
000000 CFD9 FFE5      01746         MOVFF   FSR2L, POSTDEC1
000004 CFE1 FFD9      01747         MOVFF   FSR1L, FSR2L
000008 C??? FFE5      01748         MOVFF   r0x00, POSTDEC1
00000C C??? FFE5      01749         MOVFF   r0x01, POSTDEC1
gpasm-0.14.3 #861 (Nov  5 2012) /home/valenti   6-16-2013  19:42:02         PAGE 34


LOC  OBJECT CODE     LINE SOURCE TEXT
  VALUE

000010 0E02           01750         MOVLW   0x02
000012 CFDB F???      01751         MOVFF   PLUSW2, r0x00
                      01752 ;       .line   257; /home/valentin/.icaro/np05/tmp/servos.c    if(servo>=18)        // test if numservo is valid
000016 0E12           01753         MOVLW   0x12
000018 5C??           01754         SUBWF   r0x00, W
00001A E3??           01755         BNC     _00394_DS_
                      01756 ;       .line   258; /home/valentin/.icaro/np05/tmp/servos.c    return 0;
00001C 6AE8           01757         CLRF    WREG
00001E D???           01758         BRA     _00395_DS_
000020                01759 _00394_DS_:
                      01760 ;       .line   259; /home/valentin/.icaro/np05/tmp/servos.c    return servovalues[servo];
000020 6A??           01761         CLRF    r0x01
000022 0E??           01762         MOVLW   LOW(_servovalues)
000024 26??           01763         ADDWF   r0x00, F
000026 0E??           01764         MOVLW   HIGH(_servovalues)
000028 22??           01765         ADDWFC  r0x01, F
00002A C??? FFE9      01766         MOVFF   r0x00, FSR0L
00002E C??? FFEA      01767         MOVFF   r0x01, FSR0H
000032 CFEF F???      01768         MOVFF   INDF0, r0x00
000036 50??           01769         MOVF    r0x00, W
000038                01770 _00395_DS_:
000038 CFE4 F???      01771         MOVFF   PREINC1, r0x01
00003C CFE4 F???      01772         MOVFF   PREINC1, r0x00
000040 CFE4 FFD9      01773         MOVFF   PREINC1, FSR2L
000044 0012           01774         RETURN  
                      01775 
                      01776 ; ; Starting pCode block
                      01777 S_main__ServoWrite      code
000000                01778 _ServoWrite:
                      01779 ;       .line   240; /home/valentin/.icaro/np05/tmp/servos.c    void ServoWrite(uchar servo, uchar value)
000000 CFD9 FFE5      01780         MOVFF   FSR2L, POSTDEC1
000004 CFE1 FFD9      01781         MOVFF   FSR1L, FSR2L
000008 C??? FFE5      01782         MOVFF   r0x00, POSTDEC1
00000C C??? FFE5      01783         MOVFF   r0x01, POSTDEC1
000010 C??? FFE5      01784         MOVFF   r0x02, POSTDEC1
000014 0E02           01785         MOVLW   0x02
000016 CFDB F???      01786         MOVFF   PLUSW2, r0x00
00001A 0E03           01787         MOVLW   0x03
00001C CFDB F???      01788         MOVFF   PLUSW2, r0x01
                      01789 ;       .line   242; /home/valentin/.icaro/np05/tmp/servos.c    if(servo>=18)        // test if numservo is valid
000020 0E12           01790         MOVLW   0x12
                      01791 ; #     SUBWF   r0x00, W
                      01792 ; #     BTFSS   STATUS, 0
                      01793 ; #     GOTO    _00376_DS_
                      01794 ; #     GOTO    _00381_DS_
                      01795 ; #     MOVLW   0x01
                      01796 ;       .line   243; /home/valentin/.icaro/np05/tmp/servos.c    return;
000022 5C??           01797         SUBWF   r0x00, W
                      01798 ;       .line   245; /home/valentin/.icaro/np05/tmp/servos.c    if(value<SERVOMIN)  //  1 = 1000 useg pulse
000024 E2??           01799         BC      _00381_DS_
000026 0E01           01800         MOVLW   0x01
000028 5C??           01801         SUBWF   r0x01, W
00002A E2??           01802         BC      _00378_DS_
gpasm-0.14.3 #861 (Nov  5 2012) /home/valenti   6-16-2013  19:42:02         PAGE 35


LOC  OBJECT CODE     LINE SOURCE TEXT
  VALUE

                      01803 ;       .line   246; /home/valentin/.icaro/np05/tmp/servos.c    value=SERVOMIN;
00002C 0E01           01804         MOVLW   0x01
00002E 6E??           01805         MOVWF   r0x01
000030                01806 _00378_DS_:
                      01807 ;       .line   247; /home/valentin/.icaro/np05/tmp/servos.c    if(value>SERVOMAX) // 250 = 2000 useg pulse
000030 0EFB           01808         MOVLW   0xfb
000032 5C??           01809         SUBWF   r0x01, W
000034 E3??           01810         BNC     _00380_DS_
                      01811 ;       .line   248; /home/valentin/.icaro/np05/tmp/servos.c    value=SERVOMAX;
000036 0EFA           01812         MOVLW   0xfa
000038 6E??           01813         MOVWF   r0x01
00003A                01814 _00380_DS_:
                      01815 ;       .line   249; /home/valentin/.icaro/np05/tmp/servos.c    servovalues[servo]=value;
00003A 6A??           01816         CLRF    r0x02
00003C 0E??           01817         MOVLW   LOW(_servovalues)
00003E 26??           01818         ADDWF   r0x00, F
000040 0E??           01819         MOVLW   HIGH(_servovalues)
000042 22??           01820         ADDWFC  r0x02, F
000044 C??? FFE9      01821         MOVFF   r0x00, FSR0L
000048 C??? FFEA      01822         MOVFF   r0x02, FSR0H
00004C C??? FFEF      01823         MOVFF   r0x01, INDF0
                      01824 ;       .line   251; /home/valentin/.icaro/np05/tmp/servos.c    needreordering=1;  // This indicates servo timings must be reordered.
000050 0E01           01825         MOVLW   0x01
000052 ????           01826         BANKSEL _needreordering
000054 6F??           01827         MOVWF   _needreordering, B
000056                01828 _00381_DS_:
000056 CFE4 F???      01829         MOVFF   PREINC1, r0x02
00005A CFE4 F???      01830         MOVFF   PREINC1, r0x01
00005E CFE4 F???      01831         MOVFF   PREINC1, r0x00
000062 CFE4 FFD9      01832         MOVFF   PREINC1, FSR2L
000066 0012           01833         RETURN  
                      01834 
                      01835 ; ; Starting pCode block
                      01836 S_main__ServoDetach     code
000000                01837 _ServoDetach:
                      01838 ;       .line   226; /home/valentin/.icaro/np05/tmp/servos.c    void ServoDetach(uchar pin)
000000 CFD9 FFE5      01839         MOVFF   FSR2L, POSTDEC1
000004 CFE1 FFD9      01840         MOVFF   FSR1L, FSR2L
000008 C??? FFE5      01841         MOVFF   r0x00, POSTDEC1
00000C C??? FFE5      01842         MOVFF   r0x01, POSTDEC1
000010 C??? FFE5      01843         MOVFF   r0x02, POSTDEC1
000014 C??? FFE5      01844         MOVFF   r0x03, POSTDEC1
000018 0E02           01845         MOVLW   0x02
00001A CFDB F???      01846         MOVFF   PLUSW2, r0x00
                      01847 ;       .line   228; /home/valentin/.icaro/np05/tmp/servos.c    if(pin>=18) return;
00001E 0E12           01848         MOVLW   0x12
                      01849 ; #     SUBWF   r0x00, W
                      01850 ; #     BTFSS   STATUS, 0
                      01851 ; #     GOTO    _00355_DS_
                      01852 ; #     GOTO    _00362_DS_
                      01853 ; #     MOVLW   0x08
                      01854 ;       .line   230; /home/valentin/.icaro/np05/tmp/servos.c    if(pin<8){
000020 5C??           01855         SUBWF   r0x00, W
gpasm-0.14.3 #861 (Nov  5 2012) /home/valenti   6-16-2013  19:42:02         PAGE 36


LOC  OBJECT CODE     LINE SOURCE TEXT
  VALUE

000022 B0D8           01856         BTFSC   STATUS, 0
000024 D???           01857         BRA     _00362_DS_
000026 0E08           01858         MOVLW   0x08
000028 5C??           01859         SUBWF   r0x00, W
00002A E2??           01860         BC      _00360_DS_
                      01861 ;       .line   231; /home/valentin/.icaro/np05/tmp/servos.c    activatedservos[MaskPort_B] = activatedservos[MaskPort_B] ^ servomasks[pin];
00002C 0E??           01862         MOVLW   LOW(_servomasks)
00002E 24??           01863         ADDWF   r0x00, W
000030 6E??           01864         MOVWF   r0x01
000032 6A??           01865         CLRF    r0x02
000034 0E??           01866         MOVLW   HIGH(_servomasks)
000036 22??           01867         ADDWFC  r0x02, F
000038 6A??           01868         CLRF    r0x03
00003A 0E??           01869         MOVLW   UPPER(_servomasks)
00003C 22??           01870         ADDWFC  r0x03, F
00003E C??? FFF6      01871         MOVFF   r0x01, TBLPTRL
000042 C??? FFF7      01872         MOVFF   r0x02, TBLPTRH
000046 C??? FFF8      01873         MOVFF   r0x03, TBLPTRU
00004A 0009           01874         TBLRD*+ 
00004C CFF5 F???      01875         MOVFF   TABLAT, r0x01
000050 ????           01876         BANKSEL _activatedservos
000052 51??           01877         MOVF    _activatedservos, W, B
000054 1A??           01878         XORWF   r0x01, F
000056 50??           01879         MOVF    r0x01, W
                      01880 ; removed redundant BANKSEL
000058 6F??           01881         MOVWF   _activatedservos, B
00005A D???           01882         BRA     _00362_DS_
00005C                01883 _00360_DS_:
                      01884 ;       .line   232; /home/valentin/.icaro/np05/tmp/servos.c    } else if (pin>12) {
00005C 0E0D           01885         MOVLW   0x0d
00005E 5C??           01886         SUBWF   r0x00, W
000060 E3??           01887         BNC     _00357_DS_
                      01888 ;       .line   233; /home/valentin/.icaro/np05/tmp/servos.c    activatedservos[MaskPort_A] = activatedservos[MaskPort_A] ^ servomasks[pin];
000062 0E??           01889         MOVLW   LOW(_servomasks)
000064 24??           01890         ADDWF   r0x00, W
000066 6E??           01891         MOVWF   r0x01
000068 6A??           01892         CLRF    r0x02
00006A 0E??           01893         MOVLW   HIGH(_servomasks)
00006C 22??           01894         ADDWFC  r0x02, F
00006E 6A??           01895         CLRF    r0x03
000070 0E??           01896         MOVLW   UPPER(_servomasks)
000072 22??           01897         ADDWFC  r0x03, F
000074 C??? FFF6      01898         MOVFF   r0x01, TBLPTRL
000078 C??? FFF7      01899         MOVFF   r0x02, TBLPTRH
00007C C??? FFF8      01900         MOVFF   r0x03, TBLPTRU
000080 0009           01901         TBLRD*+ 
000082 CFF5 F???      01902         MOVFF   TABLAT, r0x01
000086 ????           01903         BANKSEL (_activatedservos + 2)
000088 51??           01904         MOVF    (_activatedservos + 2), W, B
00008A 1A??           01905         XORWF   r0x01, F
00008C 50??           01906         MOVF    r0x01, W
                      01907 ; removed redundant BANKSEL
00008E 6F??           01908         MOVWF   (_activatedservos + 2), B
gpasm-0.14.3 #861 (Nov  5 2012) /home/valenti   6-16-2013  19:42:02         PAGE 37


LOC  OBJECT CODE     LINE SOURCE TEXT
  VALUE

000090 D???           01909         BRA     _00362_DS_
000092                01910 _00357_DS_:
                      01911 ;       .line   235; /home/valentin/.icaro/np05/tmp/servos.c    activatedservos[MaskPort_C] = activatedservos[MaskPort_C] ^ servomasks[pin];
000092 6A??           01912         CLRF    r0x01
000094 6A??           01913         CLRF    r0x02
000096 0E??           01914         MOVLW   LOW(_servomasks)
000098 26??           01915         ADDWF   r0x00, F
00009A 0E??           01916         MOVLW   HIGH(_servomasks)
00009C 22??           01917         ADDWFC  r0x01, F
00009E 0E??           01918         MOVLW   UPPER(_servomasks)
0000A0 22??           01919         ADDWFC  r0x02, F
0000A2 C??? FFF6      01920         MOVFF   r0x00, TBLPTRL
0000A6 C??? FFF7      01921         MOVFF   r0x01, TBLPTRH
0000AA C??? FFF8      01922         MOVFF   r0x02, TBLPTRU
0000AE 0009           01923         TBLRD*+ 
0000B0 CFF5 F???      01924         MOVFF   TABLAT, r0x00
0000B4 ????           01925         BANKSEL (_activatedservos + 1)
0000B6 51??           01926         MOVF    (_activatedservos + 1), W, B
0000B8 1A??           01927         XORWF   r0x00, F
0000BA 50??           01928         MOVF    r0x00, W
                      01929 ; removed redundant BANKSEL
0000BC 6F??           01930         MOVWF   (_activatedservos + 1), B
0000BE                01931 _00362_DS_:
0000BE CFE4 F???      01932         MOVFF   PREINC1, r0x03
0000C2 CFE4 F???      01933         MOVFF   PREINC1, r0x02
0000C6 CFE4 F???      01934         MOVFF   PREINC1, r0x01
0000CA CFE4 F???      01935         MOVFF   PREINC1, r0x00
0000CE CFE4 FFD9      01936         MOVFF   PREINC1, FSR2L
0000D2 0012           01937         RETURN  
                      01938 
                      01939 ; ; Starting pCode block
                      01940 S_main__ServoAttach     code
000000                01941 _ServoAttach:
                      01942 ;       .line   209; /home/valentin/.icaro/np05/tmp/servos.c    void ServoAttach(uchar pin)
000000 CFD9 FFE5      01943         MOVFF   FSR2L, POSTDEC1
000004 CFE1 FFD9      01944         MOVFF   FSR1L, FSR2L
000008 C??? FFE5      01945         MOVFF   r0x00, POSTDEC1
00000C C??? FFE5      01946         MOVFF   r0x01, POSTDEC1
000010 C??? FFE5      01947         MOVFF   r0x02, POSTDEC1
000014 C??? FFE5      01948         MOVFF   r0x03, POSTDEC1
000018 0E02           01949         MOVLW   0x02
00001A CFDB F???      01950         MOVFF   PLUSW2, r0x00
                      01951 ;       .line   211; /home/valentin/.icaro/np05/tmp/servos.c    if(pin>=18) return;
00001E 0E12           01952         MOVLW   0x12
                      01953 ; #     SUBWF   r0x00, W
                      01954 ; #     BTFSS   STATUS, 0
                      01955 ; #     GOTO    _00333_DS_
                      01956 ; #     GOTO    _00340_DS_
                      01957 ; #     MOVLW   0x08
                      01958 ;       .line   213; /home/valentin/.icaro/np05/tmp/servos.c    if(pin<8){
000020 5C??           01959         SUBWF   r0x00, W
000022 B0D8           01960         BTFSC   STATUS, 0
000024 D???           01961         BRA     _00340_DS_
gpasm-0.14.3 #861 (Nov  5 2012) /home/valenti   6-16-2013  19:42:02         PAGE 38


LOC  OBJECT CODE     LINE SOURCE TEXT
  VALUE

000026 0E08           01962         MOVLW   0x08
000028 5C??           01963         SUBWF   r0x00, W
00002A E2??           01964         BC      _00338_DS_
                      01965 ;       .line   214; /home/valentin/.icaro/np05/tmp/servos.c    activatedservos[MaskPort_B] = activatedservos[MaskPort_B] | servomasks[pin];  // list pin as servo driver.
00002C 0E??           01966         MOVLW   LOW(_servomasks)
00002E 24??           01967         ADDWF   r0x00, W
000030 6E??           01968         MOVWF   r0x01
000032 6A??           01969         CLRF    r0x02
000034 0E??           01970         MOVLW   HIGH(_servomasks)
000036 22??           01971         ADDWFC  r0x02, F
000038 6A??           01972         CLRF    r0x03
00003A 0E??           01973         MOVLW   UPPER(_servomasks)
00003C 22??           01974         ADDWFC  r0x03, F
00003E C??? FFF6      01975         MOVFF   r0x01, TBLPTRL
000042 C??? FFF7      01976         MOVFF   r0x02, TBLPTRH
000046 C??? FFF8      01977         MOVFF   r0x03, TBLPTRU
00004A 0009           01978         TBLRD*+ 
00004C CFF5 F???      01979         MOVFF   TABLAT, r0x01
000050 50??           01980         MOVF    r0x01, W
000052 ????           01981         BANKSEL _activatedservos
000054 11??           01982         IORWF   _activatedservos, W, B
                      01983 ; #     MOVWF   r0x02
                      01984 ; #     MOVF    r0x02, W
000056 6F??           01985         MOVWF   _activatedservos, B
                      01986 ;       .line   215; /home/valentin/.icaro/np05/tmp/servos.c    TRISB = TRISB & (255 - servomasks[pin]); // set as output pin
000058 50??           01987         MOVF    r0x01, W
00005A 08FF           01988         SUBLW   0xff
                      01989 ; #     MOVWF   r0x01
                      01990 ; #     MOVF    r0x01, W
00005C 16??           01991         ANDWF   _TRISB, F
00005E D???           01992         BRA     _00340_DS_
000060                01993 _00338_DS_:
                      01994 ;       .line   216; /home/valentin/.icaro/np05/tmp/servos.c    } else if (pin>12) {
000060 0E0D           01995         MOVLW   0x0d
000062 5C??           01996         SUBWF   r0x00, W
000064 E3??           01997         BNC     _00335_DS_
                      01998 ;       .line   217; /home/valentin/.icaro/np05/tmp/servos.c    activatedservos[MaskPort_A] = activatedservos[MaskPort_A] | servomasks[pin];  // list pin as servo driver.
000066 0E??           01999         MOVLW   LOW(_servomasks)
000068 24??           02000         ADDWF   r0x00, W
00006A 6E??           02001         MOVWF   r0x01
00006C 6A??           02002         CLRF    r0x02
00006E 0E??           02003         MOVLW   HIGH(_servomasks)
000070 22??           02004         ADDWFC  r0x02, F
000072 6A??           02005         CLRF    r0x03
000074 0E??           02006         MOVLW   UPPER(_servomasks)
000076 22??           02007         ADDWFC  r0x03, F
000078 C??? FFF6      02008         MOVFF   r0x01, TBLPTRL
00007C C??? FFF7      02009         MOVFF   r0x02, TBLPTRH
000080 C??? FFF8      02010         MOVFF   r0x03, TBLPTRU
000084 0009           02011         TBLRD*+ 
000086 CFF5 F???      02012         MOVFF   TABLAT, r0x01
00008A 50??           02013         MOVF    r0x01, W
00008C ????           02014         BANKSEL (_activatedservos + 2)
gpasm-0.14.3 #861 (Nov  5 2012) /home/valenti   6-16-2013  19:42:02         PAGE 39


LOC  OBJECT CODE     LINE SOURCE TEXT
  VALUE

00008E 11??           02015         IORWF   (_activatedservos + 2), W, B
                      02016 ; #     MOVWF   r0x02
                      02017 ; #     MOVF    r0x02, W
000090 6F??           02018         MOVWF   (_activatedservos + 2), B
                      02019 ;       .line   218; /home/valentin/.icaro/np05/tmp/servos.c    TRISA = TRISA & (255 - servomasks[pin]); // set as output pin
000092 50??           02020         MOVF    r0x01, W
000094 08FF           02021         SUBLW   0xff
                      02022 ; #     MOVWF   r0x01
                      02023 ; #     MOVF    r0x01, W
000096 16??           02024         ANDWF   _TRISA, F
000098 D???           02025         BRA     _00340_DS_
00009A                02026 _00335_DS_:
                      02027 ;       .line   220; /home/valentin/.icaro/np05/tmp/servos.c    activatedservos[MaskPort_C] = activatedservos[MaskPort_C] | servomasks[pin];  // list pin as servo driver.
00009A 6A??           02028         CLRF    r0x01
00009C 6A??           02029         CLRF    r0x02
00009E 0E??           02030         MOVLW   LOW(_servomasks)
0000A0 26??           02031         ADDWF   r0x00, F
0000A2 0E??           02032         MOVLW   HIGH(_servomasks)
0000A4 22??           02033         ADDWFC  r0x01, F
0000A6 0E??           02034         MOVLW   UPPER(_servomasks)
0000A8 22??           02035         ADDWFC  r0x02, F
0000AA C??? FFF6      02036         MOVFF   r0x00, TBLPTRL
0000AE C??? FFF7      02037         MOVFF   r0x01, TBLPTRH
0000B2 C??? FFF8      02038         MOVFF   r0x02, TBLPTRU
0000B6 0009           02039         TBLRD*+ 
0000B8 CFF5 F???      02040         MOVFF   TABLAT, r0x00
0000BC 50??           02041         MOVF    r0x00, W
0000BE ????           02042         BANKSEL (_activatedservos + 1)
0000C0 11??           02043         IORWF   (_activatedservos + 1), W, B
                      02044 ; #     MOVWF   r0x01
                      02045 ; #     MOVF    r0x01, W
0000C2 6F??           02046         MOVWF   (_activatedservos + 1), B
                      02047 ;       .line   221; /home/valentin/.icaro/np05/tmp/servos.c    TRISC = TRISC & (255 - servomasks[pin]); // set as output pin
0000C4 50??           02048         MOVF    r0x00, W
0000C6 08FF           02049         SUBLW   0xff
                      02050 ; #     MOVWF   r0x00
                      02051 ; #     MOVF    r0x00, W
0000C8 16??           02052         ANDWF   _TRISC, F
0000CA                02053 _00340_DS_:
0000CA CFE4 F???      02054         MOVFF   PREINC1, r0x03
0000CE CFE4 F???      02055         MOVFF   PREINC1, r0x02
0000D2 CFE4 F???      02056         MOVFF   PREINC1, r0x01
0000D6 CFE4 F???      02057         MOVFF   PREINC1, r0x00
0000DA CFE4 FFD9      02058         MOVFF   PREINC1, FSR2L
0000DE 0012           02059         RETURN  
                      02060 
                      02061 ; ; Starting pCode block
                      02062 S_main__SortServoTimings        code
000000                02063 _SortServoTimings:
                      02064 ;       .line   125; /home/valentin/.icaro/np05/tmp/servos.c    static void SortServoTimings()
000000 C??? FFE5      02065         MOVFF   r0x00, POSTDEC1
000004 C??? FFE5      02066         MOVFF   r0x01, POSTDEC1
000008 C??? FFE5      02067         MOVFF   r0x02, POSTDEC1
gpasm-0.14.3 #861 (Nov  5 2012) /home/valenti   6-16-2013  19:42:02         PAGE 40


LOC  OBJECT CODE     LINE SOURCE TEXT
  VALUE

00000C C??? FFE5      02068         MOVFF   r0x03, POSTDEC1
000010 C??? FFE5      02069         MOVFF   r0x04, POSTDEC1
000014 C??? FFE5      02070         MOVFF   r0x05, POSTDEC1
000018 C??? FFE5      02071         MOVFF   r0x06, POSTDEC1
00001C C??? FFE5      02072         MOVFF   r0x07, POSTDEC1
000020 C??? FFE5      02073         MOVFF   r0x08, POSTDEC1
000024 C??? FFE5      02074         MOVFF   r0x09, POSTDEC1
000028 ????           02075         BANKSEL _SortServoTimings_mascaratotal_1_1
                      02076 ;       .line   132; /home/valentin/.icaro/np05/tmp/servos.c    uchar mascaratotal[3]={0x00,0x00,0x00};
00002A 6B??           02077         CLRF    _SortServoTimings_mascaratotal_1_1, B
                      02078 ; removed redundant BANKSEL
00002C 6B??           02079         CLRF    (_SortServoTimings_mascaratotal_1_1 + 1), B
                      02080 ; removed redundant BANKSEL
00002E 6B??           02081         CLRF    (_SortServoTimings_mascaratotal_1_1 + 2), B
                      02082 ;       .line   135; /home/valentin/.icaro/np05/tmp/servos.c    for(t=0;t<18;t++){
000030 6A??           02083         CLRF    r0x00
000032                02084 _00280_DS_:
000032 0E12           02085         MOVLW   0x12
000034 5C??           02086         SUBWF   r0x00, W
000036 E2??           02087         BC      _00283_DS_
                      02088 ;       .line   136; /home/valentin/.icaro/np05/tmp/servos.c    timings[timevalue][t]=255;
000038 0E??           02089         MOVLW   LOW(_timings + 54)
00003A 24??           02090         ADDWF   r0x00, W
00003C 6E??           02091         MOVWF   r0x01
00003E 6A??           02092         CLRF    r0x02
000040 0E??           02093         MOVLW   HIGH(_timings + 54)
000042 22??           02094         ADDWFC  r0x02, F
000044 C??? FFE9      02095         MOVFF   r0x01, FSR0L
000048 C??? FFEA      02096         MOVFF   r0x02, FSR0H
00004C 68EF           02097         SETF    INDF0
                      02098 ;       .line   138; /home/valentin/.icaro/np05/tmp/servos.c    timings[MaskPort_C][t]=0x00;
00004E 0E??           02099         MOVLW   LOW(_timings + 18)
000050 24??           02100         ADDWF   r0x00, W
000052 6E??           02101         MOVWF   r0x01
000054 6A??           02102         CLRF    r0x02
000056 0E??           02103         MOVLW   HIGH(_timings + 18)
000058 22??           02104         ADDWFC  r0x02, F
00005A C??? FFE9      02105         MOVFF   r0x01, FSR0L
00005E C??? FFEA      02106         MOVFF   r0x02, FSR0H
000062 6AEF           02107         CLRF    INDF0
                      02108 ;       .line   139; /home/valentin/.icaro/np05/tmp/servos.c    timings[MaskPort_A][t]=0x00;
000064 0E??           02109         MOVLW   LOW(_timings + 36)
000066 24??           02110         ADDWF   r0x00, W
000068 6E??           02111         MOVWF   r0x01
00006A 6A??           02112         CLRF    r0x02
00006C 0E??           02113         MOVLW   HIGH(_timings + 36)
00006E 22??           02114         ADDWFC  r0x02, F
000070 C??? FFE9      02115         MOVFF   r0x01, FSR0L
000074 C??? FFEA      02116         MOVFF   r0x02, FSR0H
000078 6AEF           02117         CLRF    INDF0
                      02118 ;       .line   135; /home/valentin/.icaro/np05/tmp/servos.c    for(t=0;t<18;t++){
00007A 2A??           02119         INCF    r0x00, F
00007C D???           02120         BRA     _00280_DS_
gpasm-0.14.3 #861 (Nov  5 2012) /home/valenti   6-16-2013  19:42:02         PAGE 41


LOC  OBJECT CODE     LINE SOURCE TEXT
  VALUE

00007E                02121 _00283_DS_:
                      02122 ;       .line   142; /home/valentin/.icaro/np05/tmp/servos.c    totalservos=0;
00007E 6A??           02123         CLRF    r0x00
                      02124 ;       .line   144; /home/valentin/.icaro/np05/tmp/servos.c    while(totalservos<18) {
000080 6A??           02125         CLRF    r0x01
000082                02126 _00277_DS_:
000082 0E12           02127         MOVLW   0x12
000084 5C??           02128         SUBWF   r0x00, W
000086 B0D8           02129         BTFSC   STATUS, 0
000088 D???           02130         BRA     _00279_DS_
                      02131 ;       .line   145; /home/valentin/.icaro/np05/tmp/servos.c    numservos=1;
00008A 0E01           02132         MOVLW   0x01
00008C 6E??           02133         MOVWF   r0x02
                      02134 ;       .line   146; /home/valentin/.icaro/np05/tmp/servos.c    for(s=0;s<18;s++) { 
00008E 6A??           02135         CLRF    r0x03
000090                02136 _00284_DS_:
000090 0E12           02137         MOVLW   0x12
000092 5C??           02138         SUBWF   r0x03, W
000094 B0D8           02139         BTFSC   STATUS, 0
000096 D???           02140         BRA     _00287_DS_
                      02141 ;       .line   148; /home/valentin/.icaro/np05/tmp/servos.c    if (s<8){
000098 0E08           02142         MOVLW   0x08
00009A 5C??           02143         SUBWF   r0x03, W
00009C B0D8           02144         BTFSC   STATUS, 0
00009E D???           02145         BRA     _00275_DS_
                      02146 ;       .line   149; /home/valentin/.icaro/np05/tmp/servos.c    if (servomasks[s] & mascaratotal[MaskPort_B] & activatedservos[MaskPort_B]){
0000A0 0E??           02147         MOVLW   LOW(_servomasks)
0000A2 24??           02148         ADDWF   r0x03, W
0000A4 6E??           02149         MOVWF   r0x04
0000A6 6A??           02150         CLRF    r0x05
0000A8 0E??           02151         MOVLW   HIGH(_servomasks)
0000AA 22??           02152         ADDWFC  r0x05, F
0000AC 6A??           02153         CLRF    r0x06
0000AE 0E??           02154         MOVLW   UPPER(_servomasks)
0000B0 22??           02155         ADDWFC  r0x06, F
0000B2 C??? FFF6      02156         MOVFF   r0x04, TBLPTRL
0000B6 C??? FFF7      02157         MOVFF   r0x05, TBLPTRH
0000BA C??? FFF8      02158         MOVFF   r0x06, TBLPTRU
0000BE 0009           02159         TBLRD*+ 
0000C0 CFF5 F???      02160         MOVFF   TABLAT, r0x04
0000C4 ????           02161         BANKSEL _SortServoTimings_mascaratotal_1_1
0000C6 51??           02162         MOVF    _SortServoTimings_mascaratotal_1_1, W, B
0000C8 16??           02163         ANDWF   r0x04, F
0000CA ????           02164         BANKSEL _activatedservos
0000CC 51??           02165         MOVF    _activatedservos, W, B
0000CE 16??           02166         ANDWF   r0x04, F
0000D0 50??           02167         MOVF    r0x04, W
0000D2 A4D8           02168         BTFSS   STATUS, 2
0000D4 D???           02169         BRA     _00286_DS_
                      02170 ;       .line   151; /home/valentin/.icaro/np05/tmp/servos.c    else if (servovalues[s] < timings[timevalue][t]){
0000D6 0E??           02171         MOVLW   LOW(_servovalues)
0000D8 24??           02172         ADDWF   r0x03, W
0000DA 6E??           02173         MOVWF   r0x04
gpasm-0.14.3 #861 (Nov  5 2012) /home/valenti   6-16-2013  19:42:02         PAGE 42


LOC  OBJECT CODE     LINE SOURCE TEXT
  VALUE

0000DC 6A??           02174         CLRF    r0x05
0000DE 0E??           02175         MOVLW   HIGH(_servovalues)
0000E0 22??           02176         ADDWFC  r0x05, F
0000E2 C??? FFE9      02177         MOVFF   r0x04, FSR0L
0000E6 C??? FFEA      02178         MOVFF   r0x05, FSR0H
0000EA CFEF F???      02179         MOVFF   INDF0, r0x04
0000EE 0E??           02180         MOVLW   LOW(_timings + 54)
0000F0 24??           02181         ADDWF   r0x01, W
0000F2 6E??           02182         MOVWF   r0x05
0000F4 6A??           02183         CLRF    r0x06
0000F6 0E??           02184         MOVLW   HIGH(_timings + 54)
0000F8 22??           02185         ADDWFC  r0x06, F
0000FA C??? FFE9      02186         MOVFF   r0x05, FSR0L
0000FE C??? FFEA      02187         MOVFF   r0x06, FSR0H
000102 CFEF F???      02188         MOVFF   INDF0, r0x07
000106 50??           02189         MOVF    r0x07, W
000108 5C??           02190         SUBWF   r0x04, W
00010A E2??           02191         BC      _00250_DS_
                      02192 ;       .line   152; /home/valentin/.icaro/np05/tmp/servos.c    timings[timevalue][t]=servovalues[s];
00010C C??? FFE9      02193         MOVFF   r0x05, FSR0L
000110 C??? FFEA      02194         MOVFF   r0x06, FSR0H
000114 C??? FFEF      02195         MOVFF   r0x04, INDF0
                      02196 ;       .line   154; /home/valentin/.icaro/np05/tmp/servos.c    timings[MaskPort_C][t]=0x00;
000118 0E??           02197         MOVLW   LOW(_timings + 18)
00011A 24??           02198         ADDWF   r0x01, W
00011C 6E??           02199         MOVWF   r0x07
00011E 6A??           02200         CLRF    r0x08
000120 0E??           02201         MOVLW   HIGH(_timings + 18)
000122 22??           02202         ADDWFC  r0x08, F
000124 C??? FFE9      02203         MOVFF   r0x07, FSR0L
000128 C??? FFEA      02204         MOVFF   r0x08, FSR0H
00012C 6AEF           02205         CLRF    INDF0
                      02206 ;       .line   155; /home/valentin/.icaro/np05/tmp/servos.c    timings[MaskPort_A][t]=0x00;
00012E 0E??           02207         MOVLW   LOW(_timings + 36)
000130 24??           02208         ADDWF   r0x01, W
000132 6E??           02209         MOVWF   r0x07
000134 6A??           02210         CLRF    r0x08
000136 0E??           02211         MOVLW   HIGH(_timings + 36)
000138 22??           02212         ADDWFC  r0x08, F
00013A C??? FFE9      02213         MOVFF   r0x07, FSR0L
00013E C??? FFEA      02214         MOVFF   r0x08, FSR0H
000142 6AEF           02215         CLRF    INDF0
                      02216 ;       .line   156; /home/valentin/.icaro/np05/tmp/servos.c    numservos=1;
000144 0E01           02217         MOVLW   0x01
000146 6E??           02218         MOVWF   r0x02
000148 D???           02219         BRA     _00286_DS_
00014A                02220 _00250_DS_:
                      02221 ;       .line   158; /home/valentin/.icaro/np05/tmp/servos.c    else if (servovalues[s] == timings[timevalue][t]){
00014A C??? FFE9      02222         MOVFF   r0x05, FSR0L
00014E C??? FFEA      02223         MOVFF   r0x06, FSR0H
000152 CFEF F???      02224         MOVFF   INDF0, r0x05
000156 50??           02225         MOVF    r0x04, W
000158 18??           02226         XORWF   r0x05, W
gpasm-0.14.3 #861 (Nov  5 2012) /home/valenti   6-16-2013  19:42:02         PAGE 43


LOC  OBJECT CODE     LINE SOURCE TEXT
  VALUE

00015A E0??           02227         BZ      _00317_DS_
00015C D???           02228         BRA     _00286_DS_
00015E                02229 _00317_DS_:
                      02230 ;       .line   160; /home/valentin/.icaro/np05/tmp/servos.c    numservos++;
00015E 2A??           02231         INCF    r0x02, F
000160 D???           02232         BRA     _00286_DS_
000162                02233 _00275_DS_:
                      02234 ;       .line   164; /home/valentin/.icaro/np05/tmp/servos.c    else if (s>12){
000162 0E0D           02235         MOVLW   0x0d
000164 5C??           02236         SUBWF   r0x03, W
000166 A0D8           02237         BTFSS   STATUS, 0
000168 D???           02238         BRA     _00272_DS_
                      02239 ;       .line   165; /home/valentin/.icaro/np05/tmp/servos.c    if (servomasks[s] & mascaratotal[MaskPort_A] & activatedservos[MaskPort_A]){
00016A 0E??           02240         MOVLW   LOW(_servomasks)
00016C 24??           02241         ADDWF   r0x03, W
00016E 6E??           02242         MOVWF   r0x04
000170 6A??           02243         CLRF    r0x05
000172 0E??           02244         MOVLW   HIGH(_servomasks)
000174 22??           02245         ADDWFC  r0x05, F
000176 6A??           02246         CLRF    r0x06
000178 0E??           02247         MOVLW   UPPER(_servomasks)
00017A 22??           02248         ADDWFC  r0x06, F
00017C C??? FFF6      02249         MOVFF   r0x04, TBLPTRL
000180 C??? FFF7      02250         MOVFF   r0x05, TBLPTRH
000184 C??? FFF8      02251         MOVFF   r0x06, TBLPTRU
000188 0009           02252         TBLRD*+ 
00018A CFF5 F???      02253         MOVFF   TABLAT, r0x04
00018E ????           02254         BANKSEL (_SortServoTimings_mascaratotal_1_1 + 2)
000190 51??           02255         MOVF    (_SortServoTimings_mascaratotal_1_1 + 2), W, B
000192 14??           02256         ANDWF   r0x04, W
000194 6E??           02257         MOVWF   r0x05
000196 ????           02258         BANKSEL (_activatedservos + 2)
000198 51??           02259         MOVF    (_activatedservos + 2), W, B
00019A 16??           02260         ANDWF   r0x05, F
00019C 50??           02261         MOVF    r0x05, W
00019E A4D8           02262         BTFSS   STATUS, 2
0001A0 D???           02263         BRA     _00286_DS_
                      02264 ;       .line   167; /home/valentin/.icaro/np05/tmp/servos.c    else if (servovalues[s] < timings[timevalue][t]){
0001A2 0E??           02265         MOVLW   LOW(_servovalues)
0001A4 24??           02266         ADDWF   r0x03, W
0001A6 6E??           02267         MOVWF   r0x05
0001A8 6A??           02268         CLRF    r0x06
0001AA 0E??           02269         MOVLW   HIGH(_servovalues)
0001AC 22??           02270         ADDWFC  r0x06, F
0001AE C??? FFE9      02271         MOVFF   r0x05, FSR0L
0001B2 C??? FFEA      02272         MOVFF   r0x06, FSR0H
0001B6 CFEF F???      02273         MOVFF   INDF0, r0x05
0001BA 0E??           02274         MOVLW   LOW(_timings + 54)
0001BC 24??           02275         ADDWF   r0x01, W
0001BE 6E??           02276         MOVWF   r0x06
0001C0 6A??           02277         CLRF    r0x07
0001C2 0E??           02278         MOVLW   HIGH(_timings + 54)
0001C4 22??           02279         ADDWFC  r0x07, F
gpasm-0.14.3 #861 (Nov  5 2012) /home/valenti   6-16-2013  19:42:02         PAGE 44


LOC  OBJECT CODE     LINE SOURCE TEXT
  VALUE

0001C6 C??? FFE9      02280         MOVFF   r0x06, FSR0L
0001CA C??? FFEA      02281         MOVFF   r0x07, FSR0H
0001CE CFEF F???      02282         MOVFF   INDF0, r0x08
0001D2 50??           02283         MOVF    r0x08, W
0001D4 5C??           02284         SUBWF   r0x05, W
0001D6 E2??           02285         BC      _00258_DS_
                      02286 ;       .line   168; /home/valentin/.icaro/np05/tmp/servos.c    timings[timevalue][t]=servovalues[s];
0001D8 C??? FFE9      02287         MOVFF   r0x06, FSR0L
0001DC C??? FFEA      02288         MOVFF   r0x07, FSR0H
0001E0 C??? FFEF      02289         MOVFF   r0x05, INDF0
                      02290 ;       .line   170; /home/valentin/.icaro/np05/tmp/servos.c    timings[MaskPort_C][t]=0x00;
0001E4 0E??           02291         MOVLW   LOW(_timings + 18)
0001E6 24??           02292         ADDWF   r0x01, W
0001E8 6E??           02293         MOVWF   r0x08
0001EA 6A??           02294         CLRF    r0x09
0001EC 0E??           02295         MOVLW   HIGH(_timings + 18)
0001EE 22??           02296         ADDWFC  r0x09, F
0001F0 C??? FFE9      02297         MOVFF   r0x08, FSR0L
0001F4 C??? FFEA      02298         MOVFF   r0x09, FSR0H
0001F8 6AEF           02299         CLRF    INDF0
                      02300 ;       .line   171; /home/valentin/.icaro/np05/tmp/servos.c    timings[MaskPort_A][t]=servomasks[s];
0001FA 0E??           02301         MOVLW   LOW(_timings + 36)
0001FC 24??           02302         ADDWF   r0x01, W
0001FE 6E??           02303         MOVWF   r0x08
000200 6A??           02304         CLRF    r0x09
000202 0E??           02305         MOVLW   HIGH(_timings + 36)
000204 22??           02306         ADDWFC  r0x09, F
000206 C??? FFE9      02307         MOVFF   r0x08, FSR0L
00020A C??? FFEA      02308         MOVFF   r0x09, FSR0H
00020E C??? FFEF      02309         MOVFF   r0x04, INDF0
                      02310 ;       .line   172; /home/valentin/.icaro/np05/tmp/servos.c    numservos=1;
000212 0E01           02311         MOVLW   0x01
000214 6E??           02312         MOVWF   r0x02
000216 D???           02313         BRA     _00286_DS_
000218                02314 _00258_DS_:
                      02315 ;       .line   174; /home/valentin/.icaro/np05/tmp/servos.c    else if (servovalues[s] == timings[timevalue][t]){
000218 C??? FFE9      02316         MOVFF   r0x06, FSR0L
00021C C??? FFEA      02317         MOVFF   r0x07, FSR0H
000220 CFEF F???      02318         MOVFF   INDF0, r0x06
000224 50??           02319         MOVF    r0x05, W
000226 18??           02320         XORWF   r0x06, W
000228 E0??           02321         BZ      _00322_DS_
00022A D???           02322         BRA     _00286_DS_
00022C                02323 _00322_DS_:
                      02324 ;       .line   175; /home/valentin/.icaro/np05/tmp/servos.c    timings[MaskPort_A][t] |= servomasks[s];
00022C 0E??           02325         MOVLW   LOW(_timings + 36)
00022E 24??           02326         ADDWF   r0x01, W
000230 6E??           02327         MOVWF   r0x05
000232 6A??           02328         CLRF    r0x06
000234 0E??           02329         MOVLW   HIGH(_timings + 36)
000236 22??           02330         ADDWFC  r0x06, F
000238 C??? FFE9      02331         MOVFF   r0x05, FSR0L
00023C C??? FFEA      02332         MOVFF   r0x06, FSR0H
gpasm-0.14.3 #861 (Nov  5 2012) /home/valenti   6-16-2013  19:42:02         PAGE 45


LOC  OBJECT CODE     LINE SOURCE TEXT
  VALUE

000240 CFEF F???      02333         MOVFF   INDF0, r0x07
000244 50??           02334         MOVF    r0x07, W
000246 12??           02335         IORWF   r0x04, F
000248 C??? FFE9      02336         MOVFF   r0x05, FSR0L
00024C C??? FFEA      02337         MOVFF   r0x06, FSR0H
000250 C??? FFEF      02338         MOVFF   r0x04, INDF0
                      02339 ;       .line   176; /home/valentin/.icaro/np05/tmp/servos.c    numservos++;
000254 2A??           02340         INCF    r0x02, F
000256 D???           02341         BRA     _00286_DS_
000258                02342 _00272_DS_:
                      02343 ;       .line   181; /home/valentin/.icaro/np05/tmp/servos.c    if (servomasks[s] & mascaratotal[MaskPort_C] & activatedservos[MaskPort_C]){ 
000258 0E??           02344         MOVLW   LOW(_servomasks)
00025A 24??           02345         ADDWF   r0x03, W
00025C 6E??           02346         MOVWF   r0x04
00025E 6A??           02347         CLRF    r0x05
000260 0E??           02348         MOVLW   HIGH(_servomasks)
000262 22??           02349         ADDWFC  r0x05, F
000264 6A??           02350         CLRF    r0x06
000266 0E??           02351         MOVLW   UPPER(_servomasks)
000268 22??           02352         ADDWFC  r0x06, F
00026A C??? FFF6      02353         MOVFF   r0x04, TBLPTRL
00026E C??? FFF7      02354         MOVFF   r0x05, TBLPTRH
000272 C??? FFF8      02355         MOVFF   r0x06, TBLPTRU
000276 0009           02356         TBLRD*+ 
000278 CFF5 F???      02357         MOVFF   TABLAT, r0x04
00027C ????           02358         BANKSEL (_SortServoTimings_mascaratotal_1_1 + 1)
00027E 51??           02359         MOVF    (_SortServoTimings_mascaratotal_1_1 + 1), W, B
000280 14??           02360         ANDWF   r0x04, W
000282 6E??           02361         MOVWF   r0x05
000284 ????           02362         BANKSEL (_activatedservos + 1)
000286 51??           02363         MOVF    (_activatedservos + 1), W, B
000288 16??           02364         ANDWF   r0x05, F
00028A 50??           02365         MOVF    r0x05, W
00028C A4D8           02366         BTFSS   STATUS, 2
00028E D???           02367         BRA     _00286_DS_
                      02368 ;       .line   183; /home/valentin/.icaro/np05/tmp/servos.c    else if (servovalues[s] < timings[timevalue][t]){
000290 0E??           02369         MOVLW   LOW(_servovalues)
000292 24??           02370         ADDWF   r0x03, W
000294 6E??           02371         MOVWF   r0x05
000296 6A??           02372         CLRF    r0x06
000298 0E??           02373         MOVLW   HIGH(_servovalues)
00029A 22??           02374         ADDWFC  r0x06, F
00029C C??? FFE9      02375         MOVFF   r0x05, FSR0L
0002A0 C??? FFEA      02376         MOVFF   r0x06, FSR0H
0002A4 CFEF F???      02377         MOVFF   INDF0, r0x05
0002A8 0E??           02378         MOVLW   LOW(_timings + 54)
0002AA 24??           02379         ADDWF   r0x01, W
0002AC 6E??           02380         MOVWF   r0x06
0002AE 6A??           02381         CLRF    r0x07
0002B0 0E??           02382         MOVLW   HIGH(_timings + 54)
0002B2 22??           02383         ADDWFC  r0x07, F
0002B4 C??? FFE9      02384         MOVFF   r0x06, FSR0L
0002B8 C??? FFEA      02385         MOVFF   r0x07, FSR0H
gpasm-0.14.3 #861 (Nov  5 2012) /home/valenti   6-16-2013  19:42:02         PAGE 46


LOC  OBJECT CODE     LINE SOURCE TEXT
  VALUE

0002BC CFEF F???      02386         MOVFF   INDF0, r0x08
0002C0 50??           02387         MOVF    r0x08, W
0002C2 5C??           02388         SUBWF   r0x05, W
0002C4 E2??           02389         BC      _00266_DS_
                      02390 ;       .line   184; /home/valentin/.icaro/np05/tmp/servos.c    timings[timevalue][t]=servovalues[s];
0002C6 C??? FFE9      02391         MOVFF   r0x06, FSR0L
0002CA C??? FFEA      02392         MOVFF   r0x07, FSR0H
0002CE C??? FFEF      02393         MOVFF   r0x05, INDF0
                      02394 ;       .line   186; /home/valentin/.icaro/np05/tmp/servos.c    timings[MaskPort_C][t]=servomasks[s];
0002D2 0E??           02395         MOVLW   LOW(_timings + 18)
0002D4 24??           02396         ADDWF   r0x01, W
0002D6 6E??           02397         MOVWF   r0x08
0002D8 6A??           02398         CLRF    r0x09
0002DA 0E??           02399         MOVLW   HIGH(_timings + 18)
0002DC 22??           02400         ADDWFC  r0x09, F
0002DE C??? FFE9      02401         MOVFF   r0x08, FSR0L
0002E2 C??? FFEA      02402         MOVFF   r0x09, FSR0H
0002E6 C??? FFEF      02403         MOVFF   r0x04, INDF0
                      02404 ;       .line   187; /home/valentin/.icaro/np05/tmp/servos.c    timings[MaskPort_A][t]=0x00;
0002EA 0E??           02405         MOVLW   LOW(_timings + 36)
0002EC 24??           02406         ADDWF   r0x01, W
0002EE 6E??           02407         MOVWF   r0x08
0002F0 6A??           02408         CLRF    r0x09
0002F2 0E??           02409         MOVLW   HIGH(_timings + 36)
0002F4 22??           02410         ADDWFC  r0x09, F
0002F6 C??? FFE9      02411         MOVFF   r0x08, FSR0L
0002FA C??? FFEA      02412         MOVFF   r0x09, FSR0H
0002FE 6AEF           02413         CLRF    INDF0
                      02414 ;       .line   188; /home/valentin/.icaro/np05/tmp/servos.c    numservos=1;
000300 0E01           02415         MOVLW   0x01
000302 6E??           02416         MOVWF   r0x02
000304 D???           02417         BRA     _00286_DS_
000306                02418 _00266_DS_:
                      02419 ;       .line   190; /home/valentin/.icaro/np05/tmp/servos.c    else if (servovalues[s] == timings [timevalue][t]){
000306 C??? FFE9      02420         MOVFF   r0x06, FSR0L
00030A C??? FFEA      02421         MOVFF   r0x07, FSR0H
00030E CFEF F???      02422         MOVFF   INDF0, r0x06
000312 50??           02423         MOVF    r0x05, W
000314 18??           02424         XORWF   r0x06, W
000316 E1??           02425         BNZ     _00286_DS_
                      02426 ;       .line   191; /home/valentin/.icaro/np05/tmp/servos.c    timings[MaskPort_C][t] |= servomasks[s];
000318 0E??           02427         MOVLW   LOW(_timings + 18)
00031A 24??           02428         ADDWF   r0x01, W
00031C 6E??           02429         MOVWF   r0x05
00031E 6A??           02430         CLRF    r0x06
000320 0E??           02431         MOVLW   HIGH(_timings + 18)
000322 22??           02432         ADDWFC  r0x06, F
000324 C??? FFE9      02433         MOVFF   r0x05, FSR0L
000328 C??? FFEA      02434         MOVFF   r0x06, FSR0H
00032C CFEF F???      02435         MOVFF   INDF0, r0x07
000330 50??           02436         MOVF    r0x07, W
000332 12??           02437         IORWF   r0x04, F
000334 C??? FFE9      02438         MOVFF   r0x05, FSR0L
gpasm-0.14.3 #861 (Nov  5 2012) /home/valenti   6-16-2013  19:42:02         PAGE 47


LOC  OBJECT CODE     LINE SOURCE TEXT
  VALUE

000338 C??? FFEA      02439         MOVFF   r0x06, FSR0H
00033C C??? FFEF      02440         MOVFF   r0x04, INDF0
                      02441 ;       .line   192; /home/valentin/.icaro/np05/tmp/servos.c    numservos++;
000340 2A??           02442         INCF    r0x02, F
000342                02443 _00286_DS_:
                      02444 ;       .line   146; /home/valentin/.icaro/np05/tmp/servos.c    for(s=0;s<18;s++) { 
000342 2A??           02445         INCF    r0x03, F
000344 D???           02446         BRA     _00284_DS_
000346                02447 _00287_DS_:
                      02448 ;       .line   198; /home/valentin/.icaro/np05/tmp/servos.c    mascaratotal[MaskPort_C] |= timings[MaskPort_C][t];
000346 0E??           02449         MOVLW   LOW(_timings + 18)
000348 24??           02450         ADDWF   r0x01, W
00034A 6E??           02451         MOVWF   r0x03
00034C 6A??           02452         CLRF    r0x04
00034E 0E??           02453         MOVLW   HIGH(_timings + 18)
000350 22??           02454         ADDWFC  r0x04, F
000352 C??? FFE9      02455         MOVFF   r0x03, FSR0L
000356 C??? FFEA      02456         MOVFF   r0x04, FSR0H
00035A CFEF F???      02457         MOVFF   INDF0, r0x03
00035E ????           02458         BANKSEL (_SortServoTimings_mascaratotal_1_1 + 1)
000360 51??           02459         MOVF    (_SortServoTimings_mascaratotal_1_1 + 1), W, B
000362 12??           02460         IORWF   r0x03, F
000364 50??           02461         MOVF    r0x03, W
                      02462 ; removed redundant BANKSEL
000366 6F??           02463         MOVWF   (_SortServoTimings_mascaratotal_1_1 + 1), B
                      02464 ;       .line   199; /home/valentin/.icaro/np05/tmp/servos.c    mascaratotal[MaskPort_A] |= timings[MaskPort_A][t];
000368 0E??           02465         MOVLW   LOW(_timings + 36)
00036A 24??           02466         ADDWF   r0x01, W
00036C 6E??           02467         MOVWF   r0x03
00036E 6A??           02468         CLRF    r0x04
000370 0E??           02469         MOVLW   HIGH(_timings + 36)
000372 22??           02470         ADDWFC  r0x04, F
000374 C??? FFE9      02471         MOVFF   r0x03, FSR0L
000378 C??? FFEA      02472         MOVFF   r0x04, FSR0H
00037C CFEF F???      02473         MOVFF   INDF0, r0x03
                      02474 ; removed redundant BANKSEL
000380 51??           02475         MOVF    (_SortServoTimings_mascaratotal_1_1 + 2), W, B
000382 12??           02476         IORWF   r0x03, F
000384 50??           02477         MOVF    r0x03, W
                      02478 ; removed redundant BANKSEL
000386 6F??           02479         MOVWF   (_SortServoTimings_mascaratotal_1_1 + 2), B
                      02480 ;       .line   200; /home/valentin/.icaro/np05/tmp/servos.c    totalservos += numservos;
000388 50??           02481         MOVF    r0x02, W
00038A 26??           02482         ADDWF   r0x00, F
                      02483 ;       .line   201; /home/valentin/.icaro/np05/tmp/servos.c    t++;
00038C 2A??           02484         INCF    r0x01, F
00038E D???           02485         BRA     _00277_DS_
000390                02486 _00279_DS_:
000390 ????           02487         BANKSEL _needreordering
                      02488 ;       .line   204; /home/valentin/.icaro/np05/tmp/servos.c    needreordering=0;  // This indicates that servo timings is ordered.     
000392 6B??           02489         CLRF    _needreordering, B
000394 CFE4 F???      02490         MOVFF   PREINC1, r0x09
000398 CFE4 F???      02491         MOVFF   PREINC1, r0x08
gpasm-0.14.3 #861 (Nov  5 2012) /home/valenti   6-16-2013  19:42:02         PAGE 48


LOC  OBJECT CODE     LINE SOURCE TEXT
  VALUE

00039C CFE4 F???      02492         MOVFF   PREINC1, r0x07
0003A0 CFE4 F???      02493         MOVFF   PREINC1, r0x06
0003A4 CFE4 F???      02494         MOVFF   PREINC1, r0x05
0003A8 CFE4 F???      02495         MOVFF   PREINC1, r0x04
0003AC CFE4 F???      02496         MOVFF   PREINC1, r0x03
0003B0 CFE4 F???      02497         MOVFF   PREINC1, r0x02
0003B4 CFE4 F???      02498         MOVFF   PREINC1, r0x01
0003B8 CFE4 F???      02499         MOVFF   PREINC1, r0x00
0003BC 0012           02500         RETURN  
                      02501 
                      02502 ; ; Starting pCode block
                      02503 S_main__ServosPulseUp   code
000000                02504 _ServosPulseUp:
                      02505 ;       .line   120; /home/valentin/.icaro/np05/tmp/servos.c    PORTC = activatedservos[MaskPort_C] & 0xFF;
000000 C??? F???      02506         MOVFF   (_activatedservos + 1), _PORTC
                      02507 ;       .line   121; /home/valentin/.icaro/np05/tmp/servos.c    PORTA = activatedservos[MaskPort_A] & 0xFF;     
000004 C??? F???      02508         MOVFF   (_activatedservos + 2), _PORTA
000008 0012           02509         RETURN  
                      02510 
                      02511 ; ; Starting pCode block
                      02512 S_main__ServosPulseDown code
000000                02513 _ServosPulseDown:
                      02514 ;       .line   92; /home/valentin/.icaro/np05/tmp/servos.c     static void ServosPulseDown()
000000 CFD9 FFE5      02515         MOVFF   FSR2L, POSTDEC1
000004 CFE1 FFD9      02516         MOVFF   FSR1L, FSR2L
000008 C??? FFE5      02517         MOVFF   r0x00, POSTDEC1
00000C C??? FFE5      02518         MOVFF   r0x01, POSTDEC1
000010 ????           02519         BANKSEL _timingindex
                      02520 ;       .line   94; /home/valentin/.icaro/np05/tmp/servos.c     timingindex = 0;
000012 6B??           02521         CLRF    _timingindex, B
000014 ????           02522         BANKSEL _timedivision
                      02523 ;       .line   96; /home/valentin/.icaro/np05/tmp/servos.c     for(timedivision=0;timedivision < 251;timedivision++){
000016 6B??           02524         CLRF    _timedivision, B
000018                02525 _00226_DS_:
000018 0EFB           02526         MOVLW   0xfb
00001A ????           02527         BANKSEL _timedivision
00001C 5D??           02528         SUBWF   _timedivision, W, B
00001E B0D8           02529         BTFSC   STATUS, 0
000020 D???           02530         BRA     _00230_DS_
                      02531 ;       .line   97; /home/valentin/.icaro/np05/tmp/servos.c     if (timings[timevalue][timingindex] == timedivision){
000022 C??? F???      02532         MOVFF   _timingindex, r0x00
000026 6A??           02533         CLRF    r0x01
000028 0E??           02534         MOVLW   LOW(_timings + 54)
00002A 26??           02535         ADDWF   r0x00, F
00002C 0E??           02536         MOVLW   HIGH(_timings + 54)
00002E 22??           02537         ADDWFC  r0x01, F
000030 C??? FFE9      02538         MOVFF   r0x00, FSR0L
000034 C??? FFEA      02539         MOVFF   r0x01, FSR0H
000038 CFEF F???      02540         MOVFF   INDF0, r0x00
00003C 50??           02541         MOVF    r0x00, W
                      02542 ; removed redundant BANKSEL
00003E 19??           02543         XORWF   _timedivision, W, B
000040 E1??           02544         BNZ     _00225_DS_
gpasm-0.14.3 #861 (Nov  5 2012) /home/valenti   6-16-2013  19:42:02         PAGE 49


LOC  OBJECT CODE     LINE SOURCE TEXT
  VALUE

                      02545 ;       .line   99; /home/valentin/.icaro/np05/tmp/servos.c     PORTC = PORTC ^ timings[MaskPort_C][timingindex];
000042 C??? F???      02546         MOVFF   _timingindex, r0x00
000046 6A??           02547         CLRF    r0x01
000048 0E??           02548         MOVLW   LOW(_timings + 18)
00004A 26??           02549         ADDWF   r0x00, F
00004C 0E??           02550         MOVLW   HIGH(_timings + 18)
00004E 22??           02551         ADDWFC  r0x01, F
000050 C??? FFE9      02552         MOVFF   r0x00, FSR0L
000054 C??? FFEA      02553         MOVFF   r0x01, FSR0H
000058 CFEF F???      02554         MOVFF   INDF0, r0x00
00005C 50??           02555         MOVF    r0x00, W
00005E 1A??           02556         XORWF   _PORTC, F
                      02557 ;       .line   100; /home/valentin/.icaro/np05/tmp/servos.c    PORTA = PORTA ^ timings[MaskPort_A][timingindex];
000060 C??? F???      02558         MOVFF   _timingindex, r0x00
000064 6A??           02559         CLRF    r0x01
000066 0E??           02560         MOVLW   LOW(_timings + 36)
000068 26??           02561         ADDWF   r0x00, F
00006A 0E??           02562         MOVLW   HIGH(_timings + 36)
00006C 22??           02563         ADDWFC  r0x01, F
00006E C??? FFE9      02564         MOVFF   r0x00, FSR0L
000072 C??? FFEA      02565         MOVFF   r0x01, FSR0H
000076 CFEF F???      02566         MOVFF   INDF0, r0x00
00007A 50??           02567         MOVF    r0x00, W
00007C 1A??           02568         XORWF   _PORTA, F
00007E ????           02569         BANKSEL _timingindex
                      02570 ;       .line   101; /home/valentin/.icaro/np05/tmp/servos.c    timingindex++;
000080 2B??           02571         INCF    _timingindex, F, B
000082                02572 _00225_DS_:
000082 0E0C           02573         movlw 12
000084 6E??           02574         movwf _loopvar
000086                02575 bucle:
000086 0000           02576         NOP
000088 2E??           02577         decfsz _loopvar,1
00008A EF?? F???      02578         goto bucle
                      02579         
00008E ????           02580         BANKSEL _timedivision
                      02581 ;       .line   96; /home/valentin/.icaro/np05/tmp/servos.c     for(timedivision=0;timedivision < 251;timedivision++){
000090 2B??           02582         INCF    _timedivision, F, B
000092 D???           02583         BRA     _00226_DS_
000094                02584 _00230_DS_:
000094 CFE4 F???      02585         MOVFF   PREINC1, r0x01
000098 CFE4 F???      02586         MOVFF   PREINC1, r0x00
00009C CFE4 FFD9      02587         MOVFF   PREINC1, FSR2L
0000A0 0012           02588         RETURN  
                      02589 
                      02590 ; ; Starting pCode block
                      02591 S_main__servos_init     code
000000                02592 _servos_init:
                      02593 ;       .line   71; /home/valentin/.icaro/np05/tmp/servos.c     void servos_init()
000000 C??? FFE5      02594         MOVFF   r0x00, POSTDEC1
000004 C??? FFE5      02595         MOVFF   r0x01, POSTDEC1
000008 C??? FFE5      02596         MOVFF   r0x02, POSTDEC1
                      02597 ;       .line   75; /home/valentin/.icaro/np05/tmp/servos.c     for(a=0;a<18;a++) servovalues[a]=255;
gpasm-0.14.3 #861 (Nov  5 2012) /home/valenti   6-16-2013  19:42:02         PAGE 50


LOC  OBJECT CODE     LINE SOURCE TEXT
  VALUE

00000C 6A??           02598         CLRF    r0x00
00000E                02599 _00210_DS_:
00000E 0E12           02600         MOVLW   0x12
000010 5C??           02601         SUBWF   r0x00, W
000012 E2??           02602         BC      _00213_DS_
000014 0E??           02603         MOVLW   LOW(_servovalues)
000016 24??           02604         ADDWF   r0x00, W
000018 6E??           02605         MOVWF   r0x01
00001A 6A??           02606         CLRF    r0x02
00001C 0E??           02607         MOVLW   HIGH(_servovalues)
00001E 22??           02608         ADDWFC  r0x02, F
000020 C??? FFE9      02609         MOVFF   r0x01, FSR0L
000024 C??? FFEA      02610         MOVFF   r0x02, FSR0H
000028 68EF           02611         SETF    INDF0
00002A 2A??           02612         INCF    r0x00, F
00002C D???           02613         BRA     _00210_DS_
00002E                02614 _00213_DS_:
                      02615 ;       .line   78; /home/valentin/.icaro/np05/tmp/servos.c     TMR1H=0xFF;
00002E 68??           02616         SETF    _TMR1H
                      02617 ;       .line   79; /home/valentin/.icaro/np05/tmp/servos.c     TMR1L=0x00;
000030 6A??           02618         CLRF    _TMR1L
                      02619 ;       .line   81; /home/valentin/.icaro/np05/tmp/servos.c     T1CON=0x01;
000032 0E01           02620         MOVLW   0x01
000034 6E??           02621         MOVWF   _T1CON
                      02622 ;       .line   83; /home/valentin/.icaro/np05/tmp/servos.c     PIE1bits.TMR1IE=1;
000036 80??           02623         BSF     _PIE1bits, 0
                      02624 ;       .line   85; /home/valentin/.icaro/np05/tmp/servos.c     INTCONbits.PEIE=1;
000038 8C??           02625         BSF     _INTCONbits, 6
                      02626 ;       .line   87; /home/valentin/.icaro/np05/tmp/servos.c     INTCONbits.GIE=1;
00003A 8E??           02627         BSF     _INTCONbits, 7
00003C CFE4 F???      02628         MOVFF   PREINC1, r0x02
000040 CFE4 F???      02629         MOVFF   PREINC1, r0x01
000044 CFE4 F???      02630         MOVFF   PREINC1, r0x00
000048 0012           02631         RETURN  
                      02632 
                      02633 ; ; Starting pCode block
                      02634 S_main__pinmode code
000000                02635 _pinmode:
                      02636 ;       .line   69; /home/valentin/.icaro/np05/tmp/digitalw.c   void pinmode(int input, int state)
000000 CFD9 FFE5      02637         MOVFF   FSR2L, POSTDEC1
000004 CFE1 FFD9      02638         MOVFF   FSR1L, FSR2L
000008 C??? FFE5      02639         MOVFF   r0x00, POSTDEC1
00000C C??? FFE5      02640         MOVFF   r0x01, POSTDEC1
000010 C??? FFE5      02641         MOVFF   r0x02, POSTDEC1
000014 C??? FFE5      02642         MOVFF   r0x03, POSTDEC1
000018 C??? FFE5      02643         MOVFF   r0x04, POSTDEC1
00001C C??? FFE5      02644         MOVFF   r0x05, POSTDEC1
000020 C??? FFE5      02645         MOVFF   r0x06, POSTDEC1
000024 0E02           02646         MOVLW   0x02
000026 CFDB F???      02647         MOVFF   PLUSW2, r0x00
00002A 0E03           02648         MOVLW   0x03
00002C CFDB F???      02649         MOVFF   PLUSW2, r0x01
000030 0E04           02650         MOVLW   0x04
gpasm-0.14.3 #861 (Nov  5 2012) /home/valenti   6-16-2013  19:42:02         PAGE 51


LOC  OBJECT CODE     LINE SOURCE TEXT
  VALUE

000032 CFDB F???      02651         MOVFF   PLUSW2, r0x02
000036 0E05           02652         MOVLW   0x05
000038 CFDB F???      02653         MOVFF   PLUSW2, r0x03
                      02654 ;       .line   71; /home/valentin/.icaro/np05/tmp/digitalw.c   switch (port[input])
00003C 0E??           02655         MOVLW   LOW(_port)
00003E 24??           02656         ADDWF   r0x00, W
000040 6E??           02657         MOVWF   r0x04
000042 0E??           02658         MOVLW   HIGH(_port)
000044 20??           02659         ADDWFC  r0x01, W
000046 6E??           02660         MOVWF   r0x05
000048 6A??           02661         CLRF    r0x06
00004A BE??           02662         BTFSC   r0x01, 7
00004C 68??           02663         SETF    r0x06
00004E 0E??           02664         MOVLW   UPPER(_port)
000050 22??           02665         ADDWFC  r0x06, F
000052 C??? FFF6      02666         MOVFF   r0x04, TBLPTRL
000056 C??? FFF7      02667         MOVFF   r0x05, TBLPTRH
00005A C??? FFF8      02668         MOVFF   r0x06, TBLPTRU
00005E 0009           02669         TBLRD*+ 
000060 CFF5 F???      02670         MOVFF   TABLAT, r0x04
000064 0E05           02671         MOVLW   0x05
000066 5C??           02672         SUBWF   r0x04, W
000068 B0D8           02673         BTFSC   STATUS, 0
00006A D???           02674         BRA     _00196_DS_
00006C C??? FFE5      02675         MOVFF   r0x07, POSTDEC1
000070 C??? FFE5      02676         MOVFF   r0x08, POSTDEC1
000074 6A??           02677         CLRF    r0x08
000076 34??           02678         RLCF    r0x04, W
000078 36??           02679         RLCF    r0x08, F
00007A 34E8           02680         RLCF    WREG, W
00007C 36??           02681         RLCF    r0x08, F
00007E 0BFC           02682         ANDLW   0xfc
000080 6E??           02683         MOVWF   r0x07
000082 0E??           02684         MOVLW   UPPER(_00205_DS_)
000084 6EFB           02685         MOVWF   PCLATU
000086 0E??           02686         MOVLW   HIGH(_00205_DS_)
000088 6EFA           02687         MOVWF   PCLATH
00008A 0E??           02688         MOVLW   LOW(_00205_DS_)
00008C 26??           02689         ADDWF   r0x07, F
00008E 50??           02690         MOVF    r0x08, W
000090 22FA           02691         ADDWFC  PCLATH, F
000092 B0D8           02692         BTFSC   STATUS, 0
000094 2AFB           02693         INCF    PCLATU, F
000096 50??           02694         MOVF    r0x07, W
000098 CFE4 F???      02695         MOVFF   PREINC1, r0x08
00009C CFE4 F???      02696         MOVFF   PREINC1, r0x07
0000A0 6EF9           02697         MOVWF   PCL
0000A2                02698 _00205_DS_:
0000A2 EF?? F???      02699         GOTO    _00175_DS_
0000A6 EF?? F???      02700         GOTO    _00179_DS_
0000AA EF?? F???      02701         GOTO    _00183_DS_
0000AE EF?? F???      02702         GOTO    _00187_DS_
0000B2 EF?? F???      02703         GOTO    _00191_DS_
gpasm-0.14.3 #861 (Nov  5 2012) /home/valenti   6-16-2013  19:42:02         PAGE 52


LOC  OBJECT CODE     LINE SOURCE TEXT
  VALUE

0000B6                02704 _00175_DS_:
                      02705 ;       .line   73; /home/valentin/.icaro/np05/tmp/digitalw.c   case 0: if (state) TRISB=TRISB | mask[input];
0000B6 50??           02706         MOVF    r0x02, W
0000B8 10??           02707         IORWF   r0x03, W
0000BA E0??           02708         BZ      _00177_DS_
0000BC 0E??           02709         MOVLW   LOW(_mask)
0000BE 24??           02710         ADDWF   r0x00, W
0000C0 6E??           02711         MOVWF   r0x04
0000C2 0E??           02712         MOVLW   HIGH(_mask)
0000C4 20??           02713         ADDWFC  r0x01, W
0000C6 6E??           02714         MOVWF   r0x05
0000C8 6A??           02715         CLRF    r0x06
0000CA BE??           02716         BTFSC   r0x01, 7
0000CC 68??           02717         SETF    r0x06
0000CE 0E??           02718         MOVLW   UPPER(_mask)
0000D0 22??           02719         ADDWFC  r0x06, F
0000D2 C??? FFF6      02720         MOVFF   r0x04, TBLPTRL
0000D6 C??? FFF7      02721         MOVFF   r0x05, TBLPTRH
0000DA C??? FFF8      02722         MOVFF   r0x06, TBLPTRU
0000DE 0009           02723         TBLRD*+ 
0000E0 CFF5 F???      02724         MOVFF   TABLAT, r0x04
0000E4 50??           02725         MOVF    r0x04, W
0000E6 12??           02726         IORWF   _TRISB, F
0000E8 D???           02727         BRA     _00196_DS_
0000EA                02728 _00177_DS_:
                      02729 ;       .line   74; /home/valentin/.icaro/np05/tmp/digitalw.c   else TRISB=TRISB & (255-mask[input]);
0000EA 0E??           02730         MOVLW   LOW(_mask)
0000EC 24??           02731         ADDWF   r0x00, W
0000EE 6E??           02732         MOVWF   r0x04
0000F0 0E??           02733         MOVLW   HIGH(_mask)
0000F2 20??           02734         ADDWFC  r0x01, W
0000F4 6E??           02735         MOVWF   r0x05
0000F6 6A??           02736         CLRF    r0x06
0000F8 BE??           02737         BTFSC   r0x01, 7
0000FA 68??           02738         SETF    r0x06
0000FC 0E??           02739         MOVLW   UPPER(_mask)
0000FE 22??           02740         ADDWFC  r0x06, F
000100 C??? FFF6      02741         MOVFF   r0x04, TBLPTRL
000104 C??? FFF7      02742         MOVFF   r0x05, TBLPTRH
000108 C??? FFF8      02743         MOVFF   r0x06, TBLPTRU
00010C 0009           02744         TBLRD*+ 
00010E CFF5 F???      02745         MOVFF   TABLAT, r0x04
000112 50??           02746         MOVF    r0x04, W
000114 08FF           02747         SUBLW   0xff
                      02748 ; #     MOVWF   r0x04
                      02749 ; #     MOVF    r0x04, W
000116 16??           02750         ANDWF   _TRISB, F
                      02751 ;       .line   75; /home/valentin/.icaro/np05/tmp/digitalw.c   break;
000118 D???           02752         BRA     _00196_DS_
00011A                02753 _00179_DS_:
                      02754 ;       .line   76; /home/valentin/.icaro/np05/tmp/digitalw.c   case 1: if (state) TRISC=TRISC | mask[input];
00011A 50??           02755         MOVF    r0x02, W
00011C 10??           02756         IORWF   r0x03, W
gpasm-0.14.3 #861 (Nov  5 2012) /home/valenti   6-16-2013  19:42:02         PAGE 53


LOC  OBJECT CODE     LINE SOURCE TEXT
  VALUE

00011E E0??           02757         BZ      _00181_DS_
000120 0E??           02758         MOVLW   LOW(_mask)
000122 24??           02759         ADDWF   r0x00, W
000124 6E??           02760         MOVWF   r0x04
000126 0E??           02761         MOVLW   HIGH(_mask)
000128 20??           02762         ADDWFC  r0x01, W
00012A 6E??           02763         MOVWF   r0x05
00012C 6A??           02764         CLRF    r0x06
00012E BE??           02765         BTFSC   r0x01, 7
000130 68??           02766         SETF    r0x06
000132 0E??           02767         MOVLW   UPPER(_mask)
000134 22??           02768         ADDWFC  r0x06, F
000136 C??? FFF6      02769         MOVFF   r0x04, TBLPTRL
00013A C??? FFF7      02770         MOVFF   r0x05, TBLPTRH
00013E C??? FFF8      02771         MOVFF   r0x06, TBLPTRU
000142 0009           02772         TBLRD*+ 
000144 CFF5 F???      02773         MOVFF   TABLAT, r0x04
000148 50??           02774         MOVF    r0x04, W
00014A 12??           02775         IORWF   _TRISC, F
00014C D???           02776         BRA     _00196_DS_
00014E                02777 _00181_DS_:
                      02778 ;       .line   77; /home/valentin/.icaro/np05/tmp/digitalw.c   else TRISC=TRISC & (255-mask[input]);
00014E 0E??           02779         MOVLW   LOW(_mask)
000150 24??           02780         ADDWF   r0x00, W
000152 6E??           02781         MOVWF   r0x04
000154 0E??           02782         MOVLW   HIGH(_mask)
000156 20??           02783         ADDWFC  r0x01, W
000158 6E??           02784         MOVWF   r0x05
00015A 6A??           02785         CLRF    r0x06
00015C BE??           02786         BTFSC   r0x01, 7
00015E 68??           02787         SETF    r0x06
000160 0E??           02788         MOVLW   UPPER(_mask)
000162 22??           02789         ADDWFC  r0x06, F
000164 C??? FFF6      02790         MOVFF   r0x04, TBLPTRL
000168 C??? FFF7      02791         MOVFF   r0x05, TBLPTRH
00016C C??? FFF8      02792         MOVFF   r0x06, TBLPTRU
000170 0009           02793         TBLRD*+ 
000172 CFF5 F???      02794         MOVFF   TABLAT, r0x04
000176 50??           02795         MOVF    r0x04, W
000178 08FF           02796         SUBLW   0xff
                      02797 ; #     MOVWF   r0x04
                      02798 ; #     MOVF    r0x04, W
00017A 16??           02799         ANDWF   _TRISC, F
                      02800 ;       .line   78; /home/valentin/.icaro/np05/tmp/digitalw.c   break;
00017C D???           02801         BRA     _00196_DS_
00017E                02802 _00183_DS_:
                      02803 ;       .line   79; /home/valentin/.icaro/np05/tmp/digitalw.c   case 2: if (state) TRISA=TRISA | mask[input];
00017E 50??           02804         MOVF    r0x02, W
000180 10??           02805         IORWF   r0x03, W
000182 E0??           02806         BZ      _00185_DS_
000184 0E??           02807         MOVLW   LOW(_mask)
000186 24??           02808         ADDWF   r0x00, W
000188 6E??           02809         MOVWF   r0x04
gpasm-0.14.3 #861 (Nov  5 2012) /home/valenti   6-16-2013  19:42:02         PAGE 54


LOC  OBJECT CODE     LINE SOURCE TEXT
  VALUE

00018A 0E??           02810         MOVLW   HIGH(_mask)
00018C 20??           02811         ADDWFC  r0x01, W
00018E 6E??           02812         MOVWF   r0x05
000190 6A??           02813         CLRF    r0x06
000192 BE??           02814         BTFSC   r0x01, 7
000194 68??           02815         SETF    r0x06
000196 0E??           02816         MOVLW   UPPER(_mask)
000198 22??           02817         ADDWFC  r0x06, F
00019A C??? FFF6      02818         MOVFF   r0x04, TBLPTRL
00019E C??? FFF7      02819         MOVFF   r0x05, TBLPTRH
0001A2 C??? FFF8      02820         MOVFF   r0x06, TBLPTRU
0001A6 0009           02821         TBLRD*+ 
0001A8 CFF5 F???      02822         MOVFF   TABLAT, r0x04
0001AC 50??           02823         MOVF    r0x04, W
0001AE 12??           02824         IORWF   _TRISA, F
0001B0 D???           02825         BRA     _00196_DS_
0001B2                02826 _00185_DS_:
                      02827 ;       .line   80; /home/valentin/.icaro/np05/tmp/digitalw.c   else TRISA=TRISA & (255-mask[input]);
0001B2 0E??           02828         MOVLW   LOW(_mask)
0001B4 24??           02829         ADDWF   r0x00, W
0001B6 6E??           02830         MOVWF   r0x04
0001B8 0E??           02831         MOVLW   HIGH(_mask)
0001BA 20??           02832         ADDWFC  r0x01, W
0001BC 6E??           02833         MOVWF   r0x05
0001BE 6A??           02834         CLRF    r0x06
0001C0 BE??           02835         BTFSC   r0x01, 7
0001C2 68??           02836         SETF    r0x06
0001C4 0E??           02837         MOVLW   UPPER(_mask)
0001C6 22??           02838         ADDWFC  r0x06, F
0001C8 C??? FFF6      02839         MOVFF   r0x04, TBLPTRL
0001CC C??? FFF7      02840         MOVFF   r0x05, TBLPTRH
0001D0 C??? FFF8      02841         MOVFF   r0x06, TBLPTRU
0001D4 0009           02842         TBLRD*+ 
0001D6 CFF5 F???      02843         MOVFF   TABLAT, r0x04
0001DA 50??           02844         MOVF    r0x04, W
0001DC 08FF           02845         SUBLW   0xff
                      02846 ; #     MOVWF   r0x04
                      02847 ; #     MOVF    r0x04, W
0001DE 16??           02848         ANDWF   _TRISA, F
                      02849 ;       .line   81; /home/valentin/.icaro/np05/tmp/digitalw.c   break;
0001E0 D???           02850         BRA     _00196_DS_
0001E2                02851 _00187_DS_:
                      02852 ;       .line   83; /home/valentin/.icaro/np05/tmp/digitalw.c   case 3: if (state) TRISD=TRISD | mask[input];
0001E2 50??           02853         MOVF    r0x02, W
0001E4 10??           02854         IORWF   r0x03, W
0001E6 E0??           02855         BZ      _00189_DS_
0001E8 0E??           02856         MOVLW   LOW(_mask)
0001EA 24??           02857         ADDWF   r0x00, W
0001EC 6E??           02858         MOVWF   r0x04
0001EE 0E??           02859         MOVLW   HIGH(_mask)
0001F0 20??           02860         ADDWFC  r0x01, W
0001F2 6E??           02861         MOVWF   r0x05
0001F4 6A??           02862         CLRF    r0x06
gpasm-0.14.3 #861 (Nov  5 2012) /home/valenti   6-16-2013  19:42:02         PAGE 55


LOC  OBJECT CODE     LINE SOURCE TEXT
  VALUE

0001F6 BE??           02863         BTFSC   r0x01, 7
0001F8 68??           02864         SETF    r0x06
0001FA 0E??           02865         MOVLW   UPPER(_mask)
0001FC 22??           02866         ADDWFC  r0x06, F
0001FE C??? FFF6      02867         MOVFF   r0x04, TBLPTRL
000202 C??? FFF7      02868         MOVFF   r0x05, TBLPTRH
000206 C??? FFF8      02869         MOVFF   r0x06, TBLPTRU
00020A 0009           02870         TBLRD*+ 
00020C CFF5 F???      02871         MOVFF   TABLAT, r0x04
000210 50??           02872         MOVF    r0x04, W
000212 12??           02873         IORWF   _TRISD, F
000214 D???           02874         BRA     _00196_DS_
000216                02875 _00189_DS_:
                      02876 ;       .line   84; /home/valentin/.icaro/np05/tmp/digitalw.c   else TRISD=TRISD & (255-mask[input]);
000216 0E??           02877         MOVLW   LOW(_mask)
000218 24??           02878         ADDWF   r0x00, W
00021A 6E??           02879         MOVWF   r0x04
00021C 0E??           02880         MOVLW   HIGH(_mask)
00021E 20??           02881         ADDWFC  r0x01, W
000220 6E??           02882         MOVWF   r0x05
000222 6A??           02883         CLRF    r0x06
000224 BE??           02884         BTFSC   r0x01, 7
000226 68??           02885         SETF    r0x06
000228 0E??           02886         MOVLW   UPPER(_mask)
00022A 22??           02887         ADDWFC  r0x06, F
00022C C??? FFF6      02888         MOVFF   r0x04, TBLPTRL
000230 C??? FFF7      02889         MOVFF   r0x05, TBLPTRH
000234 C??? FFF8      02890         MOVFF   r0x06, TBLPTRU
000238 0009           02891         TBLRD*+ 
00023A CFF5 F???      02892         MOVFF   TABLAT, r0x04
00023E 50??           02893         MOVF    r0x04, W
000240 08FF           02894         SUBLW   0xff
                      02895 ; #     MOVWF   r0x04
                      02896 ; #     MOVF    r0x04, W
000242 16??           02897         ANDWF   _TRISD, F
                      02898 ;       .line   85; /home/valentin/.icaro/np05/tmp/digitalw.c   break;
000244 D???           02899         BRA     _00196_DS_
000246                02900 _00191_DS_:
                      02901 ;       .line   86; /home/valentin/.icaro/np05/tmp/digitalw.c   case 4: if (state) TRISE=TRISE | mask[input];
000246 50??           02902         MOVF    r0x02, W
000248 10??           02903         IORWF   r0x03, W
00024A E0??           02904         BZ      _00193_DS_
00024C 0E??           02905         MOVLW   LOW(_mask)
00024E 24??           02906         ADDWF   r0x00, W
000250 6E??           02907         MOVWF   r0x02
000252 0E??           02908         MOVLW   HIGH(_mask)
000254 20??           02909         ADDWFC  r0x01, W
000256 6E??           02910         MOVWF   r0x03
000258 6A??           02911         CLRF    r0x04
00025A BE??           02912         BTFSC   r0x01, 7
00025C 68??           02913         SETF    r0x04
00025E 0E??           02914         MOVLW   UPPER(_mask)
000260 22??           02915         ADDWFC  r0x04, F
gpasm-0.14.3 #861 (Nov  5 2012) /home/valenti   6-16-2013  19:42:02         PAGE 56


LOC  OBJECT CODE     LINE SOURCE TEXT
  VALUE

000262 C??? FFF6      02916         MOVFF   r0x02, TBLPTRL
000266 C??? FFF7      02917         MOVFF   r0x03, TBLPTRH
00026A C??? FFF8      02918         MOVFF   r0x04, TBLPTRU
00026E 0009           02919         TBLRD*+ 
000270 CFF5 F???      02920         MOVFF   TABLAT, r0x02
000274 50??           02921         MOVF    r0x02, W
000276 12??           02922         IORWF   _TRISE, F
000278 D???           02923         BRA     _00196_DS_
00027A                02924 _00193_DS_:
                      02925 ;       .line   87; /home/valentin/.icaro/np05/tmp/digitalw.c   else TRISE=TRISE & (255-mask[input]);
00027A 6A??           02926         CLRF    r0x02
00027C BE??           02927         BTFSC   r0x01, 7
00027E 68??           02928         SETF    r0x02
000280 0E??           02929         MOVLW   LOW(_mask)
000282 26??           02930         ADDWF   r0x00, F
000284 0E??           02931         MOVLW   HIGH(_mask)
000286 22??           02932         ADDWFC  r0x01, F
000288 0E??           02933         MOVLW   UPPER(_mask)
00028A 22??           02934         ADDWFC  r0x02, F
00028C C??? FFF6      02935         MOVFF   r0x00, TBLPTRL
000290 C??? FFF7      02936         MOVFF   r0x01, TBLPTRH
000294 C??? FFF8      02937         MOVFF   r0x02, TBLPTRU
000298 0009           02938         TBLRD*+ 
00029A CFF5 F???      02939         MOVFF   TABLAT, r0x00
00029E 50??           02940         MOVF    r0x00, W
0002A0 08FF           02941         SUBLW   0xff
                      02942 ; #     MOVWF   r0x00
                      02943 ; #     MOVF    r0x00, W
0002A2 16??           02944         ANDWF   _TRISE, F
0002A4                02945 _00196_DS_:
                      02946 ;       .line   90; /home/valentin/.icaro/np05/tmp/digitalw.c   }
0002A4 CFE4 F???      02947         MOVFF   PREINC1, r0x06
0002A8 CFE4 F???      02948         MOVFF   PREINC1, r0x05
0002AC CFE4 F???      02949         MOVFF   PREINC1, r0x04
0002B0 CFE4 F???      02950         MOVFF   PREINC1, r0x03
0002B4 CFE4 F???      02951         MOVFF   PREINC1, r0x02
0002B8 CFE4 F???      02952         MOVFF   PREINC1, r0x01
0002BC CFE4 F???      02953         MOVFF   PREINC1, r0x00
0002C0 CFE4 FFD9      02954         MOVFF   PREINC1, FSR2L
0002C4 0012           02955         RETURN  
                      02956 
                      02957 ; ; Starting pCode block
                      02958 S_main__digitalread     code
000000                02959 _digitalread:
                      02960 ;       .line   44; /home/valentin/.icaro/np05/tmp/digitalw.c   int digitalread(int input)
000000 CFD9 FFE5      02961         MOVFF   FSR2L, POSTDEC1
000004 CFE1 FFD9      02962         MOVFF   FSR1L, FSR2L
000008 C??? FFE5      02963         MOVFF   r0x00, POSTDEC1
00000C C??? FFE5      02964         MOVFF   r0x01, POSTDEC1
000010 C??? FFE5      02965         MOVFF   r0x02, POSTDEC1
000014 C??? FFE5      02966         MOVFF   r0x03, POSTDEC1
000018 C??? FFE5      02967         MOVFF   r0x04, POSTDEC1
00001C 0E02           02968         MOVLW   0x02
gpasm-0.14.3 #861 (Nov  5 2012) /home/valenti   6-16-2013  19:42:02         PAGE 57


LOC  OBJECT CODE     LINE SOURCE TEXT
  VALUE

00001E CFDB F???      02969         MOVFF   PLUSW2, r0x00
000022 0E03           02970         MOVLW   0x03
000024 CFDB F???      02971         MOVFF   PLUSW2, r0x01
                      02972 ;       .line   46; /home/valentin/.icaro/np05/tmp/digitalw.c   switch (port[input])
000028 0E??           02973         MOVLW   LOW(_port)
00002A 24??           02974         ADDWF   r0x00, W
00002C 6E??           02975         MOVWF   r0x02
00002E 0E??           02976         MOVLW   HIGH(_port)
000030 20??           02977         ADDWFC  r0x01, W
000032 6E??           02978         MOVWF   r0x03
000034 6A??           02979         CLRF    r0x04
000036 BE??           02980         BTFSC   r0x01, 7
000038 68??           02981         SETF    r0x04
00003A 0E??           02982         MOVLW   UPPER(_port)
00003C 22??           02983         ADDWFC  r0x04, F
00003E C??? FFF6      02984         MOVFF   r0x02, TBLPTRL
000042 C??? FFF7      02985         MOVFF   r0x03, TBLPTRH
000046 C??? FFF8      02986         MOVFF   r0x04, TBLPTRU
00004A 0009           02987         TBLRD*+ 
00004C CFF5 F???      02988         MOVFF   TABLAT, r0x02
000050 0E05           02989         MOVLW   0x05
000052 5C??           02990         SUBWF   r0x02, W
000054 B0D8           02991         BTFSC   STATUS, 0
000056 D???           02992         BRA     _00160_DS_
000058 C??? FFE5      02993         MOVFF   r0x05, POSTDEC1
00005C C??? FFE5      02994         MOVFF   r0x06, POSTDEC1
000060 6A??           02995         CLRF    r0x06
000062 34??           02996         RLCF    r0x02, W
000064 36??           02997         RLCF    r0x06, F
000066 34E8           02998         RLCF    WREG, W
000068 36??           02999         RLCF    r0x06, F
00006A 0BFC           03000         ANDLW   0xfc
00006C 6E??           03001         MOVWF   r0x05
00006E 0E??           03002         MOVLW   UPPER(_00170_DS_)
000070 6EFB           03003         MOVWF   PCLATU
000072 0E??           03004         MOVLW   HIGH(_00170_DS_)
000074 6EFA           03005         MOVWF   PCLATH
000076 0E??           03006         MOVLW   LOW(_00170_DS_)
000078 26??           03007         ADDWF   r0x05, F
00007A 50??           03008         MOVF    r0x06, W
00007C 22FA           03009         ADDWFC  PCLATH, F
00007E B0D8           03010         BTFSC   STATUS, 0
000080 2AFB           03011         INCF    PCLATU, F
000082 50??           03012         MOVF    r0x05, W
000084 CFE4 F???      03013         MOVFF   PREINC1, r0x06
000088 CFE4 F???      03014         MOVFF   PREINC1, r0x05
00008C 6EF9           03015         MOVWF   PCL
00008E                03016 _00170_DS_:
00008E EF?? F???      03017         GOTO    _00140_DS_
000092 EF?? F???      03018         GOTO    _00144_DS_
000096 EF?? F???      03019         GOTO    _00148_DS_
00009A EF?? F???      03020         GOTO    _00152_DS_
00009E EF?? F???      03021         GOTO    _00156_DS_
gpasm-0.14.3 #861 (Nov  5 2012) /home/valenti   6-16-2013  19:42:02         PAGE 58


LOC  OBJECT CODE     LINE SOURCE TEXT
  VALUE

0000A2                03022 _00140_DS_:
                      03023 ;       .line   48; /home/valentin/.icaro/np05/tmp/digitalw.c   case 0: if ((PORTB & mask[input])!=0) return (1);
0000A2 0E??           03024         MOVLW   LOW(_mask)
0000A4 24??           03025         ADDWF   r0x00, W
0000A6 6E??           03026         MOVWF   r0x02
0000A8 0E??           03027         MOVLW   HIGH(_mask)
0000AA 20??           03028         ADDWFC  r0x01, W
0000AC 6E??           03029         MOVWF   r0x03
0000AE 6A??           03030         CLRF    r0x04
0000B0 BE??           03031         BTFSC   r0x01, 7
0000B2 68??           03032         SETF    r0x04
0000B4 0E??           03033         MOVLW   UPPER(_mask)
0000B6 22??           03034         ADDWFC  r0x04, F
0000B8 C??? FFF6      03035         MOVFF   r0x02, TBLPTRL
0000BC C??? FFF7      03036         MOVFF   r0x03, TBLPTRH
0000C0 C??? FFF8      03037         MOVFF   r0x04, TBLPTRU
0000C4 0009           03038         TBLRD*+ 
0000C6 CFF5 F???      03039         MOVFF   TABLAT, r0x02
0000CA 50??           03040         MOVF    _PORTB, W
0000CC 16??           03041         ANDWF   r0x02, F
0000CE 50??           03042         MOVF    r0x02, W
0000D0 E0??           03043         BZ      _00142_DS_
0000D2 6AF3           03044         CLRF    PRODL
0000D4 0E01           03045         MOVLW   0x01
0000D6 D???           03046         BRA     _00161_DS_
0000D8                03047 _00142_DS_:
                      03048 ;       .line   49; /home/valentin/.icaro/np05/tmp/digitalw.c   else return (0);
0000D8 6AF3           03049         CLRF    PRODL
0000DA 6AE8           03050         CLRF    WREG
0000DC D???           03051         BRA     _00161_DS_
0000DE                03052 _00144_DS_:
                      03053 ;       .line   51; /home/valentin/.icaro/np05/tmp/digitalw.c   case 1: if ((PORTC & mask[input])!=0) return (1);
0000DE 0E??           03054         MOVLW   LOW(_mask)
0000E0 24??           03055         ADDWF   r0x00, W
0000E2 6E??           03056         MOVWF   r0x02
0000E4 0E??           03057         MOVLW   HIGH(_mask)
0000E6 20??           03058         ADDWFC  r0x01, W
0000E8 6E??           03059         MOVWF   r0x03
0000EA 6A??           03060         CLRF    r0x04
0000EC BE??           03061         BTFSC   r0x01, 7
0000EE 68??           03062         SETF    r0x04
0000F0 0E??           03063         MOVLW   UPPER(_mask)
0000F2 22??           03064         ADDWFC  r0x04, F
0000F4 C??? FFF6      03065         MOVFF   r0x02, TBLPTRL
0000F8 C??? FFF7      03066         MOVFF   r0x03, TBLPTRH
0000FC C??? FFF8      03067         MOVFF   r0x04, TBLPTRU
000100 0009           03068         TBLRD*+ 
000102 CFF5 F???      03069         MOVFF   TABLAT, r0x02
000106 50??           03070         MOVF    _PORTC, W
000108 16??           03071         ANDWF   r0x02, F
00010A 50??           03072         MOVF    r0x02, W
00010C E0??           03073         BZ      _00146_DS_
00010E 6AF3           03074         CLRF    PRODL
gpasm-0.14.3 #861 (Nov  5 2012) /home/valenti   6-16-2013  19:42:02         PAGE 59


LOC  OBJECT CODE     LINE SOURCE TEXT
  VALUE

000110 0E01           03075         MOVLW   0x01
000112 D???           03076         BRA     _00161_DS_
000114                03077 _00146_DS_:
                      03078 ;       .line   52; /home/valentin/.icaro/np05/tmp/digitalw.c   else return (0);
000114 6AF3           03079         CLRF    PRODL
000116 6AE8           03080         CLRF    WREG
000118 D???           03081         BRA     _00161_DS_
00011A                03082 _00148_DS_:
                      03083 ;       .line   54; /home/valentin/.icaro/np05/tmp/digitalw.c   case 2: if ((PORTA & mask[input])!=0) return (1);
00011A 0E??           03084         MOVLW   LOW(_mask)
00011C 24??           03085         ADDWF   r0x00, W
00011E 6E??           03086         MOVWF   r0x02
000120 0E??           03087         MOVLW   HIGH(_mask)
000122 20??           03088         ADDWFC  r0x01, W
000124 6E??           03089         MOVWF   r0x03
000126 6A??           03090         CLRF    r0x04
000128 BE??           03091         BTFSC   r0x01, 7
00012A 68??           03092         SETF    r0x04
00012C 0E??           03093         MOVLW   UPPER(_mask)
00012E 22??           03094         ADDWFC  r0x04, F
000130 C??? FFF6      03095         MOVFF   r0x02, TBLPTRL
000134 C??? FFF7      03096         MOVFF   r0x03, TBLPTRH
000138 C??? FFF8      03097         MOVFF   r0x04, TBLPTRU
00013C 0009           03098         TBLRD*+ 
00013E CFF5 F???      03099         MOVFF   TABLAT, r0x02
000142 50??           03100         MOVF    _PORTA, W
000144 16??           03101         ANDWF   r0x02, F
000146 50??           03102         MOVF    r0x02, W
000148 E0??           03103         BZ      _00150_DS_
00014A 6AF3           03104         CLRF    PRODL
00014C 0E01           03105         MOVLW   0x01
00014E D???           03106         BRA     _00161_DS_
000150                03107 _00150_DS_:
                      03108 ;       .line   55; /home/valentin/.icaro/np05/tmp/digitalw.c   else return (0);
000150 6AF3           03109         CLRF    PRODL
000152 6AE8           03110         CLRF    WREG
000154 D???           03111         BRA     _00161_DS_
000156                03112 _00152_DS_:
                      03113 ;       .line   58; /home/valentin/.icaro/np05/tmp/digitalw.c   case 3: if ((PORTD & mask[input])!=0) return (1);
000156 0E??           03114         MOVLW   LOW(_mask)
000158 24??           03115         ADDWF   r0x00, W
00015A 6E??           03116         MOVWF   r0x02
00015C 0E??           03117         MOVLW   HIGH(_mask)
00015E 20??           03118         ADDWFC  r0x01, W
000160 6E??           03119         MOVWF   r0x03
000162 6A??           03120         CLRF    r0x04
000164 BE??           03121         BTFSC   r0x01, 7
000166 68??           03122         SETF    r0x04
000168 0E??           03123         MOVLW   UPPER(_mask)
00016A 22??           03124         ADDWFC  r0x04, F
00016C C??? FFF6      03125         MOVFF   r0x02, TBLPTRL
000170 C??? FFF7      03126         MOVFF   r0x03, TBLPTRH
000174 C??? FFF8      03127         MOVFF   r0x04, TBLPTRU
gpasm-0.14.3 #861 (Nov  5 2012) /home/valenti   6-16-2013  19:42:02         PAGE 60


LOC  OBJECT CODE     LINE SOURCE TEXT
  VALUE

000178 0009           03128         TBLRD*+ 
00017A CFF5 F???      03129         MOVFF   TABLAT, r0x02
00017E 50??           03130         MOVF    _PORTD, W
000180 16??           03131         ANDWF   r0x02, F
000182 50??           03132         MOVF    r0x02, W
000184 E0??           03133         BZ      _00154_DS_
000186 6AF3           03134         CLRF    PRODL
000188 0E01           03135         MOVLW   0x01
00018A D???           03136         BRA     _00161_DS_
00018C                03137 _00154_DS_:
                      03138 ;       .line   59; /home/valentin/.icaro/np05/tmp/digitalw.c   else return (0);
00018C 6AF3           03139         CLRF    PRODL
00018E 6AE8           03140         CLRF    WREG
000190 D???           03141         BRA     _00161_DS_
000192                03142 _00156_DS_:
                      03143 ;       .line   61; /home/valentin/.icaro/np05/tmp/digitalw.c   case 4: if ((PORTE & mask[input])!=0) return (1);
000192 6A??           03144         CLRF    r0x02
000194 BE??           03145         BTFSC   r0x01, 7
000196 68??           03146         SETF    r0x02
000198 0E??           03147         MOVLW   LOW(_mask)
00019A 26??           03148         ADDWF   r0x00, F
00019C 0E??           03149         MOVLW   HIGH(_mask)
00019E 22??           03150         ADDWFC  r0x01, F
0001A0 0E??           03151         MOVLW   UPPER(_mask)
0001A2 22??           03152         ADDWFC  r0x02, F
0001A4 C??? FFF6      03153         MOVFF   r0x00, TBLPTRL
0001A8 C??? FFF7      03154         MOVFF   r0x01, TBLPTRH
0001AC C??? FFF8      03155         MOVFF   r0x02, TBLPTRU
0001B0 0009           03156         TBLRD*+ 
0001B2 CFF5 F???      03157         MOVFF   TABLAT, r0x00
0001B6 50??           03158         MOVF    _PORTE, W
0001B8 16??           03159         ANDWF   r0x00, F
0001BA 50??           03160         MOVF    r0x00, W
0001BC E0??           03161         BZ      _00158_DS_
0001BE 6AF3           03162         CLRF    PRODL
0001C0 0E01           03163         MOVLW   0x01
0001C2 D???           03164         BRA     _00161_DS_
0001C4                03165 _00158_DS_:
                      03166 ;       .line   62; /home/valentin/.icaro/np05/tmp/digitalw.c   else return (0);
0001C4 6AF3           03167         CLRF    PRODL
0001C6 6AE8           03168         CLRF    WREG
0001C8 D???           03169         BRA     _00161_DS_
0001CA                03170 _00160_DS_:
                      03171 ;       .line   66; /home/valentin/.icaro/np05/tmp/digitalw.c   return (0);
0001CA 6AF3           03172         CLRF    PRODL
0001CC 6AE8           03173         CLRF    WREG
0001CE                03174 _00161_DS_:
0001CE CFE4 F???      03175         MOVFF   PREINC1, r0x04
0001D2 CFE4 F???      03176         MOVFF   PREINC1, r0x03
0001D6 CFE4 F???      03177         MOVFF   PREINC1, r0x02
0001DA CFE4 F???      03178         MOVFF   PREINC1, r0x01
0001DE CFE4 F???      03179         MOVFF   PREINC1, r0x00
0001E2 CFE4 FFD9      03180         MOVFF   PREINC1, FSR2L
gpasm-0.14.3 #861 (Nov  5 2012) /home/valenti   6-16-2013  19:42:02         PAGE 61


LOC  OBJECT CODE     LINE SOURCE TEXT
  VALUE

0001E6 0012           03181         RETURN  
                      03182 
                      03183 ; ; Starting pCode block
                      03184 S_main__digitalwrite    code
000000                03185 _digitalwrite:
                      03186 ;       .line   20; /home/valentin/.icaro/np05/tmp/digitalw.c   void digitalwrite(int output,int state)
000000 CFD9 FFE5      03187         MOVFF   FSR2L, POSTDEC1
000004 CFE1 FFD9      03188         MOVFF   FSR1L, FSR2L
000008 C??? FFE5      03189         MOVFF   r0x00, POSTDEC1
00000C C??? FFE5      03190         MOVFF   r0x01, POSTDEC1
000010 C??? FFE5      03191         MOVFF   r0x02, POSTDEC1
000014 C??? FFE5      03192         MOVFF   r0x03, POSTDEC1
000018 C??? FFE5      03193         MOVFF   r0x04, POSTDEC1
00001C C??? FFE5      03194         MOVFF   r0x05, POSTDEC1
000020 C??? FFE5      03195         MOVFF   r0x06, POSTDEC1
000024 0E02           03196         MOVLW   0x02
000026 CFDB F???      03197         MOVFF   PLUSW2, r0x00
00002A 0E03           03198         MOVLW   0x03
00002C CFDB F???      03199         MOVFF   PLUSW2, r0x01
000030 0E04           03200         MOVLW   0x04
000032 CFDB F???      03201         MOVFF   PLUSW2, r0x02
000036 0E05           03202         MOVLW   0x05
000038 CFDB F???      03203         MOVFF   PLUSW2, r0x03
                      03204 ;       .line   22; /home/valentin/.icaro/np05/tmp/digitalw.c   switch (port[output])
00003C 0E??           03205         MOVLW   LOW(_port)
00003E 24??           03206         ADDWF   r0x00, W
000040 6E??           03207         MOVWF   r0x04
000042 0E??           03208         MOVLW   HIGH(_port)
000044 20??           03209         ADDWFC  r0x01, W
000046 6E??           03210         MOVWF   r0x05
000048 6A??           03211         CLRF    r0x06
00004A BE??           03212         BTFSC   r0x01, 7
00004C 68??           03213         SETF    r0x06
00004E 0E??           03214         MOVLW   UPPER(_port)
000050 22??           03215         ADDWFC  r0x06, F
000052 C??? FFF6      03216         MOVFF   r0x04, TBLPTRL
000056 C??? FFF7      03217         MOVFF   r0x05, TBLPTRH
00005A C??? FFF8      03218         MOVFF   r0x06, TBLPTRU
00005E 0009           03219         TBLRD*+ 
000060 CFF5 F???      03220         MOVFF   TABLAT, r0x04
000064 0E05           03221         MOVLW   0x05
000066 5C??           03222         SUBWF   r0x04, W
000068 B0D8           03223         BTFSC   STATUS, 0
00006A D???           03224         BRA     _00126_DS_
00006C C??? FFE5      03225         MOVFF   r0x07, POSTDEC1
000070 C??? FFE5      03226         MOVFF   r0x08, POSTDEC1
000074 6A??           03227         CLRF    r0x08
000076 34??           03228         RLCF    r0x04, W
000078 36??           03229         RLCF    r0x08, F
00007A 34E8           03230         RLCF    WREG, W
00007C 36??           03231         RLCF    r0x08, F
00007E 0BFC           03232         ANDLW   0xfc
000080 6E??           03233         MOVWF   r0x07
gpasm-0.14.3 #861 (Nov  5 2012) /home/valenti   6-16-2013  19:42:02         PAGE 62


LOC  OBJECT CODE     LINE SOURCE TEXT
  VALUE

000082 0E??           03234         MOVLW   UPPER(_00135_DS_)
000084 6EFB           03235         MOVWF   PCLATU
000086 0E??           03236         MOVLW   HIGH(_00135_DS_)
000088 6EFA           03237         MOVWF   PCLATH
00008A 0E??           03238         MOVLW   LOW(_00135_DS_)
00008C 26??           03239         ADDWF   r0x07, F
00008E 50??           03240         MOVF    r0x08, W
000090 22FA           03241         ADDWFC  PCLATH, F
000092 B0D8           03242         BTFSC   STATUS, 0
000094 2AFB           03243         INCF    PCLATU, F
000096 50??           03244         MOVF    r0x07, W
000098 CFE4 F???      03245         MOVFF   PREINC1, r0x08
00009C CFE4 F???      03246         MOVFF   PREINC1, r0x07
0000A0 6EF9           03247         MOVWF   PCL
0000A2                03248 _00135_DS_:
0000A2 EF?? F???      03249         GOTO    _00105_DS_
0000A6 EF?? F???      03250         GOTO    _00109_DS_
0000AA EF?? F???      03251         GOTO    _00113_DS_
0000AE EF?? F???      03252         GOTO    _00117_DS_
0000B2 EF?? F???      03253         GOTO    _00121_DS_
0000B6                03254 _00105_DS_:
                      03255 ;       .line   24; /home/valentin/.icaro/np05/tmp/digitalw.c   case 0: if (state) PORTB=PORTB | mask[output]; 
0000B6 50??           03256         MOVF    r0x02, W
0000B8 10??           03257         IORWF   r0x03, W
0000BA E0??           03258         BZ      _00107_DS_
0000BC 0E??           03259         MOVLW   LOW(_mask)
0000BE 24??           03260         ADDWF   r0x00, W
0000C0 6E??           03261         MOVWF   r0x04
0000C2 0E??           03262         MOVLW   HIGH(_mask)
0000C4 20??           03263         ADDWFC  r0x01, W
0000C6 6E??           03264         MOVWF   r0x05
0000C8 6A??           03265         CLRF    r0x06
0000CA BE??           03266         BTFSC   r0x01, 7
0000CC 68??           03267         SETF    r0x06
0000CE 0E??           03268         MOVLW   UPPER(_mask)
0000D0 22??           03269         ADDWFC  r0x06, F
0000D2 C??? FFF6      03270         MOVFF   r0x04, TBLPTRL
0000D6 C??? FFF7      03271         MOVFF   r0x05, TBLPTRH
0000DA C??? FFF8      03272         MOVFF   r0x06, TBLPTRU
0000DE 0009           03273         TBLRD*+ 
0000E0 CFF5 F???      03274         MOVFF   TABLAT, r0x04
0000E4 50??           03275         MOVF    r0x04, W
0000E6 12??           03276         IORWF   _PORTB, F
0000E8 D???           03277         BRA     _00126_DS_
0000EA                03278 _00107_DS_:
                      03279 ;       .line   25; /home/valentin/.icaro/np05/tmp/digitalw.c   else PORTB=PORTB & (255-mask[output]);
0000EA 0E??           03280         MOVLW   LOW(_mask)
0000EC 24??           03281         ADDWF   r0x00, W
0000EE 6E??           03282         MOVWF   r0x04
0000F0 0E??           03283         MOVLW   HIGH(_mask)
0000F2 20??           03284         ADDWFC  r0x01, W
0000F4 6E??           03285         MOVWF   r0x05
0000F6 6A??           03286         CLRF    r0x06
gpasm-0.14.3 #861 (Nov  5 2012) /home/valenti   6-16-2013  19:42:02         PAGE 63


LOC  OBJECT CODE     LINE SOURCE TEXT
  VALUE

0000F8 BE??           03287         BTFSC   r0x01, 7
0000FA 68??           03288         SETF    r0x06
0000FC 0E??           03289         MOVLW   UPPER(_mask)
0000FE 22??           03290         ADDWFC  r0x06, F
000100 C??? FFF6      03291         MOVFF   r0x04, TBLPTRL
000104 C??? FFF7      03292         MOVFF   r0x05, TBLPTRH
000108 C??? FFF8      03293         MOVFF   r0x06, TBLPTRU
00010C 0009           03294         TBLRD*+ 
00010E CFF5 F???      03295         MOVFF   TABLAT, r0x04
000112 50??           03296         MOVF    r0x04, W
000114 08FF           03297         SUBLW   0xff
                      03298 ; #     MOVWF   r0x04
                      03299 ; #     MOVF    r0x04, W
000116 16??           03300         ANDWF   _PORTB, F
                      03301 ;       .line   26; /home/valentin/.icaro/np05/tmp/digitalw.c   break;
000118 D???           03302         BRA     _00126_DS_
00011A                03303 _00109_DS_:
                      03304 ;       .line   27; /home/valentin/.icaro/np05/tmp/digitalw.c   case 1: if (state) PORTC=PORTC | mask[output];
00011A 50??           03305         MOVF    r0x02, W
00011C 10??           03306         IORWF   r0x03, W
00011E E0??           03307         BZ      _00111_DS_
000120 0E??           03308         MOVLW   LOW(_mask)
000122 24??           03309         ADDWF   r0x00, W
000124 6E??           03310         MOVWF   r0x04
000126 0E??           03311         MOVLW   HIGH(_mask)
000128 20??           03312         ADDWFC  r0x01, W
00012A 6E??           03313         MOVWF   r0x05
00012C 6A??           03314         CLRF    r0x06
00012E BE??           03315         BTFSC   r0x01, 7
000130 68??           03316         SETF    r0x06
000132 0E??           03317         MOVLW   UPPER(_mask)
000134 22??           03318         ADDWFC  r0x06, F
000136 C??? FFF6      03319         MOVFF   r0x04, TBLPTRL
00013A C??? FFF7      03320         MOVFF   r0x05, TBLPTRH
00013E C??? FFF8      03321         MOVFF   r0x06, TBLPTRU
000142 0009           03322         TBLRD*+ 
000144 CFF5 F???      03323         MOVFF   TABLAT, r0x04
000148 50??           03324         MOVF    r0x04, W
00014A 12??           03325         IORWF   _PORTC, F
00014C D???           03326         BRA     _00126_DS_
00014E                03327 _00111_DS_:
                      03328 ;       .line   28; /home/valentin/.icaro/np05/tmp/digitalw.c   else PORTC=PORTC & (255-mask[output]);
00014E 0E??           03329         MOVLW   LOW(_mask)
000150 24??           03330         ADDWF   r0x00, W
000152 6E??           03331         MOVWF   r0x04
000154 0E??           03332         MOVLW   HIGH(_mask)
000156 20??           03333         ADDWFC  r0x01, W
000158 6E??           03334         MOVWF   r0x05
00015A 6A??           03335         CLRF    r0x06
00015C BE??           03336         BTFSC   r0x01, 7
00015E 68??           03337         SETF    r0x06
000160 0E??           03338         MOVLW   UPPER(_mask)
000162 22??           03339         ADDWFC  r0x06, F
gpasm-0.14.3 #861 (Nov  5 2012) /home/valenti   6-16-2013  19:42:02         PAGE 64


LOC  OBJECT CODE     LINE SOURCE TEXT
  VALUE

000164 C??? FFF6      03340         MOVFF   r0x04, TBLPTRL
000168 C??? FFF7      03341         MOVFF   r0x05, TBLPTRH
00016C C??? FFF8      03342         MOVFF   r0x06, TBLPTRU
000170 0009           03343         TBLRD*+ 
000172 CFF5 F???      03344         MOVFF   TABLAT, r0x04
000176 50??           03345         MOVF    r0x04, W
000178 08FF           03346         SUBLW   0xff
                      03347 ; #     MOVWF   r0x04
                      03348 ; #     MOVF    r0x04, W
00017A 16??           03349         ANDWF   _PORTC, F
                      03350 ;       .line   29; /home/valentin/.icaro/np05/tmp/digitalw.c   break;
00017C D???           03351         BRA     _00126_DS_
00017E                03352 _00113_DS_:
                      03353 ;       .line   30; /home/valentin/.icaro/np05/tmp/digitalw.c   case 2: if (state) PORTA=PORTA | mask[output];
00017E 50??           03354         MOVF    r0x02, W
000180 10??           03355         IORWF   r0x03, W
000182 E0??           03356         BZ      _00115_DS_
000184 0E??           03357         MOVLW   LOW(_mask)
000186 24??           03358         ADDWF   r0x00, W
000188 6E??           03359         MOVWF   r0x04
00018A 0E??           03360         MOVLW   HIGH(_mask)
00018C 20??           03361         ADDWFC  r0x01, W
00018E 6E??           03362         MOVWF   r0x05
000190 6A??           03363         CLRF    r0x06
000192 BE??           03364         BTFSC   r0x01, 7
000194 68??           03365         SETF    r0x06
000196 0E??           03366         MOVLW   UPPER(_mask)
000198 22??           03367         ADDWFC  r0x06, F
00019A C??? FFF6      03368         MOVFF   r0x04, TBLPTRL
00019E C??? FFF7      03369         MOVFF   r0x05, TBLPTRH
0001A2 C??? FFF8      03370         MOVFF   r0x06, TBLPTRU
0001A6 0009           03371         TBLRD*+ 
0001A8 CFF5 F???      03372         MOVFF   TABLAT, r0x04
0001AC 50??           03373         MOVF    r0x04, W
0001AE 12??           03374         IORWF   _PORTA, F
0001B0 D???           03375         BRA     _00126_DS_
0001B2                03376 _00115_DS_:
                      03377 ;       .line   31; /home/valentin/.icaro/np05/tmp/digitalw.c   else PORTA=PORTA & (255-mask[output]);
0001B2 0E??           03378         MOVLW   LOW(_mask)
0001B4 24??           03379         ADDWF   r0x00, W
0001B6 6E??           03380         MOVWF   r0x04
0001B8 0E??           03381         MOVLW   HIGH(_mask)
0001BA 20??           03382         ADDWFC  r0x01, W
0001BC 6E??           03383         MOVWF   r0x05
0001BE 6A??           03384         CLRF    r0x06
0001C0 BE??           03385         BTFSC   r0x01, 7
0001C2 68??           03386         SETF    r0x06
0001C4 0E??           03387         MOVLW   UPPER(_mask)
0001C6 22??           03388         ADDWFC  r0x06, F
0001C8 C??? FFF6      03389         MOVFF   r0x04, TBLPTRL
0001CC C??? FFF7      03390         MOVFF   r0x05, TBLPTRH
0001D0 C??? FFF8      03391         MOVFF   r0x06, TBLPTRU
0001D4 0009           03392         TBLRD*+ 
gpasm-0.14.3 #861 (Nov  5 2012) /home/valenti   6-16-2013  19:42:02         PAGE 65


LOC  OBJECT CODE     LINE SOURCE TEXT
  VALUE

0001D6 CFF5 F???      03393         MOVFF   TABLAT, r0x04
0001DA 50??           03394         MOVF    r0x04, W
0001DC 08FF           03395         SUBLW   0xff
                      03396 ; #     MOVWF   r0x04
                      03397 ; #     MOVF    r0x04, W
0001DE 16??           03398         ANDWF   _PORTA, F
                      03399 ;       .line   32; /home/valentin/.icaro/np05/tmp/digitalw.c   break;
0001E0 D???           03400         BRA     _00126_DS_
0001E2                03401 _00117_DS_:
                      03402 ;       .line   34; /home/valentin/.icaro/np05/tmp/digitalw.c   case 3: if (state) PORTD=PORTD | mask[output]; 
0001E2 50??           03403         MOVF    r0x02, W
0001E4 10??           03404         IORWF   r0x03, W
0001E6 E0??           03405         BZ      _00119_DS_
0001E8 0E??           03406         MOVLW   LOW(_mask)
0001EA 24??           03407         ADDWF   r0x00, W
0001EC 6E??           03408         MOVWF   r0x04
0001EE 0E??           03409         MOVLW   HIGH(_mask)
0001F0 20??           03410         ADDWFC  r0x01, W
0001F2 6E??           03411         MOVWF   r0x05
0001F4 6A??           03412         CLRF    r0x06
0001F6 BE??           03413         BTFSC   r0x01, 7
0001F8 68??           03414         SETF    r0x06
0001FA 0E??           03415         MOVLW   UPPER(_mask)
0001FC 22??           03416         ADDWFC  r0x06, F
0001FE C??? FFF6      03417         MOVFF   r0x04, TBLPTRL
000202 C??? FFF7      03418         MOVFF   r0x05, TBLPTRH
000206 C??? FFF8      03419         MOVFF   r0x06, TBLPTRU
00020A 0009           03420         TBLRD*+ 
00020C CFF5 F???      03421         MOVFF   TABLAT, r0x04
000210 50??           03422         MOVF    r0x04, W
000212 12??           03423         IORWF   _PORTD, F
000214 D???           03424         BRA     _00126_DS_
000216                03425 _00119_DS_:
                      03426 ;       .line   35; /home/valentin/.icaro/np05/tmp/digitalw.c   else PORTD=PORTD & (255-mask[output]);
000216 0E??           03427         MOVLW   LOW(_mask)
000218 24??           03428         ADDWF   r0x00, W
00021A 6E??           03429         MOVWF   r0x04
00021C 0E??           03430         MOVLW   HIGH(_mask)
00021E 20??           03431         ADDWFC  r0x01, W
000220 6E??           03432         MOVWF   r0x05
000222 6A??           03433         CLRF    r0x06
000224 BE??           03434         BTFSC   r0x01, 7
000226 68??           03435         SETF    r0x06
000228 0E??           03436         MOVLW   UPPER(_mask)
00022A 22??           03437         ADDWFC  r0x06, F
00022C C??? FFF6      03438         MOVFF   r0x04, TBLPTRL
000230 C??? FFF7      03439         MOVFF   r0x05, TBLPTRH
000234 C??? FFF8      03440         MOVFF   r0x06, TBLPTRU
000238 0009           03441         TBLRD*+ 
00023A CFF5 F???      03442         MOVFF   TABLAT, r0x04
00023E 50??           03443         MOVF    r0x04, W
000240 08FF           03444         SUBLW   0xff
                      03445 ; #     MOVWF   r0x04
gpasm-0.14.3 #861 (Nov  5 2012) /home/valenti   6-16-2013  19:42:02         PAGE 66


LOC  OBJECT CODE     LINE SOURCE TEXT
  VALUE

                      03446 ; #     MOVF    r0x04, W
000242 16??           03447         ANDWF   _PORTD, F
                      03448 ;       .line   36; /home/valentin/.icaro/np05/tmp/digitalw.c   break;
000244 D???           03449         BRA     _00126_DS_
000246                03450 _00121_DS_:
                      03451 ;       .line   37; /home/valentin/.icaro/np05/tmp/digitalw.c   case 4: if (state) PORTE=PORTE | mask[output]; 
000246 50??           03452         MOVF    r0x02, W
000248 10??           03453         IORWF   r0x03, W
00024A E0??           03454         BZ      _00123_DS_
00024C 0E??           03455         MOVLW   LOW(_mask)
00024E 24??           03456         ADDWF   r0x00, W
000250 6E??           03457         MOVWF   r0x02
000252 0E??           03458         MOVLW   HIGH(_mask)
000254 20??           03459         ADDWFC  r0x01, W
000256 6E??           03460         MOVWF   r0x03
000258 6A??           03461         CLRF    r0x04
00025A BE??           03462         BTFSC   r0x01, 7
00025C 68??           03463         SETF    r0x04
00025E 0E??           03464         MOVLW   UPPER(_mask)
000260 22??           03465         ADDWFC  r0x04, F
000262 C??? FFF6      03466         MOVFF   r0x02, TBLPTRL
000266 C??? FFF7      03467         MOVFF   r0x03, TBLPTRH
00026A C??? FFF8      03468         MOVFF   r0x04, TBLPTRU
00026E 0009           03469         TBLRD*+ 
000270 CFF5 F???      03470         MOVFF   TABLAT, r0x02
000274 50??           03471         MOVF    r0x02, W
000276 12??           03472         IORWF   _PORTE, F
000278 D???           03473         BRA     _00126_DS_
00027A                03474 _00123_DS_:
                      03475 ;       .line   38; /home/valentin/.icaro/np05/tmp/digitalw.c   else PORTE=PORTE & (255-mask[output]);
00027A 6A??           03476         CLRF    r0x02
00027C BE??           03477         BTFSC   r0x01, 7
00027E 68??           03478         SETF    r0x02
000280 0E??           03479         MOVLW   LOW(_mask)
000282 26??           03480         ADDWF   r0x00, F
000284 0E??           03481         MOVLW   HIGH(_mask)
000286 22??           03482         ADDWFC  r0x01, F
000288 0E??           03483         MOVLW   UPPER(_mask)
00028A 22??           03484         ADDWFC  r0x02, F
00028C C??? FFF6      03485         MOVFF   r0x00, TBLPTRL
000290 C??? FFF7      03486         MOVFF   r0x01, TBLPTRH
000294 C??? FFF8      03487         MOVFF   r0x02, TBLPTRU
000298 0009           03488         TBLRD*+ 
00029A CFF5 F???      03489         MOVFF   TABLAT, r0x00
00029E 50??           03490         MOVF    r0x00, W
0002A0 08FF           03491         SUBLW   0xff
                      03492 ; #     MOVWF   r0x00
                      03493 ; #     MOVF    r0x00, W
0002A2 16??           03494         ANDWF   _PORTE, F
0002A4                03495 _00126_DS_:
                      03496 ;       .line   41; /home/valentin/.icaro/np05/tmp/digitalw.c   }
0002A4 CFE4 F???      03497         MOVFF   PREINC1, r0x06
0002A8 CFE4 F???      03498         MOVFF   PREINC1, r0x05
gpasm-0.14.3 #861 (Nov  5 2012) /home/valenti   6-16-2013  19:42:02         PAGE 67


LOC  OBJECT CODE     LINE SOURCE TEXT
  VALUE

0002AC CFE4 F???      03499         MOVFF   PREINC1, r0x04
0002B0 CFE4 F???      03500         MOVFF   PREINC1, r0x03
0002B4 CFE4 F???      03501         MOVFF   PREINC1, r0x02
0002B8 CFE4 F???      03502         MOVFF   PREINC1, r0x01
0002BC CFE4 F???      03503         MOVFF   PREINC1, r0x00
0002C0 CFE4 FFD9      03504         MOVFF   PREINC1, FSR2L
0002C4 0012           03505         RETURN  
                      03506 
                      03507 ; ; Starting pCode block for Ival
                      03508         code
000000                03509 _mask:
000000 0201 0804 2010 03510         DB      0x01, 0x02, 0x04, 0x08, 0x10, 0x20, 0x40, 0x80, 0x40, 0x80, 0x01, 0x02
       8040 8040 0201 
00000C 0104 0402 2008 03511         DB      0x04, 0x01, 0x02, 0x04, 0x08, 0x20, 0x01, 0x02, 0x04, 0x01, 0x02, 0x04
       0201 0104 0402 
000018 1008 4020 0080 03512         DB      0x08, 0x10, 0x20, 0x40, 0x80
                      03513 ; ; Starting pCode block for Ival
00001E                03514 _port:
00001E 0000 0000 0000 03515         DB      0x00, 0x00, 0x00, 0x00, 0x00, 0x00, 0x00, 0x00, 0x01, 0x01, 0x01, 0x01
       0000 0101 0101 
00002A 0201 0202 0202 03516         DB      0x01, 0x02, 0x02, 0x02, 0x02, 0x02, 0x04, 0x04, 0x04, 0x03, 0x03, 0x03
       0404 0304 0303 
000036 0303 0303 0003 03517         DB      0x03, 0x03, 0x03, 0x03, 0x03
                      03518 ; ; Starting pCode block for Ival
00003C                03519 _servomasks:
00003C 0201 0804 2010 03520         DB      0x01, 0x02, 0x04, 0x08, 0x10, 0x20, 0x40, 0x80, 0x40, 0x80, 0x01, 0x02
       8040 8040 0201 
000048 0104 0402 2008 03521         DB      0x04, 0x01, 0x02, 0x04, 0x08, 0x20
                      03522 
                      03523 
                      03524 ; Statistics:
                      03525 ; code size:     6168 (0x1818) bytes ( 4.71%)
                      03526 ;                3084 (0x0c0c) words
                      03527 ; udata size:     297 (0x0129) bytes (16.57%)
                      03528 ; access size:     13 (0x000d) bytes
                      03529 
                      03530 
                      03531         end
gpasm-0.14.3 #861 (Nov  5 2012) /home/valenti   6-16-2013  19:42:02         PAGE 68


SYMBOL TABLE
  LABEL                             VALUE

BSR                               00000FE0
FSR0H                             00000FEA
FSR0L                             00000FE9
FSR1L                             00000FE1
FSR2L                             00000FD9
INDF0                             00000FEF
PCL                               00000FF9
PCLATH                            00000FFA
PCLATU                            00000FFB
PLUSW2                            00000FDB
POSTDEC1                          00000FE5
PREINC1                           00000FE4
PRODH                             00000FF4
PRODL                             00000FF3
STATUS                            00000FD8
TABLAT                            00000FF5
TBLPTRH                           00000FF7
TBLPTRL                           00000FF6
TBLPTRU                           00000FF8
WREG                              00000FE8
_00105_DS_                        000000B6
_00107_DS_                        000000EA
_00109_DS_                        0000011A
_00111_DS_                        0000014E
_00113_DS_                        0000017E
_00115_DS_                        000001B2
_00117_DS_                        000001E2
_00119_DS_                        00000216
_00121_DS_                        00000246
_00123_DS_                        0000027A
_00126_DS_                        000002A4
_00135_DS_                        000000A2
_00140_DS_                        000000A2
_00142_DS_                        000000D8
_00144_DS_                        000000DE
_00146_DS_                        00000114
_00148_DS_                        0000011A
_00150_DS_                        00000150
_00152_DS_                        00000156
_00154_DS_                        0000018C
_00156_DS_                        00000192
_00158_DS_                        000001C4
_00160_DS_                        000001CA
_00161_DS_                        000001CE
_00170_DS_                        0000008E
_00175_DS_                        000000B6
_00177_DS_                        000000EA
_00179_DS_                        0000011A
_00181_DS_                        0000014E
_00183_DS_                        0000017E
_00185_DS_                        000001B2
_00187_DS_                        000001E2
_00189_DS_                        00000216
gpasm-0.14.3 #861 (Nov  5 2012) /home/valenti   6-16-2013  19:42:02         PAGE 69


SYMBOL TABLE
  LABEL                             VALUE 

_00191_DS_                        00000246
_00193_DS_                        0000027A
_00196_DS_                        000002A4
_00205_DS_                        000000A2
_00210_DS_                        0000000E
_00213_DS_                        0000002E
_00225_DS_                        00000082
_00226_DS_                        00000018
_00230_DS_                        00000094
_00250_DS_                        0000014A
_00258_DS_                        00000218
_00266_DS_                        00000306
_00272_DS_                        00000258
_00275_DS_                        00000162
_00277_DS_                        00000082
_00279_DS_                        00000390
_00280_DS_                        00000032
_00283_DS_                        0000007E
_00284_DS_                        00000090
_00286_DS_                        00000342
_00287_DS_                        00000346
_00317_DS_                        0000015E
_00322_DS_                        0000022C
_00335_DS_                        0000009A
_00338_DS_                        00000060
_00340_DS_                        000000CA
_00357_DS_                        00000092
_00360_DS_                        0000005C
_00362_DS_                        000000BE
_00378_DS_                        00000030
_00380_DS_                        0000003A
_00381_DS_                        00000056
_00394_DS_                        00000020
_00395_DS_                        00000038
_00405_DS_                        00000036
_00415_DS_                        00000038
_00426_DS_                        00000024
_00430_DS_                        00000044
_00445_DS_                        0000001E
_00455_DS_                        00000044
_00460_DS_                        00000032
_00466_DS_                        00000048
_00470_DS_                        00000076
_00475_DS_                        0000005E
_00480_DS_                        0000002C
_00484_DS_                        00000044
_00489_DS_                        0000003A
_00497_DS_                        00000012
_00508_DS_                        00000062
_00510_DS_                        00000068
_00514_DS_                        00000010
_00525_DS_                        00000012
_00528_DS_                        00000068
gpasm-0.14.3 #861 (Nov  5 2012) /home/valenti   6-16-2013  19:42:02         PAGE 70


SYMBOL TABLE
  LABEL                             VALUE 

_00530_DS_                        0000006E
_00536_DS_                        0000001E
_00544_DS_                        00000040
_00556_DS_                        00000054
_00557_DS_                        00000058
_00559_DS_                        0000007E
_00563_DS_                        000000A0
_00566_DS_                        000000A8
_00569_DS_                        00000024
_00571_DS_                        0000008C
_00572_DS_                        00000090
_00573_DS_                        000000BA
_00588_DS_                        0000004C
_00603_DS_                        0000003E
_00605_DS_                        00000042
_00621_DS_                        000000DE
_00624_DS_                        00000088
_00628_DS_                        000000F2
_00632_DS_                        0000014A
_00642_DS_                        0000007E
_00643_DS_                        0000009A
_00644_DS_                        000000F0
_00645_DS_                        00000104
_00651_DS_                        0000005E
_00656_DS_                        000000A8
_00670_DS_                        0000001E
_00678_DS_                        00002054
_ADCON0                           00000000
_ADCON0bits                       00000000
_ADCON1                           00000000
_ADCON1bits                       00000000
_ADCON2                           00000000
_ADCON2bits                       00000000
_ADRESH                           00000000
_ADRESL                           00000000
_BAUDCON                          00000000
_BAUDCONbits                      00000000
_BSR                              00000000
_BSRbits                          00000000
_CCP1CON                          00000000
_CCP1CONbits                      00000000
_CCP2CON                          00000000
_CCP2CONbits                      00000000
_CCPR1H                           00000000
_CCPR1L                           00000000
_CCPR2H                           00000000
_CCPR2L                           00000000
_CMCON                            00000000
_CMCONbits                        00000000
_CVRCON                           00000000
_CVRCONbits                       00000000
_Delayms                          00000000
_Delayus                          00000000
gpasm-0.14.3 #861 (Nov  5 2012) /home/valenti   6-16-2013  19:42:02         PAGE 71


SYMBOL TABLE
  LABEL                             VALUE 

_ECCP1AS                          00000000
_ECCP1ASbits                      00000000
_ECCP1DEL                         00000000
_ECCP1DELbits                     00000000
_EEADR                            00000000
_EECON1                           00000000
_EECON1bits                       00000000
_EECON2                           00000000
_EEDATA                           00000000
_FSR0H                            00000000
_FSR0Hbits                        00000000
_FSR0L                            00000000
_FSR1H                            00000000
_FSR1Hbits                        00000000
_FSR1L                            00000000
_FSR2H                            00000000
_FSR2Hbits                        00000000
_FSR2L                            00000000
_HLVDCON                          00000000
_HLVDCONbits                      00000000
_INDF0                            00000000
_INDF1                            00000000
_INDF2                            00000000
_INTCON                           00000000
_INTCON2                          00000000
_INTCON2bits                      00000000
_INTCON3                          00000000
_INTCON3bits                      00000000
_INTCONbits                       00000000
_IPR1                             00000000
_IPR1bits                         00000000
_IPR2                             00000000
_IPR2bits                         00000000
_LATA                             00000000
_LATAbits                         00000000
_LATB                             00000000
_LATBbits                         00000000
_LATC                             00000000
_LATCbits                         00000000
_LATD                             00000000
_LATDbits                         00000000
_LATE                             00000000
_LATEbits                         00000000
_OSCCON                           00000000
_OSCCONbits                       00000000
_OSCTUNE                          00000000
_OSCTUNEbits                      00000000
_PCL                              00000000
_PCLATH                           00000000
_PCLATHbits                       00000000
_PCLATU                           00000000
_PCLATUbits                       00000000
_PIE1                             00000000
gpasm-0.14.3 #861 (Nov  5 2012) /home/valenti   6-16-2013  19:42:02         PAGE 72


SYMBOL TABLE
  LABEL                             VALUE 

_PIE1bits                         00000000
_PIE2                             00000000
_PIE2bits                         00000000
_PIR1                             00000000
_PIR1bits                         00000000
_PIR2                             00000000
_PIR2bits                         00000000
_PLUSW0                           00000000
_PLUSW1                           00000000
_PLUSW2                           00000000
_PORTA                            00000000
_PORTAbits                        00000000
_PORTB                            00000000
_PORTBbits                        00000000
_PORTC                            00000000
_PORTCbits                        00000000
_PORTD                            00000000
_PORTDbits                        00000000
_PORTE                            00000000
_PORTEbits                        00000000
_POSTDEC0                         00000000
_POSTDEC1                         00000000
_POSTDEC2                         00000000
_POSTINC0                         00000000
_POSTINC1                         00000000
_POSTINC2                         00000000
_PR2                              00000000
_PREINC0                          00000000
_PREINC1                          00000000
_PREINC2                          00000000
_PRODH                            00000000
_PRODL                            00000000
_RCON                             00000000
_RCONbits                         00000000
_RCREG                            00000000
_RCSTA                            00000000
_RCSTAbits                        00000000
_RXbuffer                         00000040
_SPBRG                            00000000
_SPBRGH                           00000000
_SPPCFG                           00000000
_SPPCFGbits                       00000000
_SPPCON                           00000000
_SPPCONbits                       00000000
_SPPDATA                          00000000
_SPPDATAbits                      00000000
_SPPEPS                           00000000
_SPPEPSbits                       00000000
_SSPADD                           00000000
_SSPBUF                           00000000
_SSPCON1                          00000000
_SSPCON1bits                      00000000
_SSPCON2                          00000000
gpasm-0.14.3 #861 (Nov  5 2012) /home/valenti   6-16-2013  19:42:02         PAGE 73


SYMBOL TABLE
  LABEL                             VALUE 

_SSPCON2bits                      00000000
_SSPSTAT                          00000000
_SSPSTATbits                      00000000
_STATUS                           00000000
_STATUSbits                       00000000
_STKPTR                           00000000
_STKPTRbits                       00000000
_ServoAttach                      00000000
_ServoDetach                      00000000
_ServoLento                       00000000
_ServoMaximumPulse                00000000
_ServoMinimumPulse                00000000
_ServoRead                        00000000
_ServoWrite                       00000000
_ServosPulseDown                  00000000
_ServosPulseUp                    00000000
_SortServoTimings                 00000000
_SortServoTimings_mascaratotal_1_1  00000000
_T0CON                            00000000
_T0CONbits                        00000000
_T1CON                            00000000
_T1CONbits                        00000000
_T2CON                            00000000
_T2CONbits                        00000000
_T3CON                            00000000
_T3CONbits                        00000000
_TABLAT                           00000000
_TBLPTRH                          00000000
_TBLPTRL                          00000000
_TBLPTRU                          00000000
_TBLPTRUbits                      00000000
_TMR0H                            00000000
_TMR0L                            00000000
_TMR1H                            00000000
_TMR1L                            00000000
_TMR2                             00000000
_TMR3H                            00000000
_TMR3L                            00000000
_TOSH                             00000000
_TOSL                             00000000
_TOSU                             00000000
_TOSUbits                         00000000
_TRISA                            00000000
_TRISAbits                        00000000
_TRISB                            00000000
_TRISBbits                        00000000
_TRISC                            00000000
_TRISCbits                        00000000
_TRISD                            00000000
_TRISDbits                        00000000
_TRISE                            00000000
_TRISEbits                        00000000
_TXBuffer                         00000000
gpasm-0.14.3 #861 (Nov  5 2012) /home/valenti   6-16-2013  19:42:02         PAGE 74


SYMBOL TABLE
  LABEL                             VALUE 

_TXREG                            00000000
_TXSTA                            00000000
_TXSTAbits                        00000000
_UADDR                            00000000
_UADDRbits                        00000000
_UCFG                             00000000
_UCFGbits                         00000000
_UCON                             00000000
_UCONbits                         00000000
_UEIE                             00000000
_UEIEbits                         00000000
_UEIR                             00000000
_UEIRbits                         00000000
_UEP0                             00000000
_UEP0bits                         00000000
_UEP1                             00000000
_UEP10                            00000000
_UEP10bits                        00000000
_UEP11                            00000000
_UEP11bits                        00000000
_UEP12                            00000000
_UEP12bits                        00000000
_UEP13                            00000000
_UEP13bits                        00000000
_UEP14                            00000000
_UEP14bits                        00000000
_UEP15                            00000000
_UEP15bits                        00000000
_UEP1bits                         00000000
_UEP2                             00000000
_UEP2bits                         00000000
_UEP3                             00000000
_UEP3bits                         00000000
_UEP4                             00000000
_UEP4bits                         00000000
_UEP5                             00000000
_UEP5bits                         00000000
_UEP6                             00000000
_UEP6bits                         00000000
_UEP7                             00000000
_UEP7bits                         00000000
_UEP8                             00000000
_UEP8bits                         00000000
_UEP9                             00000000
_UEP9bits                         00000000
_UFRMH                            00000000
_UFRMHbits                        00000000
_UFRML                            00000000
_UFRMLbits                        00000000
_UIE                              00000000
_UIEbits                          00000000
_UIR                              00000000
_UIRbits                          00000000
gpasm-0.14.3 #861 (Nov  5 2012) /home/valenti   6-16-2013  19:42:02         PAGE 75


SYMBOL TABLE
  LABEL                             VALUE 

_USTAT                            00000000
_USTATbits                        00000000
_WDTCON                           00000000
_WDTCONbits                       00000000
_WREG                             00000000
__18F4550                         00000001
_activatedservos                  00000003
_analogReference                  00000000
_analog_init                      00000000
_analogread                       00000000
_delay10ktcy                      00000000
_digitalread                      00000000
_digitalwrite                     00000000
_dispatch_usb_event               00000000
_ep2_num_bytes_to_send            00000000
_ep2_source_data                  00000000
_ep_bdt                           00000000
_epap_in                          00000000
_epap_out                         00000000
_epapin_init                      00000000
_epapout_init                     00000000
_fill_in_buffer                   00000000
_high_priority_isr                00002020
_i                                00000000
_last_send_was_null               00000000
_loop                             00000000
_loopvar                          00000000
_low_priority_isr                 00004000
_mask                             00000000
_needreordering                   00000001
_phase                            00000000
_pinguino_main                    00000000
_pinmode                          00000000
_port                             0000001E
_prepare_ep2_in                   00000000
_received_char                    00000000
_sensor                           00000000
_sensordigital                    00000000
_servomasks                       0000003C
_servos_init                      00000000
_servos_interrupt                 00000000
_servovalues                      00000000
_setup                            00000000
_tiempo                           00000006
_tiempo2                          0000000A
_timedivision                     00000002
_timingindex                      00000000
_timings                          00000000
_usb_active_alt_setting           00000000
_usb_active_cfg                   00000000
_usb_device_state                 00000000
_usbavailable                     00000000
_usbread                          00000000
gpasm-0.14.3 #861 (Nov  5 2012) /home/valenti   6-16-2013  19:42:02         PAGE 76


SYMBOL TABLE
  LABEL                             VALUE 

_usbrp                            00000000
_usbrx                            00000000
_usbsend                          00000000
_usbwp                            00000000
bucle                             00000086
r0x00                             00000000
r0x01                             00000001
r0x02                             00000002
r0x03                             00000003
r0x04                             00000004
r0x05                             00000005
r0x06                             00000006
r0x07                             00000007
r0x08                             00000008
r0x09                             00000009
r0x0a                             0000000A
r0x0b                             0000000B
r0x0c                             0000000C

Errors   :     0
Warnings :     0 reported,     0 suppressed
Messages :     0 reported,     0 suppressed

