gpasm-0.13.7 beta               /home/valentin/github/icaro-bloques/source/main.asm6-17-2012  16:18:02          PAGE  1


LOC  OBJECT CODE     LINE SOURCE TEXT
  VALUE
 
               00001 ;--------------------------------------------------------
               00002 ; File Created by SDCC : free open source ANSI-C Compiler
               00003 ; Version 2.9.0 #5416 (Aug  9 2009) (UNIX)
               00004 ; This file was generated Sun Jun 17 16:18:02 2012
               00005 ;--------------------------------------------------------
               00006 ; PIC16 port for the Microchip 16-bit core micros
               00007 ;--------------------------------------------------------
               00008         list    p=18f4550
               00009 
               00010         radix dec
               00011 
               00012 ;--------------------------------------------------------
               00013 ; public variables in this module
               00014 ;--------------------------------------------------------
               00015         global _i
               00016         global _tiempo2
               00017         global _tiempo
               00018         global _loopvar
               00019         global _phase
               00020         global _needreordering
               00021         global _timingindex
               00022         global _timedivision
               00023         global _timings
               00024         global _activatedservos
               00025         global _servovalues
               00026         global _digitalwrite
               00027         global _digitalread
               00028         global _pinmode
               00029         global _servos_init
               00030         global _ServoAttach
               00031         global _ServoDetach
               00032         global _ServoWrite
               00033         global _ServoRead
               00034         global _ServoMinimumPulse
               00035         global _ServoMaximumPulse
               00036         global _servos_interrupt
               00037         global _analog_init
               00038         global _analogread
               00039         global _Delayms
               00040         global _Delayus
               00041         global _epap_in
               00042         global _epap_out
               00043         global _epapin_init
               00044         global _epapout_init
               00045         global _setup
               00046         global _sensor
               00047         global _loop
               00048         global _pinguino_main
               00049         global _high_priority_isr
               00050         global _low_priority_isr
               00051         global _mask
               00052         global _port
               00053         global _servomasks
               00054 
gpasm-0.13.7 beta               /home/valentin/github/icaro-bloques/source/main.asm6-17-2012  16:18:02          PAGE  2


LOC  OBJECT CODE     LINE SOURCE TEXT
  VALUE
 
               00055 ;--------------------------------------------------------
               00056 ; extern variables in this module
               00057 ;--------------------------------------------------------
               00058         extern _SPPDATAbits
               00059         extern _SPPCFGbits
               00060         extern _SPPEPSbits
               00061         extern _SPPCONbits
               00062         extern _UFRMLbits
               00063         extern _UFRMHbits
               00064         extern _UIRbits
               00065         extern _UIEbits
               00066         extern _UEIRbits
               00067         extern _UEIEbits
               00068         extern _USTATbits
               00069         extern _UCONbits
               00070         extern _UADDRbits
               00071         extern _UCFGbits
               00072         extern _UEP0bits
               00073         extern _UEP1bits
               00074         extern _UEP2bits
               00075         extern _UEP3bits
               00076         extern _UEP4bits
               00077         extern _UEP5bits
               00078         extern _UEP6bits
               00079         extern _UEP7bits
               00080         extern _UEP8bits
               00081         extern _UEP9bits
               00082         extern _UEP10bits
               00083         extern _UEP11bits
               00084         extern _UEP12bits
               00085         extern _UEP13bits
               00086         extern _UEP14bits
               00087         extern _UEP15bits
               00088         extern _PORTAbits
               00089         extern _PORTBbits
               00090         extern _PORTCbits
               00091         extern _PORTDbits
               00092         extern _PORTEbits
               00093         extern _LATAbits
               00094         extern _LATBbits
               00095         extern _LATCbits
               00096         extern _LATDbits
               00097         extern _LATEbits
               00098         extern _TRISAbits
               00099         extern _TRISBbits
               00100         extern _TRISCbits
               00101         extern _TRISDbits
               00102         extern _TRISEbits
               00103         extern _OSCTUNEbits
               00104         extern _PIE1bits
               00105         extern _PIR1bits
               00106         extern _IPR1bits
               00107         extern _PIE2bits
               00108         extern _PIR2bits
gpasm-0.13.7 beta               /home/valentin/github/icaro-bloques/source/main.asm6-17-2012  16:18:02          PAGE  3


LOC  OBJECT CODE     LINE SOURCE TEXT
  VALUE
 
               00109         extern _IPR2bits
               00110         extern _EECON1bits
               00111         extern _RCSTAbits
               00112         extern _TXSTAbits
               00113         extern _T3CONbits
               00114         extern _CMCONbits
               00115         extern _CVRCONbits
               00116         extern _ECCP1ASbits
               00117         extern _ECCP1DELbits
               00118         extern _BAUDCONbits
               00119         extern _CCP2CONbits
               00120         extern _CCP1CONbits
               00121         extern _ADCON2bits
               00122         extern _ADCON1bits
               00123         extern _ADCON0bits
               00124         extern _SSPCON2bits
               00125         extern _SSPCON1bits
               00126         extern _SSPSTATbits
               00127         extern _T2CONbits
               00128         extern _T1CONbits
               00129         extern _RCONbits
               00130         extern _WDTCONbits
               00131         extern _HLVDCONbits
               00132         extern _OSCCONbits
               00133         extern _T0CONbits
               00134         extern _STATUSbits
               00135         extern _FSR2Hbits
               00136         extern _BSRbits
               00137         extern _FSR1Hbits
               00138         extern _FSR0Hbits
               00139         extern _INTCON3bits
               00140         extern _INTCON2bits
               00141         extern _INTCONbits
               00142         extern _TBLPTRUbits
               00143         extern _PCLATHbits
               00144         extern _PCLATUbits
               00145         extern _STKPTRbits
               00146         extern _TOSUbits
               00147         extern _usb_device_state
               00148         extern _usb_active_cfg
               00149         extern _usb_active_alt_setting
               00150         extern _SPPDATA
               00151         extern _SPPCFG
               00152         extern _SPPEPS
               00153         extern _SPPCON
               00154         extern _UFRML
               00155         extern _UFRMH
               00156         extern _UIR
               00157         extern _UIE
               00158         extern _UEIR
               00159         extern _UEIE
               00160         extern _USTAT
               00161         extern _UCON
               00162         extern _UADDR
gpasm-0.13.7 beta               /home/valentin/github/icaro-bloques/source/main.asm6-17-2012  16:18:02          PAGE  4


LOC  OBJECT CODE     LINE SOURCE TEXT
  VALUE
 
               00163         extern _UCFG
               00164         extern _UEP0
               00165         extern _UEP1
               00166         extern _UEP2
               00167         extern _UEP3
               00168         extern _UEP4
               00169         extern _UEP5
               00170         extern _UEP6
               00171         extern _UEP7
               00172         extern _UEP8
               00173         extern _UEP9
               00174         extern _UEP10
               00175         extern _UEP11
               00176         extern _UEP12
               00177         extern _UEP13
               00178         extern _UEP14
               00179         extern _UEP15
               00180         extern _PORTA
               00181         extern _PORTB
               00182         extern _PORTC
               00183         extern _PORTD
               00184         extern _PORTE
               00185         extern _LATA
               00186         extern _LATB
               00187         extern _LATC
               00188         extern _LATD
               00189         extern _LATE
               00190         extern _TRISA
               00191         extern _TRISB
               00192         extern _TRISC
               00193         extern _TRISD
               00194         extern _TRISE
               00195         extern _OSCTUNE
               00196         extern _PIE1
               00197         extern _PIR1
               00198         extern _IPR1
               00199         extern _PIE2
               00200         extern _PIR2
               00201         extern _IPR2
               00202         extern _EECON1
               00203         extern _EECON2
               00204         extern _EEDATA
               00205         extern _EEADR
               00206         extern _RCSTA
               00207         extern _TXSTA
               00208         extern _TXREG
               00209         extern _RCREG
               00210         extern _SPBRG
               00211         extern _SPBRGH
               00212         extern _T3CON
               00213         extern _TMR3L
               00214         extern _TMR3H
               00215         extern _CMCON
               00216         extern _CVRCON
gpasm-0.13.7 beta               /home/valentin/github/icaro-bloques/source/main.asm6-17-2012  16:18:02          PAGE  5


LOC  OBJECT CODE     LINE SOURCE TEXT
  VALUE
 
               00217         extern _ECCP1AS
               00218         extern _ECCP1DEL
               00219         extern _BAUDCON
               00220         extern _CCP2CON
               00221         extern _CCPR2L
               00222         extern _CCPR2H
               00223         extern _CCP1CON
               00224         extern _CCPR1L
               00225         extern _CCPR1H
               00226         extern _ADCON2
               00227         extern _ADCON1
               00228         extern _ADCON0
               00229         extern _ADRESL
               00230         extern _ADRESH
               00231         extern _SSPCON2
               00232         extern _SSPCON1
               00233         extern _SSPSTAT
               00234         extern _SSPADD
               00235         extern _SSPBUF
               00236         extern _T2CON
               00237         extern _PR2
               00238         extern _TMR2
               00239         extern _T1CON
               00240         extern _TMR1L
               00241         extern _TMR1H
               00242         extern _RCON
               00243         extern _WDTCON
               00244         extern _HLVDCON
               00245         extern _OSCCON
               00246         extern _T0CON
               00247         extern _TMR0L
               00248         extern _TMR0H
               00249         extern _STATUS
               00250         extern _FSR2L
               00251         extern _FSR2H
               00252         extern _PLUSW2
               00253         extern _PREINC2
               00254         extern _POSTDEC2
               00255         extern _POSTINC2
               00256         extern _INDF2
               00257         extern _BSR
               00258         extern _FSR1L
               00259         extern _FSR1H
               00260         extern _PLUSW1
               00261         extern _PREINC1
               00262         extern _POSTDEC1
               00263         extern _POSTINC1
               00264         extern _INDF1
               00265         extern _WREG
               00266         extern _FSR0L
               00267         extern _FSR0H
               00268         extern _PLUSW0
               00269         extern _PREINC0
               00270         extern _POSTDEC0
gpasm-0.13.7 beta               /home/valentin/github/icaro-bloques/source/main.asm6-17-2012  16:18:02          PAGE  6


LOC  OBJECT CODE     LINE SOURCE TEXT
  VALUE
 
               00271         extern _POSTINC0
               00272         extern _INDF0
               00273         extern _INTCON3
               00274         extern _INTCON2
               00275         extern _INTCON
               00276         extern _PRODL
               00277         extern _PRODH
               00278         extern _TABLAT
               00279         extern _TBLPTRL
               00280         extern _TBLPTRH
               00281         extern _TBLPTRU
               00282         extern _PCL
               00283         extern _PCLATH
               00284         extern _PCLATU
               00285         extern _STKPTR
               00286         extern _TOSL
               00287         extern _TOSH
               00288         extern _TOSU
               00289         extern _delay10ktcy
               00290 ;--------------------------------------------------------
               00291 ;       Equates to used internal registers
               00292 ;--------------------------------------------------------
  00000FD8     00293 STATUS  equ     0xfd8
  00000FF9     00294 PCL     equ     0xff9
  00000FFA     00295 PCLATH  equ     0xffa
  00000FFB     00296 PCLATU  equ     0xffb
  00000FE8     00297 WREG    equ     0xfe8
  00000FE0     00298 BSR     equ     0xfe0
  00000FF6     00299 TBLPTRL equ     0xff6
  00000FF7     00300 TBLPTRH equ     0xff7
  00000FF8     00301 TBLPTRU equ     0xff8
  00000FF5     00302 TABLAT  equ     0xff5
  00000FE9     00303 FSR0L   equ     0xfe9
  00000FEA     00304 FSR0H   equ     0xfea
  00000FE1     00305 FSR1L   equ     0xfe1
  00000FD9     00306 FSR2L   equ     0xfd9
  00000FEF     00307 INDF0   equ     0xfef
  00000FE5     00308 POSTDEC1        equ     0xfe5
  00000FE4     00309 PREINC1 equ     0xfe4
  00000FDB     00310 PLUSW2  equ     0xfdb
  00000FF3     00311 PRODL   equ     0xff3
  00000FF4     00312 PRODH   equ     0xff4
               00313 
               00314 
               00315         idata
               00316 _phase  db      0x00
               00317 _needreordering db      0x00
               00318 _timedivision   db      0x00
               00319 _activatedservos        db      0x00, 0x00, 0x00
               00320 _tiempo db      0x00, 0x00, 0x00, 0x00
               00321 _tiempo2        db      0x00, 0x00, 0x00, 0x00
               00322 
               00323 
               00324 ; Internal registers
gpasm-0.13.7 beta               /home/valentin/github/icaro-bloques/source/main.asm6-17-2012  16:18:02          PAGE  7


LOC  OBJECT CODE     LINE SOURCE TEXT
  VALUE
 
               00325 .registers      udata_ovr       0x0000
               00326 r0x00   res     1
               00327 r0x01   res     1
               00328 r0x02   res     1
               00329 r0x03   res     1
               00330 r0x04   res     1
               00331 r0x05   res     1
               00332 r0x06   res     1
               00333 r0x07   res     1
               00334 r0x08   res     1
               00335 r0x09   res     1
               00336 
               00337 udata_main_0    udata
               00338 _loopvar        res     1
               00339 
               00340 udata_main_1    udata
               00341 _i      res     1
               00342 
               00343 udata_main_2    udata
               00344 _servovalues    res     18
               00345 
               00346 udata_main_3    udata
               00347 _timingindex    res     1
               00348 
               00349 udata_main_4    udata
               00350 _timings        res     72
               00351 
               00352 udata_main_5    udata
               00353 _SortServoTimings_mascaratotal_1_1      res     3
               00354 
               00355 ;--------------------------------------------------------
               00356 ; global & static initialisations
               00357 ;--------------------------------------------------------
               00358 ; ; Starting pCode block
               00359 S_main__high_priority_isr       code    0X002020
2020 00360 _high_priority_isr:
               00361 ;       .line   96; /home/valentin/github/icaro-bloques/source/main.c   void high_priority_isr(void) interrupt
2020 CFE8 FFE5 00362         MOVFF   WREG, POSTDEC1
2024 CFD8 FFE5 00363         MOVFF   STATUS, POSTDEC1
2028 CFE0 FFE5 00364         MOVFF   BSR, POSTDEC1
202C CFF3 FFE5 00365         MOVFF   PRODL, POSTDEC1
2030 CFF4 FFE5 00366         MOVFF   PRODH, POSTDEC1
2034 CFE9 FFE5 00367         MOVFF   FSR0L, POSTDEC1
2038 CFEA FFE5 00368         MOVFF   FSR0H, POSTDEC1
203C CFFA FFE5 00369         MOVFF   PCLATH, POSTDEC1
2040 CFFB FFE5 00370         MOVFF   PCLATU, POSTDEC1
               00371 ;       .line   132; /home/valentin/github/icaro-bloques/source/main.c  servos_interrupt();
2044 EC00 F000 00372         CALL    _servos_interrupt
2048 CFE4 FFFB 00373         MOVFF   PREINC1, PCLATU
204C CFE4 FFFA 00374         MOVFF   PREINC1, PCLATH
2050 CFE4 FFEA 00375         MOVFF   PREINC1, FSR0H
2054 CFE4 FFE9 00376         MOVFF   PREINC1, FSR0L
2058 CFE4 FFF4 00377         MOVFF   PREINC1, PRODH
205C CFE4 FFF3 00378         MOVFF   PREINC1, PRODL
gpasm-0.13.7 beta               /home/valentin/github/icaro-bloques/source/main.asm6-17-2012  16:18:02          PAGE  8


LOC  OBJECT CODE     LINE SOURCE TEXT
  VALUE
 
2060 CFE4 FFE0 00379         MOVFF   PREINC1, BSR
2064 CFE4 FFD8 00380         MOVFF   PREINC1, STATUS
2068 CFE4 FFE8 00381         MOVFF   PREINC1, WREG
206C 0010      00382         RETFIE  
               00383 
               00384 ; ; Starting pCode block
               00385 S_main__low_priority_isr        code    0X004000
4000 00386 _low_priority_isr:
               00387 ;       .line   140; /home/valentin/github/icaro-bloques/source/main.c  void low_priority_isr(void) interrupt
4000 CFE8 FFE5 00388         MOVFF   WREG, POSTDEC1
4004 CFD8 FFE5 00389         MOVFF   STATUS, POSTDEC1
4008 CFE0 FFE5 00390         MOVFF   BSR, POSTDEC1
400C CFF3 FFE5 00391         MOVFF   PRODL, POSTDEC1
4010 CFF4 FFE5 00392         MOVFF   PRODH, POSTDEC1
4014 CFE9 FFE5 00393         MOVFF   FSR0L, POSTDEC1
4018 CFEA FFE5 00394         MOVFF   FSR0H, POSTDEC1
401C CFFA FFE5 00395         MOVFF   PCLATH, POSTDEC1
4020 CFFB FFE5 00396         MOVFF   PCLATU, POSTDEC1
               00397 ;       .line   142; /home/valentin/github/icaro-bloques/source/main.c  }
4024 CFE4 FFFB 00398         MOVFF   PREINC1, PCLATU
4028 CFE4 FFFA 00399         MOVFF   PREINC1, PCLATH
402C CFE4 FFEA 00400         MOVFF   PREINC1, FSR0H
4030 CFE4 FFE9 00401         MOVFF   PREINC1, FSR0L
4034 CFE4 FFF4 00402         MOVFF   PREINC1, PRODH
4038 CFE4 FFF3 00403         MOVFF   PREINC1, PRODL
403C CFE4 FFE0 00404         MOVFF   PREINC1, BSR
4040 CFE4 FFD8 00405         MOVFF   PREINC1, STATUS
4044 CFE4 FFE8 00406         MOVFF   PREINC1, WREG
4048 0010      00407         RETFIE  
               00408 
               00409 ; I code from now on!
               00410 ; ; Starting pCode block
               00411 S_main__pinguino_main   code
0000 00412 _pinguino_main:
               00413 ;       .line   52; /home/valentin/github/icaro-bloques/source/main.c   PIE1=0;
0000 6A00      00414         CLRF    _PIE1
               00415 ;       .line   53; /home/valentin/github/icaro-bloques/source/main.c   PIE2=0;
0002 6A00      00416         CLRF    _PIE2
               00417 ;       .line   54; /home/valentin/github/icaro-bloques/source/main.c   ADCON1=0x0F;
0004 0E0F      00418         MOVLW   0x0f
0006 6E00      00419         MOVWF   _ADCON1
               00420 ;       .line   59; /home/valentin/github/icaro-bloques/source/main.c   setup();
0008 EC00 F000 00421         CALL    _setup
               00422 ;       .line   61; /home/valentin/github/icaro-bloques/source/main.c   analog_init();
000C EC00 F000 00423         CALL    _analog_init
               00424 ;       .line   67; /home/valentin/github/icaro-bloques/source/main.c   servos_init();
0010 EC00 F000 00425         CALL    _servos_init
               00426 ;       .line   83; /home/valentin/github/icaro-bloques/source/main.c   INTCONbits.PEIE=1;
0014 8C00      00427         BSF     _INTCONbits, 6
               00428 ;       .line   84; /home/valentin/github/icaro-bloques/source/main.c   INTCONbits.GIE=1;
0016 8E00      00429         BSF     _INTCONbits, 7
0018 00430 _00515_DS_:
               00431 ;       .line   89; /home/valentin/github/icaro-bloques/source/main.c   loop();
0018 EC00 F000 00432         CALL    _loop
gpasm-0.13.7 beta               /home/valentin/github/icaro-bloques/source/main.asm6-17-2012  16:18:02          PAGE  9


LOC  OBJECT CODE     LINE SOURCE TEXT
  VALUE
 
001C D000      00433         BRA     _00515_DS_
001E 0012      00434         RETURN  
               00435 
               00436 ; ; Starting pCode block
               00437 S_main__loop    code
0000 00438 _loop:
               00439 ;       .line   85; /home/valentin/github/icaro-bloques/source/user.c   PORTD=0;
0000 6A00      00440         CLRF    _PORTD
               00441 ;       .line   86; /home/valentin/github/icaro-bloques/source/user.c   PORTD=889;
0002 0E79      00442         MOVLW   0x79
0004 6E00      00443         MOVWF   _PORTD
0006 0012      00444         RETURN  
               00445 
               00446 ; ; Starting pCode block
               00447 S_main__sensor  code
0000 00448 _sensor:
               00449 ;       .line   61; /home/valentin/github/icaro-bloques/source/user.c   unsigned int sensor(int valor)
0000 CFD9 FFE5 00450         MOVFF   FSR2L, POSTDEC1
0004 CFE1 FFD9 00451         MOVFF   FSR1L, FSR2L
0008 C000 FFE5 00452         MOVFF   r0x00, POSTDEC1
000C C000 FFE5 00453         MOVFF   r0x01, POSTDEC1
0010 0E02      00454         MOVLW   0x02
0012 CFDB F000 00455         MOVFF   PLUSW2, r0x00
0016 0E03      00456         MOVLW   0x03
0018 CFDB F000 00457         MOVFF   PLUSW2, r0x01
               00458 ;       .line   67; /home/valentin/github/icaro-bloques/source/user.c   an=analogread(valor);
001C 5000      00459         MOVF    r0x00, W
001E 6EE5      00460         MOVWF   POSTDEC1
0020 EC00 F000 00461         CALL    _analogread
0024 CFF3 F000 00462         MOVFF   PRODL, r0x01
0028 2AE1      00463         INCF    FSR1L, F
               00464 ;       .line   69; /home/valentin/github/icaro-bloques/source/user.c   return an;
002A C000 FFF3 00465         MOVFF   r0x01, PRODL
002E CFE4 F000 00466         MOVFF   PREINC1, r0x01
0032 CFE4 F000 00467         MOVFF   PREINC1, r0x00
0036 CFE4 FFD9 00468         MOVFF   PREINC1, FSR2L
003A 0012      00469         RETURN  
               00470 
               00471 ; ; Starting pCode block
               00472 S_main__setup   code
0000 00473 _setup:
               00474 ;       .line   25; /home/valentin/github/icaro-bloques/source/user.c   TRISB=0;
0000 6A00      00475         CLRF    _TRISB
               00476 ;       .line   27; /home/valentin/github/icaro-bloques/source/user.c   pinmode(15,INPUT);
0002 6AE5      00477         CLRF    POSTDEC1
0004 0E01      00478         MOVLW   0x01
0006 6EE5      00479         MOVWF   POSTDEC1
0008 6AE5      00480         CLRF    POSTDEC1
000A 0E0F      00481         MOVLW   0x0f
000C 6EE5      00482         MOVWF   POSTDEC1
000E EC00 F000 00483         CALL    _pinmode
0012 0E04      00484         MOVLW   0x04
0014 26E1      00485         ADDWF   FSR1L, F
               00486 ;       .line   29; /home/valentin/github/icaro-bloques/source/user.c   pinmode(21,INPUT);
gpasm-0.13.7 beta               /home/valentin/github/icaro-bloques/source/main.asm6-17-2012  16:18:02          PAGE 10


LOC  OBJECT CODE     LINE SOURCE TEXT
  VALUE
 
0016 6AE5      00487         CLRF    POSTDEC1
0018 0E01      00488         MOVLW   0x01
001A 6EE5      00489         MOVWF   POSTDEC1
001C 6AE5      00490         CLRF    POSTDEC1
001E 0E15      00491         MOVLW   0x15
0020 6EE5      00492         MOVWF   POSTDEC1
0022 EC00 F000 00493         CALL    _pinmode
0026 0E04      00494         MOVLW   0x04
0028 26E1      00495         ADDWF   FSR1L, F
               00496 ;       .line   31; /home/valentin/github/icaro-bloques/source/user.c   pinmode(22,INPUT);
002A 6AE5      00497         CLRF    POSTDEC1
002C 0E01      00498         MOVLW   0x01
002E 6EE5      00499         MOVWF   POSTDEC1
0030 6AE5      00500         CLRF    POSTDEC1
0032 0E16      00501         MOVLW   0x16
0034 6EE5      00502         MOVWF   POSTDEC1
0036 EC00 F000 00503         CALL    _pinmode
003A 0E04      00504         MOVLW   0x04
003C 26E1      00505         ADDWF   FSR1L, F
               00506 ;       .line   33; /home/valentin/github/icaro-bloques/source/user.c   pinmode(23,INPUT);
003E 6AE5      00507         CLRF    POSTDEC1
0040 0E01      00508         MOVLW   0x01
0042 6EE5      00509         MOVWF   POSTDEC1
0044 6AE5      00510         CLRF    POSTDEC1
0046 0E17      00511         MOVLW   0x17
0048 6EE5      00512         MOVWF   POSTDEC1
004A EC00 F000 00513         CALL    _pinmode
004E 0E04      00514         MOVLW   0x04
0050 26E1      00515         ADDWF   FSR1L, F
               00516 ;       .line   35; /home/valentin/github/icaro-bloques/source/user.c   pinmode(24,INPUT);
0052 6AE5      00517         CLRF    POSTDEC1
0054 0E01      00518         MOVLW   0x01
0056 6EE5      00519         MOVWF   POSTDEC1
0058 6AE5      00520         CLRF    POSTDEC1
005A 0E18      00521         MOVLW   0x18
005C 6EE5      00522         MOVWF   POSTDEC1
005E EC00 F000 00523         CALL    _pinmode
0062 0E04      00524         MOVLW   0x04
0064 26E1      00525         ADDWF   FSR1L, F
               00526 ;       .line   37; /home/valentin/github/icaro-bloques/source/user.c   pinmode(25,OUTPUT);
0066 6AE5      00527         CLRF    POSTDEC1
0068 6AE5      00528         CLRF    POSTDEC1
006A 6AE5      00529         CLRF    POSTDEC1
006C 0E19      00530         MOVLW   0x19
006E 6EE5      00531         MOVWF   POSTDEC1
0070 EC00 F000 00532         CALL    _pinmode
0074 0E04      00533         MOVLW   0x04
0076 26E1      00534         ADDWF   FSR1L, F
               00535 ;       .line   39; /home/valentin/github/icaro-bloques/source/user.c   pinmode(26,OUTPUT);
0078 6AE5      00536         CLRF    POSTDEC1
007A 6AE5      00537         CLRF    POSTDEC1
007C 6AE5      00538         CLRF    POSTDEC1
007E 0E1A      00539         MOVLW   0x1a
0080 6EE5      00540         MOVWF   POSTDEC1
gpasm-0.13.7 beta               /home/valentin/github/icaro-bloques/source/main.asm6-17-2012  16:18:02          PAGE 11


LOC  OBJECT CODE     LINE SOURCE TEXT
  VALUE
 
0082 EC00 F000 00541         CALL    _pinmode
0086 0E04      00542         MOVLW   0x04
0088 26E1      00543         ADDWF   FSR1L, F
               00544 ;       .line   41; /home/valentin/github/icaro-bloques/source/user.c   pinmode(27,OUTPUT);
008A 6AE5      00545         CLRF    POSTDEC1
008C 6AE5      00546         CLRF    POSTDEC1
008E 6AE5      00547         CLRF    POSTDEC1
0090 0E1B      00548         MOVLW   0x1b
0092 6EE5      00549         MOVWF   POSTDEC1
0094 EC00 F000 00550         CALL    _pinmode
0098 0E04      00551         MOVLW   0x04
009A 26E1      00552         ADDWF   FSR1L, F
               00553 ;       .line   43; /home/valentin/github/icaro-bloques/source/user.c   pinmode(28,OUTPUT);
009C 6AE5      00554         CLRF    POSTDEC1
009E 6AE5      00555         CLRF    POSTDEC1
00A0 6AE5      00556         CLRF    POSTDEC1
00A2 0E1C      00557         MOVLW   0x1c
00A4 6EE5      00558         MOVWF   POSTDEC1
00A6 EC00 F000 00559         CALL    _pinmode
00AA 0E04      00560         MOVLW   0x04
00AC 26E1      00561         ADDWF   FSR1L, F
               00562 ;       .line   45; /home/valentin/github/icaro-bloques/source/user.c   ServoAttach(10);
00AE 0E0A      00563         MOVLW   0x0a
00B0 6EE5      00564         MOVWF   POSTDEC1
00B2 EC00 F000 00565         CALL    _ServoAttach
00B6 2AE1      00566         INCF    FSR1L, F
               00567 ;       .line   47; /home/valentin/github/icaro-bloques/source/user.c   ServoAttach(11);
00B8 0E0B      00568         MOVLW   0x0b
00BA 6EE5      00569         MOVWF   POSTDEC1
00BC EC00 F000 00570         CALL    _ServoAttach
00C0 2AE1      00571         INCF    FSR1L, F
               00572 ;       .line   49; /home/valentin/github/icaro-bloques/source/user.c   ServoAttach(12);
00C2 0E0C      00573         MOVLW   0x0c
00C4 6EE5      00574         MOVWF   POSTDEC1
00C6 EC00 F000 00575         CALL    _ServoAttach
00CA 2AE1      00576         INCF    FSR1L, F
               00577 ;       .line   51; /home/valentin/github/icaro-bloques/source/user.c   ServoAttach(8);
00CC 0E08      00578         MOVLW   0x08
00CE 6EE5      00579         MOVWF   POSTDEC1
00D0 EC00 F000 00580         CALL    _ServoAttach
00D4 2AE1      00581         INCF    FSR1L, F
               00582 ;       .line   53; /home/valentin/github/icaro-bloques/source/user.c   ServoAttach(9);
00D6 0E09      00583         MOVLW   0x09
00D8 6EE5      00584         MOVWF   POSTDEC1
00DA EC00 F000 00585         CALL    _ServoAttach
00DE 2AE1      00586         INCF    FSR1L, F
00E0 0012      00587         RETURN  
               00588 
               00589 ; ; Starting pCode block
               00590 S_main__epapout_init    code
0000 00591 _epapout_init:
               00592 ;       .line   40; /home/valentin/github/icaro-bloques/source/main.c   void epapout_init() { return; }
0000 0012      00593         RETURN  
               00594 
gpasm-0.13.7 beta               /home/valentin/github/icaro-bloques/source/main.asm6-17-2012  16:18:02          PAGE 12


LOC  OBJECT CODE     LINE SOURCE TEXT
  VALUE
 
               00595 ; ; Starting pCode block
               00596 S_main__epapin_init     code
0000 00597 _epapin_init:
               00598 ;       .line   39; /home/valentin/github/icaro-bloques/source/main.c   void epapin_init() { return; }
0000 0012      00599         RETURN  
               00600 
               00601 ; ; Starting pCode block
               00602 S_main__epap_out        code
0000 00603 _epap_out:
               00604 ;       .line   38; /home/valentin/github/icaro-bloques/source/main.c   void epap_out() { return; }
0000 0012      00605         RETURN  
               00606 
               00607 ; ; Starting pCode block
               00608 S_main__epap_in code
0000 00609 _epap_in:
               00610 ;       .line   37; /home/valentin/github/icaro-bloques/source/main.c   void epap_in() { return; }
0000 0012      00611         RETURN  
               00612 
               00613 ; ; Starting pCode block
               00614 S_main__Delayus code
0000 00615 _Delayus:
               00616 ;       .line   16; /home/valentin/github/icaro-bloques/tools/bin/../share/sdcc/include/pic16/arduinodelay.c    void Delayus(int microsecondes)
0000 CFD9 FFE5 00617         MOVFF   FSR2L, POSTDEC1
0004 CFE1 FFD9 00618         MOVFF   FSR1L, FSR2L
0008 C000 FFE5 00619         MOVFF   r0x00, POSTDEC1
000C C000 FFE5 00620         MOVFF   r0x01, POSTDEC1
0010 C000 FFE5 00621         MOVFF   r0x02, POSTDEC1
0014 C000 FFE5 00622         MOVFF   r0x03, POSTDEC1
0018 0E02      00623         MOVLW   0x02
001A CFDB F000 00624         MOVFF   PLUSW2, r0x00
001E 0E03      00625         MOVLW   0x03
0020 CFDB F000 00626         MOVFF   PLUSW2, r0x01
               00627 ;       .line   20; /home/valentin/github/icaro-bloques/tools/bin/../share/sdcc/include/pic16/arduinodelay.c    for (i=0;i<microsecondes;i++);
0024 6A00      00628         CLRF    r0x02
0026 6A00      00629         CLRF    r0x03
0028 00630 _00465_DS_:
0028 5000      00631         MOVF    r0x01, W
002A 5C00      00632         SUBWF   r0x03, W
002C E100      00633         BNZ     _00474_DS_
002E 5000      00634         MOVF    r0x00, W
0030 5C00      00635         SUBWF   r0x02, W
0032 00636 _00474_DS_:
0032 E200      00637         BC      _00469_DS_
0034 2A00      00638         INCF    r0x02, F
0036 B0D8      00639         BTFSC   STATUS, 0
0038 2A00      00640         INCF    r0x03, F
003A D000      00641         BRA     _00465_DS_
003C 00642 _00469_DS_:
003C CFE4 F000 00643         MOVFF   PREINC1, r0x03
0040 CFE4 F000 00644         MOVFF   PREINC1, r0x02
0044 CFE4 F000 00645         MOVFF   PREINC1, r0x01
0048 CFE4 F000 00646         MOVFF   PREINC1, r0x00
004C CFE4 FFD9 00647         MOVFF   PREINC1, FSR2L
0050 0012      00648         RETURN  
gpasm-0.13.7 beta               /home/valentin/github/icaro-bloques/source/main.asm6-17-2012  16:18:02          PAGE 13


LOC  OBJECT CODE     LINE SOURCE TEXT
  VALUE
 
               00649 
               00650 ; ; Starting pCode block
               00651 S_main__Delayms code
0000 00652 _Delayms:
               00653 ;       .line   9; /home/valentin/github/icaro-bloques/tools/bin/../share/sdcc/include/pic16/arduinodelay.c     void Delayms(unsigned long milliseconde)
0000 CFD9 FFE5 00654         MOVFF   FSR2L, POSTDEC1
0004 CFE1 FFD9 00655         MOVFF   FSR1L, FSR2L
0008 C000 FFE5 00656         MOVFF   r0x00, POSTDEC1
000C C000 FFE5 00657         MOVFF   r0x01, POSTDEC1
0010 C000 FFE5 00658         MOVFF   r0x02, POSTDEC1
0014 C000 FFE5 00659         MOVFF   r0x03, POSTDEC1
0018 C000 FFE5 00660         MOVFF   r0x04, POSTDEC1
001C C000 FFE5 00661         MOVFF   r0x05, POSTDEC1
0020 C000 FFE5 00662         MOVFF   r0x06, POSTDEC1
0024 C000 FFE5 00663         MOVFF   r0x07, POSTDEC1
0028 0E02      00664         MOVLW   0x02
002A CFDB F000 00665         MOVFF   PLUSW2, r0x00
002E 0E03      00666         MOVLW   0x03
0030 CFDB F000 00667         MOVFF   PLUSW2, r0x01
0034 0E04      00668         MOVLW   0x04
0036 CFDB F000 00669         MOVFF   PLUSW2, r0x02
003A 0E05      00670         MOVLW   0x05
003C CFDB F000 00671         MOVFF   PLUSW2, r0x03
               00672 ;       .line   13; /home/valentin/github/icaro-bloques/tools/bin/../share/sdcc/include/pic16/arduinodelay.c    for (i=0;i<milliseconde;i++) delay10ktcy(1);
0040 6A00      00673         CLRF    r0x04
0042 6A00      00674         CLRF    r0x05
0044 6A00      00675         CLRF    r0x06
0046 6A00      00676         CLRF    r0x07
0048 00677 _00451_DS_:
0048 5000      00678         MOVF    r0x03, W
004A 5C00      00679         SUBWF   r0x07, W
004C E100      00680         BNZ     _00460_DS_
004E 5000      00681         MOVF    r0x02, W
0050 5C00      00682         SUBWF   r0x06, W
0052 E100      00683         BNZ     _00460_DS_
0054 5000      00684         MOVF    r0x01, W
0056 5C00      00685         SUBWF   r0x05, W
0058 E100      00686         BNZ     _00460_DS_
005A 5000      00687         MOVF    r0x00, W
005C 5C00      00688         SUBWF   r0x04, W
005E 00689 _00460_DS_:
005E E200      00690         BC      _00455_DS_
0060 0E01      00691         MOVLW   0x01
0062 EC00 F000 00692         CALL    _delay10ktcy
0066 2A00      00693         INCF    r0x04, F
0068 B0D8      00694         BTFSC   STATUS, 0
006A 2A00      00695         INCF    r0x05, F
006C B0D8      00696         BTFSC   STATUS, 0
006E 2A00      00697         INCF    r0x06, F
0070 B0D8      00698         BTFSC   STATUS, 0
0072 2A00      00699         INCF    r0x07, F
0074 D000      00700         BRA     _00451_DS_
0076 00701 _00455_DS_:
0076 CFE4 F000 00702         MOVFF   PREINC1, r0x07
gpasm-0.13.7 beta               /home/valentin/github/icaro-bloques/source/main.asm6-17-2012  16:18:02          PAGE 14


LOC  OBJECT CODE     LINE SOURCE TEXT
  VALUE
 
007A CFE4 F000 00703         MOVFF   PREINC1, r0x06
007E CFE4 F000 00704         MOVFF   PREINC1, r0x05
0082 CFE4 F000 00705         MOVFF   PREINC1, r0x04
0086 CFE4 F000 00706         MOVFF   PREINC1, r0x03
008A CFE4 F000 00707         MOVFF   PREINC1, r0x02
008E CFE4 F000 00708         MOVFF   PREINC1, r0x01
0092 CFE4 F000 00709         MOVFF   PREINC1, r0x00
0096 CFE4 FFD9 00710         MOVFF   PREINC1, FSR2L
009A 0012      00711         RETURN  
               00712 
               00713 ; ; Starting pCode block
               00714 S_main__analogread      code
0000 00715 _analogread:
               00716 ;       .line   24; /home/valentin/github/icaro-bloques/tools/bin/../share/sdcc/include/pic16/analog.c  unsigned int analogread(unsigned char channel)
0000 CFD9 FFE5 00717         MOVFF   FSR2L, POSTDEC1
0004 CFE1 FFD9 00718         MOVFF   FSR1L, FSR2L
0008 C000 FFE5 00719         MOVFF   r0x00, POSTDEC1
000C C000 FFE5 00720         MOVFF   r0x01, POSTDEC1
0010 C000 FFE5 00721         MOVFF   r0x02, POSTDEC1
0014 C000 FFE5 00722         MOVFF   r0x03, POSTDEC1
0018 0E02      00723         MOVLW   0x02
001A CFDB F000 00724         MOVFF   PLUSW2, r0x00
               00725 ;       .line   28; /home/valentin/github/icaro-bloques/tools/bin/../share/sdcc/include/pic16/analog.c  ADCON1=0x0A;
001E 0E0A      00726         MOVLW   0x0a
0020 6E00      00727         MOVWF   _ADCON1
               00728 ;       .line   29; /home/valentin/github/icaro-bloques/tools/bin/../share/sdcc/include/pic16/analog.c  ADCON0=(channel-13)*4;
0022 0EF3      00729         MOVLW   0xf3
0024 2600      00730         ADDWF   r0x00, F
               00731 ; ;multiply lit val:0x04 by variable r0x00 and store in _ADCON0
               00732 ; ;Unrolled 8 X 8 multiplication
               00733 ; ;FIXME: the function does not support result==WREG
0026 5000      00734         MOVF    r0x00, W
0028 0D04      00735         MULLW   0x04
002A CFF3 F000 00736         MOVFF   PRODL, _ADCON0
               00737 ;       .line   30; /home/valentin/github/icaro-bloques/tools/bin/../share/sdcc/include/pic16/analog.c  ADCON2=0xBD;
002E 0EBD      00738         MOVLW   0xbd
0030 6E00      00739         MOVWF   _ADCON2
               00740 ;       .line   31; /home/valentin/github/icaro-bloques/tools/bin/../share/sdcc/include/pic16/analog.c  ADCON0bits.ADON=1;
0032 8000      00741         BSF     _ADCON0bits, 0
               00742 ;       .line   32; /home/valentin/github/icaro-bloques/tools/bin/../share/sdcc/include/pic16/analog.c  for (result=1;result<10;result++) __asm NOP __endasm;
0034 0E09      00743         MOVLW   0x09
0036 6E00      00744         MOVWF   r0x00
0038 6A00      00745         CLRF    r0x01
003A 00746 _00445_DS_:
003A 0000      00747         NOP 
003C 0EFF      00748         MOVLW   0xff
003E 2600      00749         ADDWF   r0x00, F
0040 A0D8      00750         BTFSS   STATUS, 0
0042 0600      00751         DECF    r0x01, F
0044 5000      00752         MOVF    r0x00, W
0046 1000      00753         IORWF   r0x01, W
0048 E100      00754         BNZ     _00445_DS_
               00755 ;       .line   33; /home/valentin/github/icaro-bloques/tools/bin/../share/sdcc/include/pic16/analog.c  ADCON0bits.GO=1;
004A 8200      00756         BSF     _ADCON0bits, 1
gpasm-0.13.7 beta               /home/valentin/github/icaro-bloques/source/main.asm6-17-2012  16:18:02          PAGE 15


LOC  OBJECT CODE     LINE SOURCE TEXT
  VALUE
 
004C 00757 _00440_DS_:
               00758 ;       .line   34; /home/valentin/github/icaro-bloques/tools/bin/../share/sdcc/include/pic16/analog.c  while (ADCON0bits.GO);
004C B200      00759         BTFSC   _ADCON0bits, 1
004E D000      00760         BRA     _00440_DS_
               00761 ;       .line   35; /home/valentin/github/icaro-bloques/tools/bin/../share/sdcc/include/pic16/analog.c  result=ADRESH<<8;
0050 C000 F000 00762         MOVFF   _ADRESH, r0x00
0054 6A00      00763         CLRF    r0x01
0056 5000      00764         MOVF    r0x00, W
0058 6E00      00765         MOVWF   r0x03
005A 6A00      00766         CLRF    r0x02
               00767 ;       .line   36; /home/valentin/github/icaro-bloques/tools/bin/../share/sdcc/include/pic16/analog.c  result+=ADRESL;
005C C000 F000 00768         MOVFF   _ADRESL, r0x00
0060 6A00      00769         CLRF    r0x01
0062 5000      00770         MOVF    r0x00, W
0064 2600      00771         ADDWF   r0x02, F
0066 5000      00772         MOVF    r0x01, W
0068 2200      00773         ADDWFC  r0x03, F
               00774 ;       .line   37; /home/valentin/github/icaro-bloques/tools/bin/../share/sdcc/include/pic16/analog.c  ADCON0bits.ADON=0;
006A 9000      00775         BCF     _ADCON0bits, 0
               00776 ;       .line   38; /home/valentin/github/icaro-bloques/tools/bin/../share/sdcc/include/pic16/analog.c  return(result);
006C C000 FFF3 00777         MOVFF   r0x03, PRODL
0070 5000      00778         MOVF    r0x02, W
0072 CFE4 F000 00779         MOVFF   PREINC1, r0x03
0076 CFE4 F000 00780         MOVFF   PREINC1, r0x02
007A CFE4 F000 00781         MOVFF   PREINC1, r0x01
007E CFE4 F000 00782         MOVFF   PREINC1, r0x00
0082 CFE4 FFD9 00783         MOVFF   PREINC1, FSR2L
0086 0012      00784         RETURN  
               00785 
               00786 ; ; Starting pCode block
               00787 S_main__analog_init     code
0000 00788 _analog_init:
               00789 ;       .line   13; /home/valentin/github/icaro-bloques/tools/bin/../share/sdcc/include/pic16/analog.c  TRISA=TRISA | 0x2F;
0000 0E2F      00790         MOVLW   0x2f
0002 1200      00791         IORWF   _TRISA, F
               00792 ;       .line   14; /home/valentin/github/icaro-bloques/tools/bin/../share/sdcc/include/pic16/analog.c  TRISE=TRISE | 0x07;
0004 0E07      00793         MOVLW   0x07
0006 1200      00794         IORWF   _TRISE, F
               00795 ;       .line   15; /home/valentin/github/icaro-bloques/tools/bin/../share/sdcc/include/pic16/analog.c  ADCON1=0x07;
0008 6E00      00796         MOVWF   _ADCON1
               00797 ;       .line   16; /home/valentin/github/icaro-bloques/tools/bin/../share/sdcc/include/pic16/analog.c  ADCON2=0xBD;
000A 0EBD      00798         MOVLW   0xbd
000C 6E00      00799         MOVWF   _ADCON2
000E 0012      00800         RETURN  
               00801 
               00802 ; ; Starting pCode block
               00803 S_main__servos_interrupt        code
0000 00804 _servos_interrupt:
               00805 ;       .line   288; /home/valentin/github/icaro-bloques/tools/bin/../share/sdcc/include/pic16/servos.c if (PIR1bits.TMR1IF) {
0000 A000      00806         BTFSS   _PIR1bits, 0
0002 D000      00807         BRA     _00430_DS_
               00808 ;       .line   289; /home/valentin/github/icaro-bloques/tools/bin/../share/sdcc/include/pic16/servos.c PIR1bits.TMR1IF=0;
0004 9000      00809         BCF     _PIR1bits, 0
               00810 ;       .line   290; /home/valentin/github/icaro-bloques/tools/bin/../share/sdcc/include/pic16/servos.c T1CON=0x00;
gpasm-0.13.7 beta               /home/valentin/github/icaro-bloques/source/main.asm6-17-2012  16:18:02          PAGE 16


LOC  OBJECT CODE     LINE SOURCE TEXT
  VALUE
 
0006 6A00      00811         CLRF    _T1CON
0008 0000      00812         BANKSEL _phase
               00813 ;       .line   291; /home/valentin/github/icaro-bloques/tools/bin/../share/sdcc/include/pic16/servos.c if (phase) {
000A 5100      00814         MOVF    _phase, W, B
000C E000      00815         BZ      _00426_DS_
               00816 ;       .line   293; /home/valentin/github/icaro-bloques/tools/bin/../share/sdcc/include/pic16/servos.c ServosPulseUp();
000E EC00 F000 00817         CALL    _ServosPulseUp
               00818 ;       .line   295; /home/valentin/github/icaro-bloques/tools/bin/../share/sdcc/include/pic16/servos.c TMR1H= 0xd3;
0012 0ED3      00819         MOVLW   0xd3
0014 6E00      00820         MOVWF   _TMR1H
               00821 ;       .line   296; /home/valentin/github/icaro-bloques/tools/bin/../share/sdcc/include/pic16/servos.c TMR1L= 0x8f;
0016 0E8F      00822         MOVLW   0x8f
0018 6E00      00823         MOVWF   _TMR1L
               00824 ;       .line   298; /home/valentin/github/icaro-bloques/tools/bin/../share/sdcc/include/pic16/servos.c T1CON=1;
001A 0E01      00825         MOVLW   0x01
001C 6E00      00826         MOVWF   _T1CON
001E 0000      00827         BANKSEL _phase
               00828 ;       .line   299; /home/valentin/github/icaro-bloques/tools/bin/../share/sdcc/include/pic16/servos.c phase = 0;
0020 6B00      00829         CLRF    _phase, B
0022 D000      00830         BRA     _00430_DS_
0024 00831 _00426_DS_:
               00832 ;       .line   304; /home/valentin/github/icaro-bloques/tools/bin/../share/sdcc/include/pic16/servos.c ServosPulseDown();
0024 EC00 F000 00833         CALL    _ServosPulseDown
               00834 ;       .line   308; /home/valentin/github/icaro-bloques/tools/bin/../share/sdcc/include/pic16/servos.c TMR1H= 0x2d;
0028 0E2D      00835         MOVLW   0x2d
002A 6E00      00836         MOVWF   _TMR1H
               00837 ;       .line   309; /home/valentin/github/icaro-bloques/tools/bin/../share/sdcc/include/pic16/servos.c TMR1L= 0x0f;
002C 0E0F      00838         MOVLW   0x0f
002E 6E00      00839         MOVWF   _TMR1L
               00840 ; #     MOVF    _needreordering, W, B
               00841 ; #     BTFSC   STATUS, 2
               00842 ; #     GOTO    _00424_DS_
               00843 ; #     CALL    _SortServoTimings
               00844 ; #     MOVLW   0x21
0030 0000      00845         BANKSEL _needreordering
               00846 ;       .line   311; /home/valentin/github/icaro-bloques/tools/bin/../share/sdcc/include/pic16/servos.c if (needreordering)     
0032 5100      00847         MOVF    _needreordering, W, B
               00848 ;       .line   312; /home/valentin/github/icaro-bloques/tools/bin/../share/sdcc/include/pic16/servos.c SortServoTimings();  // This takes more than 1 ms, but it's call only if needed.
0034 A4D8      00849         BTFSS   STATUS, 2
               00850 ;       .line   313; /home/valentin/github/icaro-bloques/tools/bin/../share/sdcc/include/pic16/servos.c T1CON= ( 1 | 2 << 4 ) ; // activate timer1 and prescaler = 1:4
0036 EC00 F000 00851         CALL    _SortServoTimings
003A 0E21      00852         MOVLW   0x21
003C 6E00      00853         MOVWF   _T1CON
               00854 ;       .line   314; /home/valentin/github/icaro-bloques/tools/bin/../share/sdcc/include/pic16/servos.c phase = 1;  //This indicates that after next interrupt it will start the servos cycle.
003E 0E01      00855         MOVLW   0x01
0040 0000      00856         BANKSEL _phase
0042 6F00      00857         MOVWF   _phase, B
0044 00858 _00430_DS_:
               00859 ;       .line   317; /home/valentin/github/icaro-bloques/tools/bin/../share/sdcc/include/pic16/servos.c return;
0044 0012      00860         RETURN  
               00861 
               00862 ; ; Starting pCode block
               00863 S_main__ServoMaximumPulse       code
0000 00864 _ServoMaximumPulse:
gpasm-0.13.7 beta               /home/valentin/github/icaro-bloques/source/main.asm6-17-2012  16:18:02          PAGE 17


LOC  OBJECT CODE     LINE SOURCE TEXT
  VALUE
 
               00865 ;       .line   273; /home/valentin/github/icaro-bloques/tools/bin/../share/sdcc/include/pic16/servos.c void ServoMaximumPulse(uchar servo)
0000 CFD9 FFE5 00866         MOVFF   FSR2L, POSTDEC1
0004 CFE1 FFD9 00867         MOVFF   FSR1L, FSR2L
0008 C000 FFE5 00868         MOVFF   r0x00, POSTDEC1
000C C000 FFE5 00869         MOVFF   r0x01, POSTDEC1
0010 0E02      00870         MOVLW   0x02
0012 CFDB F000 00871         MOVFF   PLUSW2, r0x00
               00872 ;       .line   275; /home/valentin/github/icaro-bloques/tools/bin/../share/sdcc/include/pic16/servos.c if(servo>=18)        // test if numservo is valid
0016 0E12      00873         MOVLW   0x12
               00874 ; #     SUBWF   r0x00, W
               00875 ; #     BTFSS   STATUS, 0
               00876 ; #     GOTO    _00414_DS_
               00877 ; #     GOTO    _00415_DS_
               00878 ; #     CLRF    r0x01
               00879 ;       .line   276; /home/valentin/github/icaro-bloques/tools/bin/../share/sdcc/include/pic16/servos.c return;
0018 5C00      00880         SUBWF   r0x00, W
               00881 ;       .line   278; /home/valentin/github/icaro-bloques/tools/bin/../share/sdcc/include/pic16/servos.c servovalues[servo]=SERVOMAX;  //  250 = 2000 useg pulse
001A E200      00882         BC      _00415_DS_
001C 6A00      00883         CLRF    r0x01
001E 0E00      00884         MOVLW   LOW(_servovalues)
0020 2600      00885         ADDWF   r0x00, F
0022 0E00      00886         MOVLW   HIGH(_servovalues)
0024 2200      00887         ADDWFC  r0x01, F
0026 C000 FFE9 00888         MOVFF   r0x00, FSR0L
002A C000 FFEA 00889         MOVFF   r0x01, FSR0H
002E 0EFA      00890         MOVLW   0xfa
0030 6EEF      00891         MOVWF   INDF0
               00892 ;       .line   280; /home/valentin/github/icaro-bloques/tools/bin/../share/sdcc/include/pic16/servos.c needreordering=1;  // This indicates servo timings must be reordered.
0032 0E01      00893         MOVLW   0x01
0034 0000      00894         BANKSEL _needreordering
0036 6F00      00895         MOVWF   _needreordering, B
0038 00896 _00415_DS_:
0038 CFE4 F000 00897         MOVFF   PREINC1, r0x01
003C CFE4 F000 00898         MOVFF   PREINC1, r0x00
0040 CFE4 FFD9 00899         MOVFF   PREINC1, FSR2L
0044 0012      00900         RETURN  
               00901 
               00902 ; ; Starting pCode block
               00903 S_main__ServoMinimumPulse       code
0000 00904 _ServoMinimumPulse:
               00905 ;       .line   262; /home/valentin/github/icaro-bloques/tools/bin/../share/sdcc/include/pic16/servos.c void ServoMinimumPulse(uchar servo)
0000 CFD9 FFE5 00906         MOVFF   FSR2L, POSTDEC1
0004 CFE1 FFD9 00907         MOVFF   FSR1L, FSR2L
0008 C000 FFE5 00908         MOVFF   r0x00, POSTDEC1
000C C000 FFE5 00909         MOVFF   r0x01, POSTDEC1
0010 0E02      00910         MOVLW   0x02
0012 CFDB F000 00911         MOVFF   PLUSW2, r0x00
               00912 ;       .line   264; /home/valentin/github/icaro-bloques/tools/bin/../share/sdcc/include/pic16/servos.c if(servo>=18)        // test if numservo is valid
0016 0E12      00913         MOVLW   0x12
               00914 ; #     SUBWF   r0x00, W
               00915 ; #     BTFSS   STATUS, 0
               00916 ; #     GOTO    _00404_DS_
               00917 ; #     GOTO    _00405_DS_
               00918 ; #     CLRF    r0x01
gpasm-0.13.7 beta               /home/valentin/github/icaro-bloques/source/main.asm6-17-2012  16:18:02          PAGE 18


LOC  OBJECT CODE     LINE SOURCE TEXT
  VALUE
 
               00919 ;       .line   265; /home/valentin/github/icaro-bloques/tools/bin/../share/sdcc/include/pic16/servos.c return;
0018 5C00      00920         SUBWF   r0x00, W
               00921 ;       .line   267; /home/valentin/github/icaro-bloques/tools/bin/../share/sdcc/include/pic16/servos.c servovalues[servo]=SERVOMIN;  //  1 = 1000 useg pulse
001A E200      00922         BC      _00405_DS_
001C 6A00      00923         CLRF    r0x01
001E 0E00      00924         MOVLW   LOW(_servovalues)
0020 2600      00925         ADDWF   r0x00, F
0022 0E00      00926         MOVLW   HIGH(_servovalues)
0024 2200      00927         ADDWFC  r0x01, F
0026 C000 FFE9 00928         MOVFF   r0x00, FSR0L
002A C000 FFEA 00929         MOVFF   r0x01, FSR0H
002E 0E01      00930         MOVLW   0x01
0030 6EEF      00931         MOVWF   INDF0
0032 0000      00932         BANKSEL _needreordering
               00933 ;       .line   269; /home/valentin/github/icaro-bloques/tools/bin/../share/sdcc/include/pic16/servos.c needreordering=1;  // This indicates servo timings must be reordered.
0034 6F00      00934         MOVWF   _needreordering, B
0036 00935 _00405_DS_:
0036 CFE4 F000 00936         MOVFF   PREINC1, r0x01
003A CFE4 F000 00937         MOVFF   PREINC1, r0x00
003E CFE4 FFD9 00938         MOVFF   PREINC1, FSR2L
0042 0012      00939         RETURN  
               00940 
               00941 ; ; Starting pCode block
               00942 S_main__ServoRead       code
0000 00943 _ServoRead:
               00944 ;       .line   254; /home/valentin/github/icaro-bloques/tools/bin/../share/sdcc/include/pic16/servos.c unsigned char ServoRead(uchar servo)
0000 CFD9 FFE5 00945         MOVFF   FSR2L, POSTDEC1
0004 CFE1 FFD9 00946         MOVFF   FSR1L, FSR2L
0008 C000 FFE5 00947         MOVFF   r0x00, POSTDEC1
000C C000 FFE5 00948         MOVFF   r0x01, POSTDEC1
0010 0E02      00949         MOVLW   0x02
0012 CFDB F000 00950         MOVFF   PLUSW2, r0x00
               00951 ;       .line   256; /home/valentin/github/icaro-bloques/tools/bin/../share/sdcc/include/pic16/servos.c if(servo>=18)        // test if numservo is valid
0016 0E12      00952         MOVLW   0x12
0018 5C00      00953         SUBWF   r0x00, W
001A E300      00954         BNC     _00394_DS_
               00955 ;       .line   257; /home/valentin/github/icaro-bloques/tools/bin/../share/sdcc/include/pic16/servos.c return 0;
001C 6AE8      00956         CLRF    WREG
001E D000      00957         BRA     _00395_DS_
0020 00958 _00394_DS_:
               00959 ;       .line   258; /home/valentin/github/icaro-bloques/tools/bin/../share/sdcc/include/pic16/servos.c return servovalues[servo];
0020 6A00      00960         CLRF    r0x01
0022 0E00      00961         MOVLW   LOW(_servovalues)
0024 2600      00962         ADDWF   r0x00, F
0026 0E00      00963         MOVLW   HIGH(_servovalues)
0028 2200      00964         ADDWFC  r0x01, F
002A C000 FFE9 00965         MOVFF   r0x00, FSR0L
002E C000 FFEA 00966         MOVFF   r0x01, FSR0H
0032 CFEF F000 00967         MOVFF   INDF0, r0x00
0036 5000      00968         MOVF    r0x00, W
0038 00969 _00395_DS_:
0038 CFE4 F000 00970         MOVFF   PREINC1, r0x01
003C CFE4 F000 00971         MOVFF   PREINC1, r0x00
0040 CFE4 FFD9 00972         MOVFF   PREINC1, FSR2L
gpasm-0.13.7 beta               /home/valentin/github/icaro-bloques/source/main.asm6-17-2012  16:18:02          PAGE 19


LOC  OBJECT CODE     LINE SOURCE TEXT
  VALUE
 
0044 0012      00973         RETURN  
               00974 
               00975 ; ; Starting pCode block
               00976 S_main__ServoWrite      code
0000 00977 _ServoWrite:
               00978 ;       .line   239; /home/valentin/github/icaro-bloques/tools/bin/../share/sdcc/include/pic16/servos.c void ServoWrite(uchar servo, uchar value)
0000 CFD9 FFE5 00979         MOVFF   FSR2L, POSTDEC1
0004 CFE1 FFD9 00980         MOVFF   FSR1L, FSR2L
0008 C000 FFE5 00981         MOVFF   r0x00, POSTDEC1
000C C000 FFE5 00982         MOVFF   r0x01, POSTDEC1
0010 C000 FFE5 00983         MOVFF   r0x02, POSTDEC1
0014 0E02      00984         MOVLW   0x02
0016 CFDB F000 00985         MOVFF   PLUSW2, r0x00
001A 0E03      00986         MOVLW   0x03
001C CFDB F000 00987         MOVFF   PLUSW2, r0x01
               00988 ;       .line   241; /home/valentin/github/icaro-bloques/tools/bin/../share/sdcc/include/pic16/servos.c if(servo>=18)        // test if numservo is valid
0020 0E12      00989         MOVLW   0x12
               00990 ; #     SUBWF   r0x00, W
               00991 ; #     BTFSS   STATUS, 0
               00992 ; #     GOTO    _00376_DS_
               00993 ; #     GOTO    _00381_DS_
               00994 ; #     MOVLW   0x01
               00995 ;       .line   242; /home/valentin/github/icaro-bloques/tools/bin/../share/sdcc/include/pic16/servos.c return;
0022 5C00      00996         SUBWF   r0x00, W
               00997 ;       .line   244; /home/valentin/github/icaro-bloques/tools/bin/../share/sdcc/include/pic16/servos.c if(value<SERVOMIN)  //  1 = 1000 useg pulse
0024 E200      00998         BC      _00381_DS_
0026 0E01      00999         MOVLW   0x01
0028 5C00      01000         SUBWF   r0x01, W
002A E200      01001         BC      _00378_DS_
               01002 ;       .line   245; /home/valentin/github/icaro-bloques/tools/bin/../share/sdcc/include/pic16/servos.c value=SERVOMIN;
002C 0E01      01003         MOVLW   0x01
002E 6E00      01004         MOVWF   r0x01
0030 01005 _00378_DS_:
               01006 ;       .line   246; /home/valentin/github/icaro-bloques/tools/bin/../share/sdcc/include/pic16/servos.c if(value>SERVOMAX) // 250 = 2000 useg pulse
0030 0EFB      01007         MOVLW   0xfb
0032 5C00      01008         SUBWF   r0x01, W
0034 E300      01009         BNC     _00380_DS_
               01010 ;       .line   247; /home/valentin/github/icaro-bloques/tools/bin/../share/sdcc/include/pic16/servos.c value=SERVOMAX;
0036 0EFA      01011         MOVLW   0xfa
0038 6E00      01012         MOVWF   r0x01
003A 01013 _00380_DS_:
               01014 ;       .line   248; /home/valentin/github/icaro-bloques/tools/bin/../share/sdcc/include/pic16/servos.c servovalues[servo]=value;
003A 6A00      01015         CLRF    r0x02
003C 0E00      01016         MOVLW   LOW(_servovalues)
003E 2600      01017         ADDWF   r0x00, F
0040 0E00      01018         MOVLW   HIGH(_servovalues)
0042 2200      01019         ADDWFC  r0x02, F
0044 C000 FFE9 01020         MOVFF   r0x00, FSR0L
0048 C000 FFEA 01021         MOVFF   r0x02, FSR0H
004C C000 FFEF 01022         MOVFF   r0x01, INDF0
               01023 ;       .line   250; /home/valentin/github/icaro-bloques/tools/bin/../share/sdcc/include/pic16/servos.c needreordering=1;  // This indicates servo timings must be reordered.
0050 0E01      01024         MOVLW   0x01
0052 0000      01025         BANKSEL _needreordering
0054 6F00      01026         MOVWF   _needreordering, B
gpasm-0.13.7 beta               /home/valentin/github/icaro-bloques/source/main.asm6-17-2012  16:18:02          PAGE 20


LOC  OBJECT CODE     LINE SOURCE TEXT
  VALUE
 
0056 01027 _00381_DS_:
0056 CFE4 F000 01028         MOVFF   PREINC1, r0x02
005A CFE4 F000 01029         MOVFF   PREINC1, r0x01
005E CFE4 F000 01030         MOVFF   PREINC1, r0x00
0062 CFE4 FFD9 01031         MOVFF   PREINC1, FSR2L
0066 0012      01032         RETURN  
               01033 
               01034 ; ; Starting pCode block
               01035 S_main__ServoDetach     code
0000 01036 _ServoDetach:
               01037 ;       .line   225; /home/valentin/github/icaro-bloques/tools/bin/../share/sdcc/include/pic16/servos.c void ServoDetach(uchar pin)
0000 CFD9 FFE5 01038         MOVFF   FSR2L, POSTDEC1
0004 CFE1 FFD9 01039         MOVFF   FSR1L, FSR2L
0008 C000 FFE5 01040         MOVFF   r0x00, POSTDEC1
000C C000 FFE5 01041         MOVFF   r0x01, POSTDEC1
0010 C000 FFE5 01042         MOVFF   r0x02, POSTDEC1
0014 C000 FFE5 01043         MOVFF   r0x03, POSTDEC1
0018 0E02      01044         MOVLW   0x02
001A CFDB F000 01045         MOVFF   PLUSW2, r0x00
               01046 ;       .line   227; /home/valentin/github/icaro-bloques/tools/bin/../share/sdcc/include/pic16/servos.c if(pin>=18) return;
001E 0E12      01047         MOVLW   0x12
               01048 ; #     SUBWF   r0x00, W
               01049 ; #     BTFSS   STATUS, 0
               01050 ; #     GOTO    _00355_DS_
               01051 ; #     GOTO    _00362_DS_
               01052 ; #     MOVLW   0x08
               01053 ;       .line   229; /home/valentin/github/icaro-bloques/tools/bin/../share/sdcc/include/pic16/servos.c if(pin<8){
0020 5C00      01054         SUBWF   r0x00, W
0022 B0D8      01055         BTFSC   STATUS, 0
0024 D000      01056         BRA     _00362_DS_
0026 0E08      01057         MOVLW   0x08
0028 5C00      01058         SUBWF   r0x00, W
002A E200      01059         BC      _00360_DS_
               01060 ;       .line   230; /home/valentin/github/icaro-bloques/tools/bin/../share/sdcc/include/pic16/servos.c activatedservos[MaskPort_B] = activatedservos[MaskPort_B] ^ servomasks[pin];
002C 0E00      01061         MOVLW   LOW(_servomasks)
002E 2400      01062         ADDWF   r0x00, W
0030 6E00      01063         MOVWF   r0x01
0032 6A00      01064         CLRF    r0x02
0034 0E00      01065         MOVLW   HIGH(_servomasks)
0036 2200      01066         ADDWFC  r0x02, F
0038 6A00      01067         CLRF    r0x03
003A 0E00      01068         MOVLW   UPPER(_servomasks)
003C 2200      01069         ADDWFC  r0x03, F
003E C000 FFF6 01070         MOVFF   r0x01, TBLPTRL
0042 C000 FFF7 01071         MOVFF   r0x02, TBLPTRH
0046 C000 FFF8 01072         MOVFF   r0x03, TBLPTRU
004A 0009      01073         TBLRD*+ 
004C CFF5 F000 01074         MOVFF   TABLAT, r0x01
0050 0000      01075         BANKSEL _activatedservos
0052 5100      01076         MOVF    _activatedservos, W, B
0054 1A00      01077         XORWF   r0x01, F
0056 5000      01078         MOVF    r0x01, W
               01079 ; removed redundant BANKSEL
0058 6F00      01080         MOVWF   _activatedservos, B
gpasm-0.13.7 beta               /home/valentin/github/icaro-bloques/source/main.asm6-17-2012  16:18:02          PAGE 21


LOC  OBJECT CODE     LINE SOURCE TEXT
  VALUE
 
005A D000      01081         BRA     _00362_DS_
005C 01082 _00360_DS_:
               01083 ;       .line   231; /home/valentin/github/icaro-bloques/tools/bin/../share/sdcc/include/pic16/servos.c } else if (pin>12) {
005C 0E0D      01084         MOVLW   0x0d
005E 5C00      01085         SUBWF   r0x00, W
0060 E300      01086         BNC     _00357_DS_
               01087 ;       .line   232; /home/valentin/github/icaro-bloques/tools/bin/../share/sdcc/include/pic16/servos.c activatedservos[MaskPort_A] = activatedservos[MaskPort_A] ^ servomasks[pin];
0062 0E00      01088         MOVLW   LOW(_servomasks)
0064 2400      01089         ADDWF   r0x00, W
0066 6E00      01090         MOVWF   r0x01
0068 6A00      01091         CLRF    r0x02
006A 0E00      01092         MOVLW   HIGH(_servomasks)
006C 2200      01093         ADDWFC  r0x02, F
006E 6A00      01094         CLRF    r0x03
0070 0E00      01095         MOVLW   UPPER(_servomasks)
0072 2200      01096         ADDWFC  r0x03, F
0074 C000 FFF6 01097         MOVFF   r0x01, TBLPTRL
0078 C000 FFF7 01098         MOVFF   r0x02, TBLPTRH
007C C000 FFF8 01099         MOVFF   r0x03, TBLPTRU
0080 0009      01100         TBLRD*+ 
0082 CFF5 F000 01101         MOVFF   TABLAT, r0x01
0086 0000      01102         BANKSEL (_activatedservos + 2)
0088 5100      01103         MOVF    (_activatedservos + 2), W, B
008A 1A00      01104         XORWF   r0x01, F
008C 5000      01105         MOVF    r0x01, W
               01106 ; removed redundant BANKSEL
008E 6F00      01107         MOVWF   (_activatedservos + 2), B
0090 D000      01108         BRA     _00362_DS_
0092 01109 _00357_DS_:
               01110 ;       .line   234; /home/valentin/github/icaro-bloques/tools/bin/../share/sdcc/include/pic16/servos.c activatedservos[MaskPort_C] = activatedservos[MaskPort_C] ^ servomasks[pin];
0092 6A00      01111         CLRF    r0x01
0094 6A00      01112         CLRF    r0x02
0096 0E00      01113         MOVLW   LOW(_servomasks)
0098 2600      01114         ADDWF   r0x00, F
009A 0E00      01115         MOVLW   HIGH(_servomasks)
009C 2200      01116         ADDWFC  r0x01, F
009E 0E00      01117         MOVLW   UPPER(_servomasks)
00A0 2200      01118         ADDWFC  r0x02, F
00A2 C000 FFF6 01119         MOVFF   r0x00, TBLPTRL
00A6 C000 FFF7 01120         MOVFF   r0x01, TBLPTRH
00AA C000 FFF8 01121         MOVFF   r0x02, TBLPTRU
00AE 0009      01122         TBLRD*+ 
00B0 CFF5 F000 01123         MOVFF   TABLAT, r0x00
00B4 0000      01124         BANKSEL (_activatedservos + 1)
00B6 5100      01125         MOVF    (_activatedservos + 1), W, B
00B8 1A00      01126         XORWF   r0x00, F
00BA 5000      01127         MOVF    r0x00, W
               01128 ; removed redundant BANKSEL
00BC 6F00      01129         MOVWF   (_activatedservos + 1), B
00BE 01130 _00362_DS_:
00BE CFE4 F000 01131         MOVFF   PREINC1, r0x03
00C2 CFE4 F000 01132         MOVFF   PREINC1, r0x02
00C6 CFE4 F000 01133         MOVFF   PREINC1, r0x01
00CA CFE4 F000 01134         MOVFF   PREINC1, r0x00
gpasm-0.13.7 beta               /home/valentin/github/icaro-bloques/source/main.asm6-17-2012  16:18:02          PAGE 22


LOC  OBJECT CODE     LINE SOURCE TEXT
  VALUE
 
00CE CFE4 FFD9 01135         MOVFF   PREINC1, FSR2L
00D2 0012      01136         RETURN  
               01137 
               01138 ; ; Starting pCode block
               01139 S_main__ServoAttach     code
0000 01140 _ServoAttach:
               01141 ;       .line   208; /home/valentin/github/icaro-bloques/tools/bin/../share/sdcc/include/pic16/servos.c void ServoAttach(uchar pin)
0000 CFD9 FFE5 01142         MOVFF   FSR2L, POSTDEC1
0004 CFE1 FFD9 01143         MOVFF   FSR1L, FSR2L
0008 C000 FFE5 01144         MOVFF   r0x00, POSTDEC1
000C C000 FFE5 01145         MOVFF   r0x01, POSTDEC1
0010 C000 FFE5 01146         MOVFF   r0x02, POSTDEC1
0014 C000 FFE5 01147         MOVFF   r0x03, POSTDEC1
0018 0E02      01148         MOVLW   0x02
001A CFDB F000 01149         MOVFF   PLUSW2, r0x00
               01150 ;       .line   210; /home/valentin/github/icaro-bloques/tools/bin/../share/sdcc/include/pic16/servos.c if(pin>=18) return;
001E 0E12      01151         MOVLW   0x12
               01152 ; #     SUBWF   r0x00, W
               01153 ; #     BTFSS   STATUS, 0
               01154 ; #     GOTO    _00333_DS_
               01155 ; #     GOTO    _00340_DS_
               01156 ; #     MOVLW   0x08
               01157 ;       .line   212; /home/valentin/github/icaro-bloques/tools/bin/../share/sdcc/include/pic16/servos.c if(pin<8){
0020 5C00      01158         SUBWF   r0x00, W
0022 B0D8      01159         BTFSC   STATUS, 0
0024 D000      01160         BRA     _00340_DS_
0026 0E08      01161         MOVLW   0x08
0028 5C00      01162         SUBWF   r0x00, W
002A E200      01163         BC      _00338_DS_
               01164 ;       .line   213; /home/valentin/github/icaro-bloques/tools/bin/../share/sdcc/include/pic16/servos.c activatedservos[MaskPort_B] = activatedservos[MaskPort_B] | servomasks[pin];  // list pin as servo driver.
002C 0E00      01165         MOVLW   LOW(_servomasks)
002E 2400      01166         ADDWF   r0x00, W
0030 6E00      01167         MOVWF   r0x01
0032 6A00      01168         CLRF    r0x02
0034 0E00      01169         MOVLW   HIGH(_servomasks)
0036 2200      01170         ADDWFC  r0x02, F
0038 6A00      01171         CLRF    r0x03
003A 0E00      01172         MOVLW   UPPER(_servomasks)
003C 2200      01173         ADDWFC  r0x03, F
003E C000 FFF6 01174         MOVFF   r0x01, TBLPTRL
0042 C000 FFF7 01175         MOVFF   r0x02, TBLPTRH
0046 C000 FFF8 01176         MOVFF   r0x03, TBLPTRU
004A 0009      01177         TBLRD*+ 
004C CFF5 F000 01178         MOVFF   TABLAT, r0x01
0050 5000      01179         MOVF    r0x01, W
0052 0000      01180         BANKSEL _activatedservos
0054 1100      01181         IORWF   _activatedservos, W, B
               01182 ; #     MOVWF   r0x02
               01183 ; #     MOVF    r0x02, W
0056 6F00      01184         MOVWF   _activatedservos, B
               01185 ;       .line   214; /home/valentin/github/icaro-bloques/tools/bin/../share/sdcc/include/pic16/servos.c TRISB = TRISB & (255 - servomasks[pin]); // set as output pin
0058 5000      01186         MOVF    r0x01, W
005A 08FF      01187         SUBLW   0xff
               01188 ; #     MOVWF   r0x01
gpasm-0.13.7 beta               /home/valentin/github/icaro-bloques/source/main.asm6-17-2012  16:18:02          PAGE 23


LOC  OBJECT CODE     LINE SOURCE TEXT
  VALUE
 
               01189 ; #     MOVF    r0x01, W
005C 1600      01190         ANDWF   _TRISB, F
005E D000      01191         BRA     _00340_DS_
0060 01192 _00338_DS_:
               01193 ;       .line   215; /home/valentin/github/icaro-bloques/tools/bin/../share/sdcc/include/pic16/servos.c } else if (pin>12) {
0060 0E0D      01194         MOVLW   0x0d
0062 5C00      01195         SUBWF   r0x00, W
0064 E300      01196         BNC     _00335_DS_
               01197 ;       .line   216; /home/valentin/github/icaro-bloques/tools/bin/../share/sdcc/include/pic16/servos.c activatedservos[MaskPort_A] = activatedservos[MaskPort_A] | servomasks[pin];  // list pin as servo driver.
0066 0E00      01198         MOVLW   LOW(_servomasks)
0068 2400      01199         ADDWF   r0x00, W
006A 6E00      01200         MOVWF   r0x01
006C 6A00      01201         CLRF    r0x02
006E 0E00      01202         MOVLW   HIGH(_servomasks)
0070 2200      01203         ADDWFC  r0x02, F
0072 6A00      01204         CLRF    r0x03
0074 0E00      01205         MOVLW   UPPER(_servomasks)
0076 2200      01206         ADDWFC  r0x03, F
0078 C000 FFF6 01207         MOVFF   r0x01, TBLPTRL
007C C000 FFF7 01208         MOVFF   r0x02, TBLPTRH
0080 C000 FFF8 01209         MOVFF   r0x03, TBLPTRU
0084 0009      01210         TBLRD*+ 
0086 CFF5 F000 01211         MOVFF   TABLAT, r0x01
008A 5000      01212         MOVF    r0x01, W
008C 0000      01213         BANKSEL (_activatedservos + 2)
008E 1100      01214         IORWF   (_activatedservos + 2), W, B
               01215 ; #     MOVWF   r0x02
               01216 ; #     MOVF    r0x02, W
0090 6F00      01217         MOVWF   (_activatedservos + 2), B
               01218 ;       .line   217; /home/valentin/github/icaro-bloques/tools/bin/../share/sdcc/include/pic16/servos.c TRISA = TRISA & (255 - servomasks[pin]); // set as output pin
0092 5000      01219         MOVF    r0x01, W
0094 08FF      01220         SUBLW   0xff
               01221 ; #     MOVWF   r0x01
               01222 ; #     MOVF    r0x01, W
0096 1600      01223         ANDWF   _TRISA, F
0098 D000      01224         BRA     _00340_DS_
009A 01225 _00335_DS_:
               01226 ;       .line   219; /home/valentin/github/icaro-bloques/tools/bin/../share/sdcc/include/pic16/servos.c activatedservos[MaskPort_C] = activatedservos[MaskPort_C] | servomasks[pin];  // list pin as servo driver.
009A 6A00      01227         CLRF    r0x01
009C 6A00      01228         CLRF    r0x02
009E 0E00      01229         MOVLW   LOW(_servomasks)
00A0 2600      01230         ADDWF   r0x00, F
00A2 0E00      01231         MOVLW   HIGH(_servomasks)
00A4 2200      01232         ADDWFC  r0x01, F
00A6 0E00      01233         MOVLW   UPPER(_servomasks)
00A8 2200      01234         ADDWFC  r0x02, F
00AA C000 FFF6 01235         MOVFF   r0x00, TBLPTRL
00AE C000 FFF7 01236         MOVFF   r0x01, TBLPTRH
00B2 C000 FFF8 01237         MOVFF   r0x02, TBLPTRU
00B6 0009      01238         TBLRD*+ 
00B8 CFF5 F000 01239         MOVFF   TABLAT, r0x00
00BC 5000      01240         MOVF    r0x00, W
00BE 0000      01241         BANKSEL (_activatedservos + 1)
00C0 1100      01242         IORWF   (_activatedservos + 1), W, B
gpasm-0.13.7 beta               /home/valentin/github/icaro-bloques/source/main.asm6-17-2012  16:18:02          PAGE 24


LOC  OBJECT CODE     LINE SOURCE TEXT
  VALUE
 
               01243 ; #     MOVWF   r0x01
               01244 ; #     MOVF    r0x01, W
00C2 6F00      01245         MOVWF   (_activatedservos + 1), B
               01246 ;       .line   220; /home/valentin/github/icaro-bloques/tools/bin/../share/sdcc/include/pic16/servos.c TRISC = TRISC & (255 - servomasks[pin]); // set as output pin
00C4 5000      01247         MOVF    r0x00, W
00C6 08FF      01248         SUBLW   0xff
               01249 ; #     MOVWF   r0x00
               01250 ; #     MOVF    r0x00, W
00C8 1600      01251         ANDWF   _TRISC, F
00CA 01252 _00340_DS_:
00CA CFE4 F000 01253         MOVFF   PREINC1, r0x03
00CE CFE4 F000 01254         MOVFF   PREINC1, r0x02
00D2 CFE4 F000 01255         MOVFF   PREINC1, r0x01
00D6 CFE4 F000 01256         MOVFF   PREINC1, r0x00
00DA CFE4 FFD9 01257         MOVFF   PREINC1, FSR2L
00DE 0012      01258         RETURN  
               01259 
               01260 ; ; Starting pCode block
               01261 S_main__SortServoTimings        code
0000 01262 _SortServoTimings:
               01263 ;       .line   124; /home/valentin/github/icaro-bloques/tools/bin/../share/sdcc/include/pic16/servos.c static void SortServoTimings()
0000 C000 FFE5 01264         MOVFF   r0x00, POSTDEC1
0004 C000 FFE5 01265         MOVFF   r0x01, POSTDEC1
0008 C000 FFE5 01266         MOVFF   r0x02, POSTDEC1
000C C000 FFE5 01267         MOVFF   r0x03, POSTDEC1
0010 C000 FFE5 01268         MOVFF   r0x04, POSTDEC1
0014 C000 FFE5 01269         MOVFF   r0x05, POSTDEC1
0018 C000 FFE5 01270         MOVFF   r0x06, POSTDEC1
001C C000 FFE5 01271         MOVFF   r0x07, POSTDEC1
0020 C000 FFE5 01272         MOVFF   r0x08, POSTDEC1
0024 C000 FFE5 01273         MOVFF   r0x09, POSTDEC1
0028 0000      01274         BANKSEL _SortServoTimings_mascaratotal_1_1
               01275 ;       .line   131; /home/valentin/github/icaro-bloques/tools/bin/../share/sdcc/include/pic16/servos.c uchar mascaratotal[3]={0x00,0x00,0x00};
002A 6B00      01276         CLRF    _SortServoTimings_mascaratotal_1_1, B
               01277 ; removed redundant BANKSEL
002C 6B00      01278         CLRF    (_SortServoTimings_mascaratotal_1_1 + 1), B
               01279 ; removed redundant BANKSEL
002E 6B00      01280         CLRF    (_SortServoTimings_mascaratotal_1_1 + 2), B
               01281 ;       .line   134; /home/valentin/github/icaro-bloques/tools/bin/../share/sdcc/include/pic16/servos.c for(t=0;t<18;t++){
0030 6A00      01282         CLRF    r0x00
0032 01283 _00280_DS_:
0032 0E12      01284         MOVLW   0x12
0034 5C00      01285         SUBWF   r0x00, W
0036 E200      01286         BC      _00283_DS_
               01287 ;       .line   135; /home/valentin/github/icaro-bloques/tools/bin/../share/sdcc/include/pic16/servos.c timings[timevalue][t]=255;
0038 0E00      01288         MOVLW   LOW(_timings + 54)
003A 2400      01289         ADDWF   r0x00, W
003C 6E00      01290         MOVWF   r0x01
003E 6A00      01291         CLRF    r0x02
0040 0E00      01292         MOVLW   HIGH(_timings + 54)
0042 2200      01293         ADDWFC  r0x02, F
0044 C000 FFE9 01294         MOVFF   r0x01, FSR0L
0048 C000 FFEA 01295         MOVFF   r0x02, FSR0H
004C 68EF      01296         SETF    INDF0
gpasm-0.13.7 beta               /home/valentin/github/icaro-bloques/source/main.asm6-17-2012  16:18:02          PAGE 25


LOC  OBJECT CODE     LINE SOURCE TEXT
  VALUE
 
               01297 ;       .line   137; /home/valentin/github/icaro-bloques/tools/bin/../share/sdcc/include/pic16/servos.c timings[MaskPort_C][t]=0x00;
004E 0E00      01298         MOVLW   LOW(_timings + 18)
0050 2400      01299         ADDWF   r0x00, W
0052 6E00      01300         MOVWF   r0x01
0054 6A00      01301         CLRF    r0x02
0056 0E00      01302         MOVLW   HIGH(_timings + 18)
0058 2200      01303         ADDWFC  r0x02, F
005A C000 FFE9 01304         MOVFF   r0x01, FSR0L
005E C000 FFEA 01305         MOVFF   r0x02, FSR0H
0062 6AEF      01306         CLRF    INDF0
               01307 ;       .line   138; /home/valentin/github/icaro-bloques/tools/bin/../share/sdcc/include/pic16/servos.c timings[MaskPort_A][t]=0x00;
0064 0E00      01308         MOVLW   LOW(_timings + 36)
0066 2400      01309         ADDWF   r0x00, W
0068 6E00      01310         MOVWF   r0x01
006A 6A00      01311         CLRF    r0x02
006C 0E00      01312         MOVLW   HIGH(_timings + 36)
006E 2200      01313         ADDWFC  r0x02, F
0070 C000 FFE9 01314         MOVFF   r0x01, FSR0L
0074 C000 FFEA 01315         MOVFF   r0x02, FSR0H
0078 6AEF      01316         CLRF    INDF0
               01317 ;       .line   134; /home/valentin/github/icaro-bloques/tools/bin/../share/sdcc/include/pic16/servos.c for(t=0;t<18;t++){
007A 2A00      01318         INCF    r0x00, F
007C D000      01319         BRA     _00280_DS_
007E 01320 _00283_DS_:
               01321 ;       .line   141; /home/valentin/github/icaro-bloques/tools/bin/../share/sdcc/include/pic16/servos.c totalservos=0;
007E 6A00      01322         CLRF    r0x00
               01323 ;       .line   143; /home/valentin/github/icaro-bloques/tools/bin/../share/sdcc/include/pic16/servos.c while(totalservos<18) {
0080 6A00      01324         CLRF    r0x01
0082 01325 _00277_DS_:
0082 0E12      01326         MOVLW   0x12
0084 5C00      01327         SUBWF   r0x00, W
0086 B0D8      01328         BTFSC   STATUS, 0
0088 D000      01329         BRA     _00279_DS_
               01330 ;       .line   144; /home/valentin/github/icaro-bloques/tools/bin/../share/sdcc/include/pic16/servos.c numservos=1;
008A 0E01      01331         MOVLW   0x01
008C 6E00      01332         MOVWF   r0x02
               01333 ;       .line   145; /home/valentin/github/icaro-bloques/tools/bin/../share/sdcc/include/pic16/servos.c for(s=0;s<18;s++) { 
008E 6A00      01334         CLRF    r0x03
0090 01335 _00284_DS_:
0090 0E12      01336         MOVLW   0x12
0092 5C00      01337         SUBWF   r0x03, W
0094 B0D8      01338         BTFSC   STATUS, 0
0096 D000      01339         BRA     _00287_DS_
               01340 ;       .line   147; /home/valentin/github/icaro-bloques/tools/bin/../share/sdcc/include/pic16/servos.c if (s<8){
0098 0E08      01341         MOVLW   0x08
009A 5C00      01342         SUBWF   r0x03, W
009C B0D8      01343         BTFSC   STATUS, 0
009E D000      01344         BRA     _00275_DS_
               01345 ;       .line   148; /home/valentin/github/icaro-bloques/tools/bin/../share/sdcc/include/pic16/servos.c if (servomasks[s] & mascaratotal[MaskPort_B] & activatedservos[MaskPort_B]){
00A0 0E00      01346         MOVLW   LOW(_servomasks)
00A2 2400      01347         ADDWF   r0x03, W
00A4 6E00      01348         MOVWF   r0x04
00A6 6A00      01349         CLRF    r0x05
00A8 0E00      01350         MOVLW   HIGH(_servomasks)
gpasm-0.13.7 beta               /home/valentin/github/icaro-bloques/source/main.asm6-17-2012  16:18:02          PAGE 26


LOC  OBJECT CODE     LINE SOURCE TEXT
  VALUE
 
00AA 2200      01351         ADDWFC  r0x05, F
00AC 6A00      01352         CLRF    r0x06
00AE 0E00      01353         MOVLW   UPPER(_servomasks)
00B0 2200      01354         ADDWFC  r0x06, F
00B2 C000 FFF6 01355         MOVFF   r0x04, TBLPTRL
00B6 C000 FFF7 01356         MOVFF   r0x05, TBLPTRH
00BA C000 FFF8 01357         MOVFF   r0x06, TBLPTRU
00BE 0009      01358         TBLRD*+ 
00C0 CFF5 F000 01359         MOVFF   TABLAT, r0x04
00C4 0000      01360         BANKSEL _SortServoTimings_mascaratotal_1_1
00C6 5100      01361         MOVF    _SortServoTimings_mascaratotal_1_1, W, B
00C8 1600      01362         ANDWF   r0x04, F
00CA 0000      01363         BANKSEL _activatedservos
00CC 5100      01364         MOVF    _activatedservos, W, B
00CE 1600      01365         ANDWF   r0x04, F
00D0 5000      01366         MOVF    r0x04, W
00D2 A4D8      01367         BTFSS   STATUS, 2
00D4 D000      01368         BRA     _00286_DS_
               01369 ;       .line   150; /home/valentin/github/icaro-bloques/tools/bin/../share/sdcc/include/pic16/servos.c else if (servovalues[s] < timings[timevalue][t]){
00D6 0E00      01370         MOVLW   LOW(_servovalues)
00D8 2400      01371         ADDWF   r0x03, W
00DA 6E00      01372         MOVWF   r0x04
00DC 6A00      01373         CLRF    r0x05
00DE 0E00      01374         MOVLW   HIGH(_servovalues)
00E0 2200      01375         ADDWFC  r0x05, F
00E2 C000 FFE9 01376         MOVFF   r0x04, FSR0L
00E6 C000 FFEA 01377         MOVFF   r0x05, FSR0H
00EA CFEF F000 01378         MOVFF   INDF0, r0x04
00EE 0E00      01379         MOVLW   LOW(_timings + 54)
00F0 2400      01380         ADDWF   r0x01, W
00F2 6E00      01381         MOVWF   r0x05
00F4 6A00      01382         CLRF    r0x06
00F6 0E00      01383         MOVLW   HIGH(_timings + 54)
00F8 2200      01384         ADDWFC  r0x06, F
00FA C000 FFE9 01385         MOVFF   r0x05, FSR0L
00FE C000 FFEA 01386         MOVFF   r0x06, FSR0H
0102 CFEF F000 01387         MOVFF   INDF0, r0x07
0106 5000      01388         MOVF    r0x07, W
0108 5C00      01389         SUBWF   r0x04, W
010A E200      01390         BC      _00250_DS_
               01391 ;       .line   151; /home/valentin/github/icaro-bloques/tools/bin/../share/sdcc/include/pic16/servos.c timings[timevalue][t]=servovalues[s];
010C C000 FFE9 01392         MOVFF   r0x05, FSR0L
0110 C000 FFEA 01393         MOVFF   r0x06, FSR0H
0114 C000 FFEF 01394         MOVFF   r0x04, INDF0
               01395 ;       .line   153; /home/valentin/github/icaro-bloques/tools/bin/../share/sdcc/include/pic16/servos.c timings[MaskPort_C][t]=0x00;
0118 0E00      01396         MOVLW   LOW(_timings + 18)
011A 2400      01397         ADDWF   r0x01, W
011C 6E00      01398         MOVWF   r0x07
011E 6A00      01399         CLRF    r0x08
0120 0E00      01400         MOVLW   HIGH(_timings + 18)
0122 2200      01401         ADDWFC  r0x08, F
0124 C000 FFE9 01402         MOVFF   r0x07, FSR0L
0128 C000 FFEA 01403         MOVFF   r0x08, FSR0H
012C 6AEF      01404         CLRF    INDF0
gpasm-0.13.7 beta               /home/valentin/github/icaro-bloques/source/main.asm6-17-2012  16:18:02          PAGE 27


LOC  OBJECT CODE     LINE SOURCE TEXT
  VALUE
 
               01405 ;       .line   154; /home/valentin/github/icaro-bloques/tools/bin/../share/sdcc/include/pic16/servos.c timings[MaskPort_A][t]=0x00;
012E 0E00      01406         MOVLW   LOW(_timings + 36)
0130 2400      01407         ADDWF   r0x01, W
0132 6E00      01408         MOVWF   r0x07
0134 6A00      01409         CLRF    r0x08
0136 0E00      01410         MOVLW   HIGH(_timings + 36)
0138 2200      01411         ADDWFC  r0x08, F
013A C000 FFE9 01412         MOVFF   r0x07, FSR0L
013E C000 FFEA 01413         MOVFF   r0x08, FSR0H
0142 6AEF      01414         CLRF    INDF0
               01415 ;       .line   155; /home/valentin/github/icaro-bloques/tools/bin/../share/sdcc/include/pic16/servos.c numservos=1;
0144 0E01      01416         MOVLW   0x01
0146 6E00      01417         MOVWF   r0x02
0148 D000      01418         BRA     _00286_DS_
014A 01419 _00250_DS_:
               01420 ;       .line   157; /home/valentin/github/icaro-bloques/tools/bin/../share/sdcc/include/pic16/servos.c else if (servovalues[s] == timings[timevalue][t]){
014A C000 FFE9 01421         MOVFF   r0x05, FSR0L
014E C000 FFEA 01422         MOVFF   r0x06, FSR0H
0152 CFEF F000 01423         MOVFF   INDF0, r0x05
0156 5000      01424         MOVF    r0x04, W
0158 1800      01425         XORWF   r0x05, W
015A E000      01426         BZ      _00317_DS_
015C D000      01427         BRA     _00286_DS_
015E 01428 _00317_DS_:
               01429 ;       .line   159; /home/valentin/github/icaro-bloques/tools/bin/../share/sdcc/include/pic16/servos.c numservos++;
015E 2A00      01430         INCF    r0x02, F
0160 D000      01431         BRA     _00286_DS_
0162 01432 _00275_DS_:
               01433 ;       .line   163; /home/valentin/github/icaro-bloques/tools/bin/../share/sdcc/include/pic16/servos.c else if (s>12){
0162 0E0D      01434         MOVLW   0x0d
0164 5C00      01435         SUBWF   r0x03, W
0166 A0D8      01436         BTFSS   STATUS, 0
0168 D000      01437         BRA     _00272_DS_
               01438 ;       .line   164; /home/valentin/github/icaro-bloques/tools/bin/../share/sdcc/include/pic16/servos.c if (servomasks[s] & mascaratotal[MaskPort_A] & activatedservos[MaskPort_A]){
016A 0E00      01439         MOVLW   LOW(_servomasks)
016C 2400      01440         ADDWF   r0x03, W
016E 6E00      01441         MOVWF   r0x04
0170 6A00      01442         CLRF    r0x05
0172 0E00      01443         MOVLW   HIGH(_servomasks)
0174 2200      01444         ADDWFC  r0x05, F
0176 6A00      01445         CLRF    r0x06
0178 0E00      01446         MOVLW   UPPER(_servomasks)
017A 2200      01447         ADDWFC  r0x06, F
017C C000 FFF6 01448         MOVFF   r0x04, TBLPTRL
0180 C000 FFF7 01449         MOVFF   r0x05, TBLPTRH
0184 C000 FFF8 01450         MOVFF   r0x06, TBLPTRU
0188 0009      01451         TBLRD*+ 
018A CFF5 F000 01452         MOVFF   TABLAT, r0x04
018E 0000      01453         BANKSEL (_SortServoTimings_mascaratotal_1_1 + 2)
0190 5100      01454         MOVF    (_SortServoTimings_mascaratotal_1_1 + 2), W, B
0192 1400      01455         ANDWF   r0x04, W
0194 6E00      01456         MOVWF   r0x05
0196 0000      01457         BANKSEL (_activatedservos + 2)
0198 5100      01458         MOVF    (_activatedservos + 2), W, B
gpasm-0.13.7 beta               /home/valentin/github/icaro-bloques/source/main.asm6-17-2012  16:18:02          PAGE 28


LOC  OBJECT CODE     LINE SOURCE TEXT
  VALUE
 
019A 1600      01459         ANDWF   r0x05, F
019C 5000      01460         MOVF    r0x05, W
019E A4D8      01461         BTFSS   STATUS, 2
01A0 D000      01462         BRA     _00286_DS_
               01463 ;       .line   166; /home/valentin/github/icaro-bloques/tools/bin/../share/sdcc/include/pic16/servos.c else if (servovalues[s] < timings[timevalue][t]){
01A2 0E00      01464         MOVLW   LOW(_servovalues)
01A4 2400      01465         ADDWF   r0x03, W
01A6 6E00      01466         MOVWF   r0x05
01A8 6A00      01467         CLRF    r0x06
01AA 0E00      01468         MOVLW   HIGH(_servovalues)
01AC 2200      01469         ADDWFC  r0x06, F
01AE C000 FFE9 01470         MOVFF   r0x05, FSR0L
01B2 C000 FFEA 01471         MOVFF   r0x06, FSR0H
01B6 CFEF F000 01472         MOVFF   INDF0, r0x05
01BA 0E00      01473         MOVLW   LOW(_timings + 54)
01BC 2400      01474         ADDWF   r0x01, W
01BE 6E00      01475         MOVWF   r0x06
01C0 6A00      01476         CLRF    r0x07
01C2 0E00      01477         MOVLW   HIGH(_timings + 54)
01C4 2200      01478         ADDWFC  r0x07, F
01C6 C000 FFE9 01479         MOVFF   r0x06, FSR0L
01CA C000 FFEA 01480         MOVFF   r0x07, FSR0H
01CE CFEF F000 01481         MOVFF   INDF0, r0x08
01D2 5000      01482         MOVF    r0x08, W
01D4 5C00      01483         SUBWF   r0x05, W
01D6 E200      01484         BC      _00258_DS_
               01485 ;       .line   167; /home/valentin/github/icaro-bloques/tools/bin/../share/sdcc/include/pic16/servos.c timings[timevalue][t]=servovalues[s];
01D8 C000 FFE9 01486         MOVFF   r0x06, FSR0L
01DC C000 FFEA 01487         MOVFF   r0x07, FSR0H
01E0 C000 FFEF 01488         MOVFF   r0x05, INDF0
               01489 ;       .line   169; /home/valentin/github/icaro-bloques/tools/bin/../share/sdcc/include/pic16/servos.c timings[MaskPort_C][t]=0x00;
01E4 0E00      01490         MOVLW   LOW(_timings + 18)
01E6 2400      01491         ADDWF   r0x01, W
01E8 6E00      01492         MOVWF   r0x08
01EA 6A00      01493         CLRF    r0x09
01EC 0E00      01494         MOVLW   HIGH(_timings + 18)
01EE 2200      01495         ADDWFC  r0x09, F
01F0 C000 FFE9 01496         MOVFF   r0x08, FSR0L
01F4 C000 FFEA 01497         MOVFF   r0x09, FSR0H
01F8 6AEF      01498         CLRF    INDF0
               01499 ;       .line   170; /home/valentin/github/icaro-bloques/tools/bin/../share/sdcc/include/pic16/servos.c timings[MaskPort_A][t]=servomasks[s];
01FA 0E00      01500         MOVLW   LOW(_timings + 36)
01FC 2400      01501         ADDWF   r0x01, W
01FE 6E00      01502         MOVWF   r0x08
0200 6A00      01503         CLRF    r0x09
0202 0E00      01504         MOVLW   HIGH(_timings + 36)
0204 2200      01505         ADDWFC  r0x09, F
0206 C000 FFE9 01506         MOVFF   r0x08, FSR0L
020A C000 FFEA 01507         MOVFF   r0x09, FSR0H
020E C000 FFEF 01508         MOVFF   r0x04, INDF0
               01509 ;       .line   171; /home/valentin/github/icaro-bloques/tools/bin/../share/sdcc/include/pic16/servos.c numservos=1;
0212 0E01      01510         MOVLW   0x01
0214 6E00      01511         MOVWF   r0x02
0216 D000      01512         BRA     _00286_DS_
gpasm-0.13.7 beta               /home/valentin/github/icaro-bloques/source/main.asm6-17-2012  16:18:02          PAGE 29


LOC  OBJECT CODE     LINE SOURCE TEXT
  VALUE
 
0218 01513 _00258_DS_:
               01514 ;       .line   173; /home/valentin/github/icaro-bloques/tools/bin/../share/sdcc/include/pic16/servos.c else if (servovalues[s] == timings[timevalue][t]){
0218 C000 FFE9 01515         MOVFF   r0x06, FSR0L
021C C000 FFEA 01516         MOVFF   r0x07, FSR0H
0220 CFEF F000 01517         MOVFF   INDF0, r0x06
0224 5000      01518         MOVF    r0x05, W
0226 1800      01519         XORWF   r0x06, W
0228 E000      01520         BZ      _00322_DS_
022A D000      01521         BRA     _00286_DS_
022C 01522 _00322_DS_:
               01523 ;       .line   174; /home/valentin/github/icaro-bloques/tools/bin/../share/sdcc/include/pic16/servos.c timings[MaskPort_A][t] |= servomasks[s];
022C 0E00      01524         MOVLW   LOW(_timings + 36)
022E 2400      01525         ADDWF   r0x01, W
0230 6E00      01526         MOVWF   r0x05
0232 6A00      01527         CLRF    r0x06
0234 0E00      01528         MOVLW   HIGH(_timings + 36)
0236 2200      01529         ADDWFC  r0x06, F
0238 C000 FFE9 01530         MOVFF   r0x05, FSR0L
023C C000 FFEA 01531         MOVFF   r0x06, FSR0H
0240 CFEF F000 01532         MOVFF   INDF0, r0x07
0244 5000      01533         MOVF    r0x07, W
0246 1200      01534         IORWF   r0x04, F
0248 C000 FFE9 01535         MOVFF   r0x05, FSR0L
024C C000 FFEA 01536         MOVFF   r0x06, FSR0H
0250 C000 FFEF 01537         MOVFF   r0x04, INDF0
               01538 ;       .line   175; /home/valentin/github/icaro-bloques/tools/bin/../share/sdcc/include/pic16/servos.c numservos++;
0254 2A00      01539         INCF    r0x02, F
0256 D000      01540         BRA     _00286_DS_
0258 01541 _00272_DS_:
               01542 ;       .line   180; /home/valentin/github/icaro-bloques/tools/bin/../share/sdcc/include/pic16/servos.c if (servomasks[s] & mascaratotal[MaskPort_C] & activatedservos[MaskPort_C]){ 
0258 0E00      01543         MOVLW   LOW(_servomasks)
025A 2400      01544         ADDWF   r0x03, W
025C 6E00      01545         MOVWF   r0x04
025E 6A00      01546         CLRF    r0x05
0260 0E00      01547         MOVLW   HIGH(_servomasks)
0262 2200      01548         ADDWFC  r0x05, F
0264 6A00      01549         CLRF    r0x06
0266 0E00      01550         MOVLW   UPPER(_servomasks)
0268 2200      01551         ADDWFC  r0x06, F
026A C000 FFF6 01552         MOVFF   r0x04, TBLPTRL
026E C000 FFF7 01553         MOVFF   r0x05, TBLPTRH
0272 C000 FFF8 01554         MOVFF   r0x06, TBLPTRU
0276 0009      01555         TBLRD*+ 
0278 CFF5 F000 01556         MOVFF   TABLAT, r0x04
027C 0000      01557         BANKSEL (_SortServoTimings_mascaratotal_1_1 + 1)
027E 5100      01558         MOVF    (_SortServoTimings_mascaratotal_1_1 + 1), W, B
0280 1400      01559         ANDWF   r0x04, W
0282 6E00      01560         MOVWF   r0x05
0284 0000      01561         BANKSEL (_activatedservos + 1)
0286 5100      01562         MOVF    (_activatedservos + 1), W, B
0288 1600      01563         ANDWF   r0x05, F
028A 5000      01564         MOVF    r0x05, W
028C A4D8      01565         BTFSS   STATUS, 2
028E D000      01566         BRA     _00286_DS_
gpasm-0.13.7 beta               /home/valentin/github/icaro-bloques/source/main.asm6-17-2012  16:18:02          PAGE 30


LOC  OBJECT CODE     LINE SOURCE TEXT
  VALUE
 
               01567 ;       .line   182; /home/valentin/github/icaro-bloques/tools/bin/../share/sdcc/include/pic16/servos.c else if (servovalues[s] < timings[timevalue][t]){
0290 0E00      01568         MOVLW   LOW(_servovalues)
0292 2400      01569         ADDWF   r0x03, W
0294 6E00      01570         MOVWF   r0x05
0296 6A00      01571         CLRF    r0x06
0298 0E00      01572         MOVLW   HIGH(_servovalues)
029A 2200      01573         ADDWFC  r0x06, F
029C C000 FFE9 01574         MOVFF   r0x05, FSR0L
02A0 C000 FFEA 01575         MOVFF   r0x06, FSR0H
02A4 CFEF F000 01576         MOVFF   INDF0, r0x05
02A8 0E00      01577         MOVLW   LOW(_timings + 54)
02AA 2400      01578         ADDWF   r0x01, W
02AC 6E00      01579         MOVWF   r0x06
02AE 6A00      01580         CLRF    r0x07
02B0 0E00      01581         MOVLW   HIGH(_timings + 54)
02B2 2200      01582         ADDWFC  r0x07, F
02B4 C000 FFE9 01583         MOVFF   r0x06, FSR0L
02B8 C000 FFEA 01584         MOVFF   r0x07, FSR0H
02BC CFEF F000 01585         MOVFF   INDF0, r0x08
02C0 5000      01586         MOVF    r0x08, W
02C2 5C00      01587         SUBWF   r0x05, W
02C4 E200      01588         BC      _00266_DS_
               01589 ;       .line   183; /home/valentin/github/icaro-bloques/tools/bin/../share/sdcc/include/pic16/servos.c timings[timevalue][t]=servovalues[s];
02C6 C000 FFE9 01590         MOVFF   r0x06, FSR0L
02CA C000 FFEA 01591         MOVFF   r0x07, FSR0H
02CE C000 FFEF 01592         MOVFF   r0x05, INDF0
               01593 ;       .line   185; /home/valentin/github/icaro-bloques/tools/bin/../share/sdcc/include/pic16/servos.c timings[MaskPort_C][t]=servomasks[s];
02D2 0E00      01594         MOVLW   LOW(_timings + 18)
02D4 2400      01595         ADDWF   r0x01, W
02D6 6E00      01596         MOVWF   r0x08
02D8 6A00      01597         CLRF    r0x09
02DA 0E00      01598         MOVLW   HIGH(_timings + 18)
02DC 2200      01599         ADDWFC  r0x09, F
02DE C000 FFE9 01600         MOVFF   r0x08, FSR0L
02E2 C000 FFEA 01601         MOVFF   r0x09, FSR0H
02E6 C000 FFEF 01602         MOVFF   r0x04, INDF0
               01603 ;       .line   186; /home/valentin/github/icaro-bloques/tools/bin/../share/sdcc/include/pic16/servos.c timings[MaskPort_A][t]=0x00;
02EA 0E00      01604         MOVLW   LOW(_timings + 36)
02EC 2400      01605         ADDWF   r0x01, W
02EE 6E00      01606         MOVWF   r0x08
02F0 6A00      01607         CLRF    r0x09
02F2 0E00      01608         MOVLW   HIGH(_timings + 36)
02F4 2200      01609         ADDWFC  r0x09, F
02F6 C000 FFE9 01610         MOVFF   r0x08, FSR0L
02FA C000 FFEA 01611         MOVFF   r0x09, FSR0H
02FE 6AEF      01612         CLRF    INDF0
               01613 ;       .line   187; /home/valentin/github/icaro-bloques/tools/bin/../share/sdcc/include/pic16/servos.c numservos=1;
0300 0E01      01614         MOVLW   0x01
0302 6E00      01615         MOVWF   r0x02
0304 D000      01616         BRA     _00286_DS_
0306 01617 _00266_DS_:
               01618 ;       .line   189; /home/valentin/github/icaro-bloques/tools/bin/../share/sdcc/include/pic16/servos.c else if (servovalues[s] == timings [timevalue][t]){
0306 C000 FFE9 01619         MOVFF   r0x06, FSR0L
030A C000 FFEA 01620         MOVFF   r0x07, FSR0H
gpasm-0.13.7 beta               /home/valentin/github/icaro-bloques/source/main.asm6-17-2012  16:18:02          PAGE 31


LOC  OBJECT CODE     LINE SOURCE TEXT
  VALUE
 
030E CFEF F000 01621         MOVFF   INDF0, r0x06
0312 5000      01622         MOVF    r0x05, W
0314 1800      01623         XORWF   r0x06, W
0316 E100      01624         BNZ     _00286_DS_
               01625 ;       .line   190; /home/valentin/github/icaro-bloques/tools/bin/../share/sdcc/include/pic16/servos.c timings[MaskPort_C][t] |= servomasks[s];
0318 0E00      01626         MOVLW   LOW(_timings + 18)
031A 2400      01627         ADDWF   r0x01, W
031C 6E00      01628         MOVWF   r0x05
031E 6A00      01629         CLRF    r0x06
0320 0E00      01630         MOVLW   HIGH(_timings + 18)
0322 2200      01631         ADDWFC  r0x06, F
0324 C000 FFE9 01632         MOVFF   r0x05, FSR0L
0328 C000 FFEA 01633         MOVFF   r0x06, FSR0H
032C CFEF F000 01634         MOVFF   INDF0, r0x07
0330 5000      01635         MOVF    r0x07, W
0332 1200      01636         IORWF   r0x04, F
0334 C000 FFE9 01637         MOVFF   r0x05, FSR0L
0338 C000 FFEA 01638         MOVFF   r0x06, FSR0H
033C C000 FFEF 01639         MOVFF   r0x04, INDF0
               01640 ;       .line   191; /home/valentin/github/icaro-bloques/tools/bin/../share/sdcc/include/pic16/servos.c numservos++;
0340 2A00      01641         INCF    r0x02, F
0342 01642 _00286_DS_:
               01643 ;       .line   145; /home/valentin/github/icaro-bloques/tools/bin/../share/sdcc/include/pic16/servos.c for(s=0;s<18;s++) { 
0342 2A00      01644         INCF    r0x03, F
0344 D000      01645         BRA     _00284_DS_
0346 01646 _00287_DS_:
               01647 ;       .line   197; /home/valentin/github/icaro-bloques/tools/bin/../share/sdcc/include/pic16/servos.c mascaratotal[MaskPort_C] |= timings[MaskPort_C][t];
0346 0E00      01648         MOVLW   LOW(_timings + 18)
0348 2400      01649         ADDWF   r0x01, W
034A 6E00      01650         MOVWF   r0x03
034C 6A00      01651         CLRF    r0x04
034E 0E00      01652         MOVLW   HIGH(_timings + 18)
0350 2200      01653         ADDWFC  r0x04, F
0352 C000 FFE9 01654         MOVFF   r0x03, FSR0L
0356 C000 FFEA 01655         MOVFF   r0x04, FSR0H
035A CFEF F000 01656         MOVFF   INDF0, r0x03
035E 0000      01657         BANKSEL (_SortServoTimings_mascaratotal_1_1 + 1)
0360 5100      01658         MOVF    (_SortServoTimings_mascaratotal_1_1 + 1), W, B
0362 1200      01659         IORWF   r0x03, F
0364 5000      01660         MOVF    r0x03, W
               01661 ; removed redundant BANKSEL
0366 6F00      01662         MOVWF   (_SortServoTimings_mascaratotal_1_1 + 1), B
               01663 ;       .line   198; /home/valentin/github/icaro-bloques/tools/bin/../share/sdcc/include/pic16/servos.c mascaratotal[MaskPort_A] |= timings[MaskPort_A][t];
0368 0E00      01664         MOVLW   LOW(_timings + 36)
036A 2400      01665         ADDWF   r0x01, W
036C 6E00      01666         MOVWF   r0x03
036E 6A00      01667         CLRF    r0x04
0370 0E00      01668         MOVLW   HIGH(_timings + 36)
0372 2200      01669         ADDWFC  r0x04, F
0374 C000 FFE9 01670         MOVFF   r0x03, FSR0L
0378 C000 FFEA 01671         MOVFF   r0x04, FSR0H
037C CFEF F000 01672         MOVFF   INDF0, r0x03
               01673 ; removed redundant BANKSEL
0380 5100      01674         MOVF    (_SortServoTimings_mascaratotal_1_1 + 2), W, B
gpasm-0.13.7 beta               /home/valentin/github/icaro-bloques/source/main.asm6-17-2012  16:18:02          PAGE 32


LOC  OBJECT CODE     LINE SOURCE TEXT
  VALUE
 
0382 1200      01675         IORWF   r0x03, F
0384 5000      01676         MOVF    r0x03, W
               01677 ; removed redundant BANKSEL
0386 6F00      01678         MOVWF   (_SortServoTimings_mascaratotal_1_1 + 2), B
               01679 ;       .line   199; /home/valentin/github/icaro-bloques/tools/bin/../share/sdcc/include/pic16/servos.c totalservos += numservos;
0388 5000      01680         MOVF    r0x02, W
038A 2600      01681         ADDWF   r0x00, F
               01682 ;       .line   200; /home/valentin/github/icaro-bloques/tools/bin/../share/sdcc/include/pic16/servos.c t++;
038C 2A00      01683         INCF    r0x01, F
038E D000      01684         BRA     _00277_DS_
0390 01685 _00279_DS_:
0390 0000      01686         BANKSEL _needreordering
               01687 ;       .line   203; /home/valentin/github/icaro-bloques/tools/bin/../share/sdcc/include/pic16/servos.c needreordering=0;  // This indicates that servo timings is ordered.     
0392 6B00      01688         CLRF    _needreordering, B
0394 CFE4 F000 01689         MOVFF   PREINC1, r0x09
0398 CFE4 F000 01690         MOVFF   PREINC1, r0x08
039C CFE4 F000 01691         MOVFF   PREINC1, r0x07
03A0 CFE4 F000 01692         MOVFF   PREINC1, r0x06
03A4 CFE4 F000 01693         MOVFF   PREINC1, r0x05
03A8 CFE4 F000 01694         MOVFF   PREINC1, r0x04
03AC CFE4 F000 01695         MOVFF   PREINC1, r0x03
03B0 CFE4 F000 01696         MOVFF   PREINC1, r0x02
03B4 CFE4 F000 01697         MOVFF   PREINC1, r0x01
03B8 CFE4 F000 01698         MOVFF   PREINC1, r0x00
03BC 0012      01699         RETURN  
               01700 
               01701 ; ; Starting pCode block
               01702 S_main__ServosPulseUp   code
0000 01703 _ServosPulseUp:
               01704 ;       .line   119; /home/valentin/github/icaro-bloques/tools/bin/../share/sdcc/include/pic16/servos.c PORTC = activatedservos[MaskPort_C] & 0xFF;
0000 C000 F000 01705         MOVFF   (_activatedservos + 1), _PORTC
               01706 ;       .line   120; /home/valentin/github/icaro-bloques/tools/bin/../share/sdcc/include/pic16/servos.c PORTA = activatedservos[MaskPort_A] & 0xFF;     
0004 C000 F000 01707         MOVFF   (_activatedservos + 2), _PORTA
0008 0012      01708         RETURN  
               01709 
               01710 ; ; Starting pCode block
               01711 S_main__ServosPulseDown code
0000 01712 _ServosPulseDown:
               01713 ;       .line   92; /home/valentin/github/icaro-bloques/tools/bin/../share/sdcc/include/pic16/servos.c  static void ServosPulseDown()
0000 CFD9 FFE5 01714         MOVFF   FSR2L, POSTDEC1
0004 CFE1 FFD9 01715         MOVFF   FSR1L, FSR2L
0008 C000 FFE5 01716         MOVFF   r0x00, POSTDEC1
000C C000 FFE5 01717         MOVFF   r0x01, POSTDEC1
0010 0000      01718         BANKSEL _timingindex
               01719 ;       .line   94; /home/valentin/github/icaro-bloques/tools/bin/../share/sdcc/include/pic16/servos.c  timingindex = 0;
0012 6B00      01720         CLRF    _timingindex, B
0014 0000      01721         BANKSEL _timedivision
               01722 ;       .line   96; /home/valentin/github/icaro-bloques/tools/bin/../share/sdcc/include/pic16/servos.c  for(timedivision=0;timedivision < 251;timedivision++){
0016 6B00      01723         CLRF    _timedivision, B
0018 01724 _00226_DS_:
0018 0EFB      01725         MOVLW   0xfb
001A 0000      01726         BANKSEL _timedivision
001C 5D00      01727         SUBWF   _timedivision, W, B
001E B0D8      01728         BTFSC   STATUS, 0
gpasm-0.13.7 beta               /home/valentin/github/icaro-bloques/source/main.asm6-17-2012  16:18:02          PAGE 33


LOC  OBJECT CODE     LINE SOURCE TEXT
  VALUE
 
0020 D000      01729         BRA     _00230_DS_
               01730 ;       .line   97; /home/valentin/github/icaro-bloques/tools/bin/../share/sdcc/include/pic16/servos.c  if (timings[timevalue][timingindex] == timedivision){
0022 C000 F000 01731         MOVFF   _timingindex, r0x00
0026 6A00      01732         CLRF    r0x01
0028 0E00      01733         MOVLW   LOW(_timings + 54)
002A 2600      01734         ADDWF   r0x00, F
002C 0E00      01735         MOVLW   HIGH(_timings + 54)
002E 2200      01736         ADDWFC  r0x01, F
0030 C000 FFE9 01737         MOVFF   r0x00, FSR0L
0034 C000 FFEA 01738         MOVFF   r0x01, FSR0H
0038 CFEF F000 01739         MOVFF   INDF0, r0x00
003C 5000      01740         MOVF    r0x00, W
               01741 ; removed redundant BANKSEL
003E 1900      01742         XORWF   _timedivision, W, B
0040 E100      01743         BNZ     _00225_DS_
               01744 ;       .line   99; /home/valentin/github/icaro-bloques/tools/bin/../share/sdcc/include/pic16/servos.c  PORTC = PORTC ^ timings[MaskPort_C][timingindex];
0042 C000 F000 01745         MOVFF   _timingindex, r0x00
0046 6A00      01746         CLRF    r0x01
0048 0E00      01747         MOVLW   LOW(_timings + 18)
004A 2600      01748         ADDWF   r0x00, F
004C 0E00      01749         MOVLW   HIGH(_timings + 18)
004E 2200      01750         ADDWFC  r0x01, F
0050 C000 FFE9 01751         MOVFF   r0x00, FSR0L
0054 C000 FFEA 01752         MOVFF   r0x01, FSR0H
0058 CFEF F000 01753         MOVFF   INDF0, r0x00
005C 5000      01754         MOVF    r0x00, W
005E 1A00      01755         XORWF   _PORTC, F
               01756 ;       .line   100; /home/valentin/github/icaro-bloques/tools/bin/../share/sdcc/include/pic16/servos.c PORTA = PORTA ^ timings[MaskPort_A][timingindex];
0060 C000 F000 01757         MOVFF   _timingindex, r0x00
0064 6A00      01758         CLRF    r0x01
0066 0E00      01759         MOVLW   LOW(_timings + 36)
0068 2600      01760         ADDWF   r0x00, F
006A 0E00      01761         MOVLW   HIGH(_timings + 36)
006C 2200      01762         ADDWFC  r0x01, F
006E C000 FFE9 01763         MOVFF   r0x00, FSR0L
0072 C000 FFEA 01764         MOVFF   r0x01, FSR0H
0076 CFEF F000 01765         MOVFF   INDF0, r0x00
007A 5000      01766         MOVF    r0x00, W
007C 1A00      01767         XORWF   _PORTA, F
007E 0000      01768         BANKSEL _timingindex
               01769 ;       .line   101; /home/valentin/github/icaro-bloques/tools/bin/../share/sdcc/include/pic16/servos.c timingindex++;
0080 2B00      01770         INCF    _timingindex, F, B
0082 01771 _00225_DS_:
0082 0E06      01772         movlw 6
0084 6E00      01773         movwf _loopvar
0086 01774 bucle:
0086 0000      01775         NOP
0088 2E00      01776         decfsz _loopvar,1
008A EF00 F000 01777         goto bucle
               01778         
008E 0000      01779         BANKSEL _timedivision
               01780 ;       .line   96; /home/valentin/github/icaro-bloques/tools/bin/../share/sdcc/include/pic16/servos.c  for(timedivision=0;timedivision < 251;timedivision++){
0090 2B00      01781         INCF    _timedivision, F, B
0092 D000      01782         BRA     _00226_DS_
gpasm-0.13.7 beta               /home/valentin/github/icaro-bloques/source/main.asm6-17-2012  16:18:02          PAGE 34


LOC  OBJECT CODE     LINE SOURCE TEXT
  VALUE
 
0094 01783 _00230_DS_:
0094 CFE4 F000 01784         MOVFF   PREINC1, r0x01
0098 CFE4 F000 01785         MOVFF   PREINC1, r0x00
009C CFE4 FFD9 01786         MOVFF   PREINC1, FSR2L
00A0 0012      01787         RETURN  
               01788 
               01789 ; ; Starting pCode block
               01790 S_main__servos_init     code
0000 01791 _servos_init:
               01792 ;       .line   71; /home/valentin/github/icaro-bloques/tools/bin/../share/sdcc/include/pic16/servos.c  void servos_init()
0000 C000 FFE5 01793         MOVFF   r0x00, POSTDEC1
0004 C000 FFE5 01794         MOVFF   r0x01, POSTDEC1
0008 C000 FFE5 01795         MOVFF   r0x02, POSTDEC1
               01796 ;       .line   75; /home/valentin/github/icaro-bloques/tools/bin/../share/sdcc/include/pic16/servos.c  for(a=0;a<18;a++) servovalues[a]=255;
000C 6A00      01797         CLRF    r0x00
000E 01798 _00210_DS_:
000E 0E12      01799         MOVLW   0x12
0010 5C00      01800         SUBWF   r0x00, W
0012 E200      01801         BC      _00213_DS_
0014 0E00      01802         MOVLW   LOW(_servovalues)
0016 2400      01803         ADDWF   r0x00, W
0018 6E00      01804         MOVWF   r0x01
001A 6A00      01805         CLRF    r0x02
001C 0E00      01806         MOVLW   HIGH(_servovalues)
001E 2200      01807         ADDWFC  r0x02, F
0020 C000 FFE9 01808         MOVFF   r0x01, FSR0L
0024 C000 FFEA 01809         MOVFF   r0x02, FSR0H
0028 68EF      01810         SETF    INDF0
002A 2A00      01811         INCF    r0x00, F
002C D000      01812         BRA     _00210_DS_
002E 01813 _00213_DS_:
               01814 ;       .line   78; /home/valentin/github/icaro-bloques/tools/bin/../share/sdcc/include/pic16/servos.c  TMR1H=0xFF;
002E 6800      01815         SETF    _TMR1H
               01816 ;       .line   79; /home/valentin/github/icaro-bloques/tools/bin/../share/sdcc/include/pic16/servos.c  TMR1L=0x00;
0030 6A00      01817         CLRF    _TMR1L
               01818 ;       .line   81; /home/valentin/github/icaro-bloques/tools/bin/../share/sdcc/include/pic16/servos.c  T1CON=0x01;
0032 0E01      01819         MOVLW   0x01
0034 6E00      01820         MOVWF   _T1CON
               01821 ;       .line   83; /home/valentin/github/icaro-bloques/tools/bin/../share/sdcc/include/pic16/servos.c  PIE1bits.TMR1IE=1;
0036 8000      01822         BSF     _PIE1bits, 0
               01823 ;       .line   85; /home/valentin/github/icaro-bloques/tools/bin/../share/sdcc/include/pic16/servos.c  INTCONbits.PEIE=1;
0038 8C00      01824         BSF     _INTCONbits, 6
               01825 ;       .line   87; /home/valentin/github/icaro-bloques/tools/bin/../share/sdcc/include/pic16/servos.c  INTCONbits.GIE=1;
003A 8E00      01826         BSF     _INTCONbits, 7
003C CFE4 F000 01827         MOVFF   PREINC1, r0x02
0040 CFE4 F000 01828         MOVFF   PREINC1, r0x01
0044 CFE4 F000 01829         MOVFF   PREINC1, r0x00
0048 0012      01830         RETURN  
               01831 
               01832 ; ; Starting pCode block
               01833 S_main__pinmode code
0000 01834 _pinmode:
               01835 ;       .line   69; /home/valentin/github/icaro-bloques/tools/bin/../share/sdcc/include/pic16/digitalw.c        void pinmode(int input, int state)
0000 CFD9 FFE5 01836         MOVFF   FSR2L, POSTDEC1
gpasm-0.13.7 beta               /home/valentin/github/icaro-bloques/source/main.asm6-17-2012  16:18:02          PAGE 35


LOC  OBJECT CODE     LINE SOURCE TEXT
  VALUE
 
0004 CFE1 FFD9 01837         MOVFF   FSR1L, FSR2L
0008 C000 FFE5 01838         MOVFF   r0x00, POSTDEC1
000C C000 FFE5 01839         MOVFF   r0x01, POSTDEC1
0010 C000 FFE5 01840         MOVFF   r0x02, POSTDEC1
0014 C000 FFE5 01841         MOVFF   r0x03, POSTDEC1
0018 C000 FFE5 01842         MOVFF   r0x04, POSTDEC1
001C C000 FFE5 01843         MOVFF   r0x05, POSTDEC1
0020 C000 FFE5 01844         MOVFF   r0x06, POSTDEC1
0024 0E02      01845         MOVLW   0x02
0026 CFDB F000 01846         MOVFF   PLUSW2, r0x00
002A 0E03      01847         MOVLW   0x03
002C CFDB F000 01848         MOVFF   PLUSW2, r0x01
0030 0E04      01849         MOVLW   0x04
0032 CFDB F000 01850         MOVFF   PLUSW2, r0x02
0036 0E05      01851         MOVLW   0x05
0038 CFDB F000 01852         MOVFF   PLUSW2, r0x03
               01853 ;       .line   71; /home/valentin/github/icaro-bloques/tools/bin/../share/sdcc/include/pic16/digitalw.c        switch (port[input])
003C 0E00      01854         MOVLW   LOW(_port)
003E 2400      01855         ADDWF   r0x00, W
0040 6E00      01856         MOVWF   r0x04
0042 0E00      01857         MOVLW   HIGH(_port)
0044 2000      01858         ADDWFC  r0x01, W
0046 6E00      01859         MOVWF   r0x05
0048 6A00      01860         CLRF    r0x06
004A BE00      01861         BTFSC   r0x01, 7
004C 6800      01862         SETF    r0x06
004E 0E00      01863         MOVLW   UPPER(_port)
0050 2200      01864         ADDWFC  r0x06, F
0052 C000 FFF6 01865         MOVFF   r0x04, TBLPTRL
0056 C000 FFF7 01866         MOVFF   r0x05, TBLPTRH
005A C000 FFF8 01867         MOVFF   r0x06, TBLPTRU
005E 0009      01868         TBLRD*+ 
0060 CFF5 F000 01869         MOVFF   TABLAT, r0x04
0064 0E05      01870         MOVLW   0x05
0066 5C00      01871         SUBWF   r0x04, W
0068 B0D8      01872         BTFSC   STATUS, 0
006A D000      01873         BRA     _00196_DS_
006C C000 FFE5 01874         MOVFF   r0x07, POSTDEC1
0070 C000 FFE5 01875         MOVFF   r0x08, POSTDEC1
0074 6A00      01876         CLRF    r0x08
0076 3400      01877         RLCF    r0x04, W
0078 3600      01878         RLCF    r0x08, F
007A 34E8      01879         RLCF    WREG, W
007C 3600      01880         RLCF    r0x08, F
007E 0BFC      01881         ANDLW   0xfc
0080 6E00      01882         MOVWF   r0x07
0082 0E00      01883         MOVLW   UPPER(_00205_DS_)
0084 6EFB      01884         MOVWF   PCLATU
0086 0E00      01885         MOVLW   HIGH(_00205_DS_)
0088 6EFA      01886         MOVWF   PCLATH
008A 0E00      01887         MOVLW   LOW(_00205_DS_)
008C 2600      01888         ADDWF   r0x07, F
008E 5000      01889         MOVF    r0x08, W
0090 22FA      01890         ADDWFC  PCLATH, F
gpasm-0.13.7 beta               /home/valentin/github/icaro-bloques/source/main.asm6-17-2012  16:18:02          PAGE 36


LOC  OBJECT CODE     LINE SOURCE TEXT
  VALUE
 
0092 B0D8      01891         BTFSC   STATUS, 0
0094 2AFB      01892         INCF    PCLATU, F
0096 5000      01893         MOVF    r0x07, W
0098 CFE4 F000 01894         MOVFF   PREINC1, r0x08
009C CFE4 F000 01895         MOVFF   PREINC1, r0x07
00A0 6EF9      01896         MOVWF   PCL
00A2 01897 _00205_DS_:
00A2 EF00 F000 01898         GOTO    _00175_DS_
00A6 EF00 F000 01899         GOTO    _00179_DS_
00AA EF00 F000 01900         GOTO    _00183_DS_
00AE EF00 F000 01901         GOTO    _00187_DS_
00B2 EF00 F000 01902         GOTO    _00191_DS_
00B6 01903 _00175_DS_:
               01904 ;       .line   73; /home/valentin/github/icaro-bloques/tools/bin/../share/sdcc/include/pic16/digitalw.c        case 0: if (state) TRISB=TRISB | mask[input];
00B6 5000      01905         MOVF    r0x02, W
00B8 1000      01906         IORWF   r0x03, W
00BA E000      01907         BZ      _00177_DS_
00BC 0E00      01908         MOVLW   LOW(_mask)
00BE 2400      01909         ADDWF   r0x00, W
00C0 6E00      01910         MOVWF   r0x04
00C2 0E00      01911         MOVLW   HIGH(_mask)
00C4 2000      01912         ADDWFC  r0x01, W
00C6 6E00      01913         MOVWF   r0x05
00C8 6A00      01914         CLRF    r0x06
00CA BE00      01915         BTFSC   r0x01, 7
00CC 6800      01916         SETF    r0x06
00CE 0E00      01917         MOVLW   UPPER(_mask)
00D0 2200      01918         ADDWFC  r0x06, F
00D2 C000 FFF6 01919         MOVFF   r0x04, TBLPTRL
00D6 C000 FFF7 01920         MOVFF   r0x05, TBLPTRH
00DA C000 FFF8 01921         MOVFF   r0x06, TBLPTRU
00DE 0009      01922         TBLRD*+ 
00E0 CFF5 F000 01923         MOVFF   TABLAT, r0x04
00E4 5000      01924         MOVF    r0x04, W
00E6 1200      01925         IORWF   _TRISB, F
00E8 D000      01926         BRA     _00196_DS_
00EA 01927 _00177_DS_:
               01928 ;       .line   74; /home/valentin/github/icaro-bloques/tools/bin/../share/sdcc/include/pic16/digitalw.c        else TRISB=TRISB & (255-mask[input]);
00EA 0E00      01929         MOVLW   LOW(_mask)
00EC 2400      01930         ADDWF   r0x00, W
00EE 6E00      01931         MOVWF   r0x04
00F0 0E00      01932         MOVLW   HIGH(_mask)
00F2 2000      01933         ADDWFC  r0x01, W
00F4 6E00      01934         MOVWF   r0x05
00F6 6A00      01935         CLRF    r0x06
00F8 BE00      01936         BTFSC   r0x01, 7
00FA 6800      01937         SETF    r0x06
00FC 0E00      01938         MOVLW   UPPER(_mask)
00FE 2200      01939         ADDWFC  r0x06, F
0100 C000 FFF6 01940         MOVFF   r0x04, TBLPTRL
0104 C000 FFF7 01941         MOVFF   r0x05, TBLPTRH
0108 C000 FFF8 01942         MOVFF   r0x06, TBLPTRU
010C 0009      01943         TBLRD*+ 
010E CFF5 F000 01944         MOVFF   TABLAT, r0x04
gpasm-0.13.7 beta               /home/valentin/github/icaro-bloques/source/main.asm6-17-2012  16:18:02          PAGE 37


LOC  OBJECT CODE     LINE SOURCE TEXT
  VALUE
 
0112 5000      01945         MOVF    r0x04, W
0114 08FF      01946         SUBLW   0xff
               01947 ; #     MOVWF   r0x04
               01948 ; #     MOVF    r0x04, W
0116 1600      01949         ANDWF   _TRISB, F
               01950 ;       .line   75; /home/valentin/github/icaro-bloques/tools/bin/../share/sdcc/include/pic16/digitalw.c        break;
0118 D000      01951         BRA     _00196_DS_
011A 01952 _00179_DS_:
               01953 ;       .line   76; /home/valentin/github/icaro-bloques/tools/bin/../share/sdcc/include/pic16/digitalw.c        case 1: if (state) TRISC=TRISC | mask[input];
011A 5000      01954         MOVF    r0x02, W
011C 1000      01955         IORWF   r0x03, W
011E E000      01956         BZ      _00181_DS_
0120 0E00      01957         MOVLW   LOW(_mask)
0122 2400      01958         ADDWF   r0x00, W
0124 6E00      01959         MOVWF   r0x04
0126 0E00      01960         MOVLW   HIGH(_mask)
0128 2000      01961         ADDWFC  r0x01, W
012A 6E00      01962         MOVWF   r0x05
012C 6A00      01963         CLRF    r0x06
012E BE00      01964         BTFSC   r0x01, 7
0130 6800      01965         SETF    r0x06
0132 0E00      01966         MOVLW   UPPER(_mask)
0134 2200      01967         ADDWFC  r0x06, F
0136 C000 FFF6 01968         MOVFF   r0x04, TBLPTRL
013A C000 FFF7 01969         MOVFF   r0x05, TBLPTRH
013E C000 FFF8 01970         MOVFF   r0x06, TBLPTRU
0142 0009      01971         TBLRD*+ 
0144 CFF5 F000 01972         MOVFF   TABLAT, r0x04
0148 5000      01973         MOVF    r0x04, W
014A 1200      01974         IORWF   _TRISC, F
014C D000      01975         BRA     _00196_DS_
014E 01976 _00181_DS_:
               01977 ;       .line   77; /home/valentin/github/icaro-bloques/tools/bin/../share/sdcc/include/pic16/digitalw.c        else TRISC=TRISC & (255-mask[input]);
014E 0E00      01978         MOVLW   LOW(_mask)
0150 2400      01979         ADDWF   r0x00, W
0152 6E00      01980         MOVWF   r0x04
0154 0E00      01981         MOVLW   HIGH(_mask)
0156 2000      01982         ADDWFC  r0x01, W
0158 6E00      01983         MOVWF   r0x05
015A 6A00      01984         CLRF    r0x06
015C BE00      01985         BTFSC   r0x01, 7
015E 6800      01986         SETF    r0x06
0160 0E00      01987         MOVLW   UPPER(_mask)
0162 2200      01988         ADDWFC  r0x06, F
0164 C000 FFF6 01989         MOVFF   r0x04, TBLPTRL
0168 C000 FFF7 01990         MOVFF   r0x05, TBLPTRH
016C C000 FFF8 01991         MOVFF   r0x06, TBLPTRU
0170 0009      01992         TBLRD*+ 
0172 CFF5 F000 01993         MOVFF   TABLAT, r0x04
0176 5000      01994         MOVF    r0x04, W
0178 08FF      01995         SUBLW   0xff
               01996 ; #     MOVWF   r0x04
               01997 ; #     MOVF    r0x04, W
017A 1600      01998         ANDWF   _TRISC, F
gpasm-0.13.7 beta               /home/valentin/github/icaro-bloques/source/main.asm6-17-2012  16:18:02          PAGE 38


LOC  OBJECT CODE     LINE SOURCE TEXT
  VALUE
 
               01999 ;       .line   78; /home/valentin/github/icaro-bloques/tools/bin/../share/sdcc/include/pic16/digitalw.c        break;
017C D000      02000         BRA     _00196_DS_
017E 02001 _00183_DS_:
               02002 ;       .line   79; /home/valentin/github/icaro-bloques/tools/bin/../share/sdcc/include/pic16/digitalw.c        case 2: if (state) TRISA=TRISA | mask[input];
017E 5000      02003         MOVF    r0x02, W
0180 1000      02004         IORWF   r0x03, W
0182 E000      02005         BZ      _00185_DS_
0184 0E00      02006         MOVLW   LOW(_mask)
0186 2400      02007         ADDWF   r0x00, W
0188 6E00      02008         MOVWF   r0x04
018A 0E00      02009         MOVLW   HIGH(_mask)
018C 2000      02010         ADDWFC  r0x01, W
018E 6E00      02011         MOVWF   r0x05
0190 6A00      02012         CLRF    r0x06
0192 BE00      02013         BTFSC   r0x01, 7
0194 6800      02014         SETF    r0x06
0196 0E00      02015         MOVLW   UPPER(_mask)
0198 2200      02016         ADDWFC  r0x06, F
019A C000 FFF6 02017         MOVFF   r0x04, TBLPTRL
019E C000 FFF7 02018         MOVFF   r0x05, TBLPTRH
01A2 C000 FFF8 02019         MOVFF   r0x06, TBLPTRU
01A6 0009      02020         TBLRD*+ 
01A8 CFF5 F000 02021         MOVFF   TABLAT, r0x04
01AC 5000      02022         MOVF    r0x04, W
01AE 1200      02023         IORWF   _TRISA, F
01B0 D000      02024         BRA     _00196_DS_
01B2 02025 _00185_DS_:
               02026 ;       .line   80; /home/valentin/github/icaro-bloques/tools/bin/../share/sdcc/include/pic16/digitalw.c        else TRISA=TRISA & (255-mask[input]);
01B2 0E00      02027         MOVLW   LOW(_mask)
01B4 2400      02028         ADDWF   r0x00, W
01B6 6E00      02029         MOVWF   r0x04
01B8 0E00      02030         MOVLW   HIGH(_mask)
01BA 2000      02031         ADDWFC  r0x01, W
01BC 6E00      02032         MOVWF   r0x05
01BE 6A00      02033         CLRF    r0x06
01C0 BE00      02034         BTFSC   r0x01, 7
01C2 6800      02035         SETF    r0x06
01C4 0E00      02036         MOVLW   UPPER(_mask)
01C6 2200      02037         ADDWFC  r0x06, F
01C8 C000 FFF6 02038         MOVFF   r0x04, TBLPTRL
01CC C000 FFF7 02039         MOVFF   r0x05, TBLPTRH
01D0 C000 FFF8 02040         MOVFF   r0x06, TBLPTRU
01D4 0009      02041         TBLRD*+ 
01D6 CFF5 F000 02042         MOVFF   TABLAT, r0x04
01DA 5000      02043         MOVF    r0x04, W
01DC 08FF      02044         SUBLW   0xff
               02045 ; #     MOVWF   r0x04
               02046 ; #     MOVF    r0x04, W
01DE 1600      02047         ANDWF   _TRISA, F
               02048 ;       .line   81; /home/valentin/github/icaro-bloques/tools/bin/../share/sdcc/include/pic16/digitalw.c        break;
01E0 D000      02049         BRA     _00196_DS_
01E2 02050 _00187_DS_:
               02051 ;       .line   83; /home/valentin/github/icaro-bloques/tools/bin/../share/sdcc/include/pic16/digitalw.c        case 3: if (state) TRISD=TRISD | mask[input];
01E2 5000      02052         MOVF    r0x02, W
gpasm-0.13.7 beta               /home/valentin/github/icaro-bloques/source/main.asm6-17-2012  16:18:02          PAGE 39


LOC  OBJECT CODE     LINE SOURCE TEXT
  VALUE
 
01E4 1000      02053         IORWF   r0x03, W
01E6 E000      02054         BZ      _00189_DS_
01E8 0E00      02055         MOVLW   LOW(_mask)
01EA 2400      02056         ADDWF   r0x00, W
01EC 6E00      02057         MOVWF   r0x04
01EE 0E00      02058         MOVLW   HIGH(_mask)
01F0 2000      02059         ADDWFC  r0x01, W
01F2 6E00      02060         MOVWF   r0x05
01F4 6A00      02061         CLRF    r0x06
01F6 BE00      02062         BTFSC   r0x01, 7
01F8 6800      02063         SETF    r0x06
01FA 0E00      02064         MOVLW   UPPER(_mask)
01FC 2200      02065         ADDWFC  r0x06, F
01FE C000 FFF6 02066         MOVFF   r0x04, TBLPTRL
0202 C000 FFF7 02067         MOVFF   r0x05, TBLPTRH
0206 C000 FFF8 02068         MOVFF   r0x06, TBLPTRU
020A 0009      02069         TBLRD*+ 
020C CFF5 F000 02070         MOVFF   TABLAT, r0x04
0210 5000      02071         MOVF    r0x04, W
0212 1200      02072         IORWF   _TRISD, F
0214 D000      02073         BRA     _00196_DS_
0216 02074 _00189_DS_:
               02075 ;       .line   84; /home/valentin/github/icaro-bloques/tools/bin/../share/sdcc/include/pic16/digitalw.c        else TRISD=TRISD & (255-mask[input]);
0216 0E00      02076         MOVLW   LOW(_mask)
0218 2400      02077         ADDWF   r0x00, W
021A 6E00      02078         MOVWF   r0x04
021C 0E00      02079         MOVLW   HIGH(_mask)
021E 2000      02080         ADDWFC  r0x01, W
0220 6E00      02081         MOVWF   r0x05
0222 6A00      02082         CLRF    r0x06
0224 BE00      02083         BTFSC   r0x01, 7
0226 6800      02084         SETF    r0x06
0228 0E00      02085         MOVLW   UPPER(_mask)
022A 2200      02086         ADDWFC  r0x06, F
022C C000 FFF6 02087         MOVFF   r0x04, TBLPTRL
0230 C000 FFF7 02088         MOVFF   r0x05, TBLPTRH
0234 C000 FFF8 02089         MOVFF   r0x06, TBLPTRU
0238 0009      02090         TBLRD*+ 
023A CFF5 F000 02091         MOVFF   TABLAT, r0x04
023E 5000      02092         MOVF    r0x04, W
0240 08FF      02093         SUBLW   0xff
               02094 ; #     MOVWF   r0x04
               02095 ; #     MOVF    r0x04, W
0242 1600      02096         ANDWF   _TRISD, F
               02097 ;       .line   85; /home/valentin/github/icaro-bloques/tools/bin/../share/sdcc/include/pic16/digitalw.c        break;
0244 D000      02098         BRA     _00196_DS_
0246 02099 _00191_DS_:
               02100 ;       .line   86; /home/valentin/github/icaro-bloques/tools/bin/../share/sdcc/include/pic16/digitalw.c        case 4: if (state) TRISE=TRISE | mask[input];
0246 5000      02101         MOVF    r0x02, W
0248 1000      02102         IORWF   r0x03, W
024A E000      02103         BZ      _00193_DS_
024C 0E00      02104         MOVLW   LOW(_mask)
024E 2400      02105         ADDWF   r0x00, W
0250 6E00      02106         MOVWF   r0x02
gpasm-0.13.7 beta               /home/valentin/github/icaro-bloques/source/main.asm6-17-2012  16:18:02          PAGE 40


LOC  OBJECT CODE     LINE SOURCE TEXT
  VALUE
 
0252 0E00      02107         MOVLW   HIGH(_mask)
0254 2000      02108         ADDWFC  r0x01, W
0256 6E00      02109         MOVWF   r0x03
0258 6A00      02110         CLRF    r0x04
025A BE00      02111         BTFSC   r0x01, 7
025C 6800      02112         SETF    r0x04
025E 0E00      02113         MOVLW   UPPER(_mask)
0260 2200      02114         ADDWFC  r0x04, F
0262 C000 FFF6 02115         MOVFF   r0x02, TBLPTRL
0266 C000 FFF7 02116         MOVFF   r0x03, TBLPTRH
026A C000 FFF8 02117         MOVFF   r0x04, TBLPTRU
026E 0009      02118         TBLRD*+ 
0270 CFF5 F000 02119         MOVFF   TABLAT, r0x02
0274 5000      02120         MOVF    r0x02, W
0276 1200      02121         IORWF   _TRISE, F
0278 D000      02122         BRA     _00196_DS_
027A 02123 _00193_DS_:
               02124 ;       .line   87; /home/valentin/github/icaro-bloques/tools/bin/../share/sdcc/include/pic16/digitalw.c        else TRISE=TRISE & (255-mask[input]);
027A 6A00      02125         CLRF    r0x02
027C BE00      02126         BTFSC   r0x01, 7
027E 6800      02127         SETF    r0x02
0280 0E00      02128         MOVLW   LOW(_mask)
0282 2600      02129         ADDWF   r0x00, F
0284 0E00      02130         MOVLW   HIGH(_mask)
0286 2200      02131         ADDWFC  r0x01, F
0288 0E00      02132         MOVLW   UPPER(_mask)
028A 2200      02133         ADDWFC  r0x02, F
028C C000 FFF6 02134         MOVFF   r0x00, TBLPTRL
0290 C000 FFF7 02135         MOVFF   r0x01, TBLPTRH
0294 C000 FFF8 02136         MOVFF   r0x02, TBLPTRU
0298 0009      02137         TBLRD*+ 
029A CFF5 F000 02138         MOVFF   TABLAT, r0x00
029E 5000      02139         MOVF    r0x00, W
02A0 08FF      02140         SUBLW   0xff
               02141 ; #     MOVWF   r0x00
               02142 ; #     MOVF    r0x00, W
02A2 1600      02143         ANDWF   _TRISE, F
02A4 02144 _00196_DS_:
               02145 ;       .line   90; /home/valentin/github/icaro-bloques/tools/bin/../share/sdcc/include/pic16/digitalw.c        }
02A4 CFE4 F000 02146         MOVFF   PREINC1, r0x06
02A8 CFE4 F000 02147         MOVFF   PREINC1, r0x05
02AC CFE4 F000 02148         MOVFF   PREINC1, r0x04
02B0 CFE4 F000 02149         MOVFF   PREINC1, r0x03
02B4 CFE4 F000 02150         MOVFF   PREINC1, r0x02
02B8 CFE4 F000 02151         MOVFF   PREINC1, r0x01
02BC CFE4 F000 02152         MOVFF   PREINC1, r0x00
02C0 CFE4 FFD9 02153         MOVFF   PREINC1, FSR2L
02C4 0012      02154         RETURN  
               02155 
               02156 ; ; Starting pCode block
               02157 S_main__digitalread     code
0000 02158 _digitalread:
               02159 ;       .line   44; /home/valentin/github/icaro-bloques/tools/bin/../share/sdcc/include/pic16/digitalw.c        int digitalread(int input)
0000 CFD9 FFE5 02160         MOVFF   FSR2L, POSTDEC1
gpasm-0.13.7 beta               /home/valentin/github/icaro-bloques/source/main.asm6-17-2012  16:18:02          PAGE 41


LOC  OBJECT CODE     LINE SOURCE TEXT
  VALUE
 
0004 CFE1 FFD9 02161         MOVFF   FSR1L, FSR2L
0008 C000 FFE5 02162         MOVFF   r0x00, POSTDEC1
000C C000 FFE5 02163         MOVFF   r0x01, POSTDEC1
0010 C000 FFE5 02164         MOVFF   r0x02, POSTDEC1
0014 C000 FFE5 02165         MOVFF   r0x03, POSTDEC1
0018 C000 FFE5 02166         MOVFF   r0x04, POSTDEC1
001C 0E02      02167         MOVLW   0x02
001E CFDB F000 02168         MOVFF   PLUSW2, r0x00
0022 0E03      02169         MOVLW   0x03
0024 CFDB F000 02170         MOVFF   PLUSW2, r0x01
               02171 ;       .line   46; /home/valentin/github/icaro-bloques/tools/bin/../share/sdcc/include/pic16/digitalw.c        switch (port[input])
0028 0E00      02172         MOVLW   LOW(_port)
002A 2400      02173         ADDWF   r0x00, W
002C 6E00      02174         MOVWF   r0x02
002E 0E00      02175         MOVLW   HIGH(_port)
0030 2000      02176         ADDWFC  r0x01, W
0032 6E00      02177         MOVWF   r0x03
0034 6A00      02178         CLRF    r0x04
0036 BE00      02179         BTFSC   r0x01, 7
0038 6800      02180         SETF    r0x04
003A 0E00      02181         MOVLW   UPPER(_port)
003C 2200      02182         ADDWFC  r0x04, F
003E C000 FFF6 02183         MOVFF   r0x02, TBLPTRL
0042 C000 FFF7 02184         MOVFF   r0x03, TBLPTRH
0046 C000 FFF8 02185         MOVFF   r0x04, TBLPTRU
004A 0009      02186         TBLRD*+ 
004C CFF5 F000 02187         MOVFF   TABLAT, r0x02
0050 0E05      02188         MOVLW   0x05
0052 5C00      02189         SUBWF   r0x02, W
0054 B0D8      02190         BTFSC   STATUS, 0
0056 D000      02191         BRA     _00160_DS_
0058 C000 FFE5 02192         MOVFF   r0x05, POSTDEC1
005C C000 FFE5 02193         MOVFF   r0x06, POSTDEC1
0060 6A00      02194         CLRF    r0x06
0062 3400      02195         RLCF    r0x02, W
0064 3600      02196         RLCF    r0x06, F
0066 34E8      02197         RLCF    WREG, W
0068 3600      02198         RLCF    r0x06, F
006A 0BFC      02199         ANDLW   0xfc
006C 6E00      02200         MOVWF   r0x05
006E 0E00      02201         MOVLW   UPPER(_00170_DS_)
0070 6EFB      02202         MOVWF   PCLATU
0072 0E00      02203         MOVLW   HIGH(_00170_DS_)
0074 6EFA      02204         MOVWF   PCLATH
0076 0E00      02205         MOVLW   LOW(_00170_DS_)
0078 2600      02206         ADDWF   r0x05, F
007A 5000      02207         MOVF    r0x06, W
007C 22FA      02208         ADDWFC  PCLATH, F
007E B0D8      02209         BTFSC   STATUS, 0
0080 2AFB      02210         INCF    PCLATU, F
0082 5000      02211         MOVF    r0x05, W
0084 CFE4 F000 02212         MOVFF   PREINC1, r0x06
0088 CFE4 F000 02213         MOVFF   PREINC1, r0x05
008C 6EF9      02214         MOVWF   PCL
gpasm-0.13.7 beta               /home/valentin/github/icaro-bloques/source/main.asm6-17-2012  16:18:02          PAGE 42


LOC  OBJECT CODE     LINE SOURCE TEXT
  VALUE
 
008E 02215 _00170_DS_:
008E EF00 F000 02216         GOTO    _00140_DS_
0092 EF00 F000 02217         GOTO    _00144_DS_
0096 EF00 F000 02218         GOTO    _00148_DS_
009A EF00 F000 02219         GOTO    _00152_DS_
009E EF00 F000 02220         GOTO    _00156_DS_
00A2 02221 _00140_DS_:
               02222 ;       .line   48; /home/valentin/github/icaro-bloques/tools/bin/../share/sdcc/include/pic16/digitalw.c        case 0: if ((PORTB & mask[input])!=0) return (1);
00A2 0E00      02223         MOVLW   LOW(_mask)
00A4 2400      02224         ADDWF   r0x00, W
00A6 6E00      02225         MOVWF   r0x02
00A8 0E00      02226         MOVLW   HIGH(_mask)
00AA 2000      02227         ADDWFC  r0x01, W
00AC 6E00      02228         MOVWF   r0x03
00AE 6A00      02229         CLRF    r0x04
00B0 BE00      02230         BTFSC   r0x01, 7
00B2 6800      02231         SETF    r0x04
00B4 0E00      02232         MOVLW   UPPER(_mask)
00B6 2200      02233         ADDWFC  r0x04, F
00B8 C000 FFF6 02234         MOVFF   r0x02, TBLPTRL
00BC C000 FFF7 02235         MOVFF   r0x03, TBLPTRH
00C0 C000 FFF8 02236         MOVFF   r0x04, TBLPTRU
00C4 0009      02237         TBLRD*+ 
00C6 CFF5 F000 02238         MOVFF   TABLAT, r0x02
00CA 5000      02239         MOVF    _PORTB, W
00CC 1600      02240         ANDWF   r0x02, F
00CE 5000      02241         MOVF    r0x02, W
00D0 E000      02242         BZ      _00142_DS_
00D2 6AF3      02243         CLRF    PRODL
00D4 0E01      02244         MOVLW   0x01
00D6 D000      02245         BRA     _00161_DS_
00D8 02246 _00142_DS_:
               02247 ;       .line   49; /home/valentin/github/icaro-bloques/tools/bin/../share/sdcc/include/pic16/digitalw.c        else return (0);
00D8 6AF3      02248         CLRF    PRODL
00DA 6AE8      02249         CLRF    WREG
00DC D000      02250         BRA     _00161_DS_
00DE 02251 _00144_DS_:
               02252 ;       .line   51; /home/valentin/github/icaro-bloques/tools/bin/../share/sdcc/include/pic16/digitalw.c        case 1: if ((PORTC & mask[input])!=0) return (1);
00DE 0E00      02253         MOVLW   LOW(_mask)
00E0 2400      02254         ADDWF   r0x00, W
00E2 6E00      02255         MOVWF   r0x02
00E4 0E00      02256         MOVLW   HIGH(_mask)
00E6 2000      02257         ADDWFC  r0x01, W
00E8 6E00      02258         MOVWF   r0x03
00EA 6A00      02259         CLRF    r0x04
00EC BE00      02260         BTFSC   r0x01, 7
00EE 6800      02261         SETF    r0x04
00F0 0E00      02262         MOVLW   UPPER(_mask)
00F2 2200      02263         ADDWFC  r0x04, F
00F4 C000 FFF6 02264         MOVFF   r0x02, TBLPTRL
00F8 C000 FFF7 02265         MOVFF   r0x03, TBLPTRH
00FC C000 FFF8 02266         MOVFF   r0x04, TBLPTRU
0100 0009      02267         TBLRD*+ 
0102 CFF5 F000 02268         MOVFF   TABLAT, r0x02
gpasm-0.13.7 beta               /home/valentin/github/icaro-bloques/source/main.asm6-17-2012  16:18:02          PAGE 43


LOC  OBJECT CODE     LINE SOURCE TEXT
  VALUE
 
0106 5000      02269         MOVF    _PORTC, W
0108 1600      02270         ANDWF   r0x02, F
010A 5000      02271         MOVF    r0x02, W
010C E000      02272         BZ      _00146_DS_
010E 6AF3      02273         CLRF    PRODL
0110 0E01      02274         MOVLW   0x01
0112 D000      02275         BRA     _00161_DS_
0114 02276 _00146_DS_:
               02277 ;       .line   52; /home/valentin/github/icaro-bloques/tools/bin/../share/sdcc/include/pic16/digitalw.c        else return (0);
0114 6AF3      02278         CLRF    PRODL
0116 6AE8      02279         CLRF    WREG
0118 D000      02280         BRA     _00161_DS_
011A 02281 _00148_DS_:
               02282 ;       .line   54; /home/valentin/github/icaro-bloques/tools/bin/../share/sdcc/include/pic16/digitalw.c        case 2: if ((PORTA & mask[input])!=0) return (1);
011A 0E00      02283         MOVLW   LOW(_mask)
011C 2400      02284         ADDWF   r0x00, W
011E 6E00      02285         MOVWF   r0x02
0120 0E00      02286         MOVLW   HIGH(_mask)
0122 2000      02287         ADDWFC  r0x01, W
0124 6E00      02288         MOVWF   r0x03
0126 6A00      02289         CLRF    r0x04
0128 BE00      02290         BTFSC   r0x01, 7
012A 6800      02291         SETF    r0x04
012C 0E00      02292         MOVLW   UPPER(_mask)
012E 2200      02293         ADDWFC  r0x04, F
0130 C000 FFF6 02294         MOVFF   r0x02, TBLPTRL
0134 C000 FFF7 02295         MOVFF   r0x03, TBLPTRH
0138 C000 FFF8 02296         MOVFF   r0x04, TBLPTRU
013C 0009      02297         TBLRD*+ 
013E CFF5 F000 02298         MOVFF   TABLAT, r0x02
0142 5000      02299         MOVF    _PORTA, W
0144 1600      02300         ANDWF   r0x02, F
0146 5000      02301         MOVF    r0x02, W
0148 E000      02302         BZ      _00150_DS_
014A 6AF3      02303         CLRF    PRODL
014C 0E01      02304         MOVLW   0x01
014E D000      02305         BRA     _00161_DS_
0150 02306 _00150_DS_:
               02307 ;       .line   55; /home/valentin/github/icaro-bloques/tools/bin/../share/sdcc/include/pic16/digitalw.c        else return (0);
0150 6AF3      02308         CLRF    PRODL
0152 6AE8      02309         CLRF    WREG
0154 D000      02310         BRA     _00161_DS_
0156 02311 _00152_DS_:
               02312 ;       .line   58; /home/valentin/github/icaro-bloques/tools/bin/../share/sdcc/include/pic16/digitalw.c        case 3: if ((PORTD & mask[input])!=0) return (1);
0156 0E00      02313         MOVLW   LOW(_mask)
0158 2400      02314         ADDWF   r0x00, W
015A 6E00      02315         MOVWF   r0x02
015C 0E00      02316         MOVLW   HIGH(_mask)
015E 2000      02317         ADDWFC  r0x01, W
0160 6E00      02318         MOVWF   r0x03
0162 6A00      02319         CLRF    r0x04
0164 BE00      02320         BTFSC   r0x01, 7
0166 6800      02321         SETF    r0x04
0168 0E00      02322         MOVLW   UPPER(_mask)
gpasm-0.13.7 beta               /home/valentin/github/icaro-bloques/source/main.asm6-17-2012  16:18:02          PAGE 44


LOC  OBJECT CODE     LINE SOURCE TEXT
  VALUE
 
016A 2200      02323         ADDWFC  r0x04, F
016C C000 FFF6 02324         MOVFF   r0x02, TBLPTRL
0170 C000 FFF7 02325         MOVFF   r0x03, TBLPTRH
0174 C000 FFF8 02326         MOVFF   r0x04, TBLPTRU
0178 0009      02327         TBLRD*+ 
017A CFF5 F000 02328         MOVFF   TABLAT, r0x02
017E 5000      02329         MOVF    _PORTD, W
0180 1600      02330         ANDWF   r0x02, F
0182 5000      02331         MOVF    r0x02, W
0184 E000      02332         BZ      _00154_DS_
0186 6AF3      02333         CLRF    PRODL
0188 0E01      02334         MOVLW   0x01
018A D000      02335         BRA     _00161_DS_
018C 02336 _00154_DS_:
               02337 ;       .line   59; /home/valentin/github/icaro-bloques/tools/bin/../share/sdcc/include/pic16/digitalw.c        else return (0);
018C 6AF3      02338         CLRF    PRODL
018E 6AE8      02339         CLRF    WREG
0190 D000      02340         BRA     _00161_DS_
0192 02341 _00156_DS_:
               02342 ;       .line   61; /home/valentin/github/icaro-bloques/tools/bin/../share/sdcc/include/pic16/digitalw.c        case 4: if ((PORTE & mask[input])!=0) return (1);
0192 6A00      02343         CLRF    r0x02
0194 BE00      02344         BTFSC   r0x01, 7
0196 6800      02345         SETF    r0x02
0198 0E00      02346         MOVLW   LOW(_mask)
019A 2600      02347         ADDWF   r0x00, F
019C 0E00      02348         MOVLW   HIGH(_mask)
019E 2200      02349         ADDWFC  r0x01, F
01A0 0E00      02350         MOVLW   UPPER(_mask)
01A2 2200      02351         ADDWFC  r0x02, F
01A4 C000 FFF6 02352         MOVFF   r0x00, TBLPTRL
01A8 C000 FFF7 02353         MOVFF   r0x01, TBLPTRH
01AC C000 FFF8 02354         MOVFF   r0x02, TBLPTRU
01B0 0009      02355         TBLRD*+ 
01B2 CFF5 F000 02356         MOVFF   TABLAT, r0x00
01B6 5000      02357         MOVF    _PORTE, W
01B8 1600      02358         ANDWF   r0x00, F
01BA 5000      02359         MOVF    r0x00, W
01BC E000      02360         BZ      _00158_DS_
01BE 6AF3      02361         CLRF    PRODL
01C0 0E01      02362         MOVLW   0x01
01C2 D000      02363         BRA     _00161_DS_
01C4 02364 _00158_DS_:
               02365 ;       .line   62; /home/valentin/github/icaro-bloques/tools/bin/../share/sdcc/include/pic16/digitalw.c        else return (0);
01C4 6AF3      02366         CLRF    PRODL
01C6 6AE8      02367         CLRF    WREG
01C8 D000      02368         BRA     _00161_DS_
01CA 02369 _00160_DS_:
               02370 ;       .line   66; /home/valentin/github/icaro-bloques/tools/bin/../share/sdcc/include/pic16/digitalw.c        return (0);
01CA 6AF3      02371         CLRF    PRODL
01CC 6AE8      02372         CLRF    WREG
01CE 02373 _00161_DS_:
01CE CFE4 F000 02374         MOVFF   PREINC1, r0x04
01D2 CFE4 F000 02375         MOVFF   PREINC1, r0x03
01D6 CFE4 F000 02376         MOVFF   PREINC1, r0x02
gpasm-0.13.7 beta               /home/valentin/github/icaro-bloques/source/main.asm6-17-2012  16:18:02          PAGE 45


LOC  OBJECT CODE     LINE SOURCE TEXT
  VALUE
 
01DA CFE4 F000 02377         MOVFF   PREINC1, r0x01
01DE CFE4 F000 02378         MOVFF   PREINC1, r0x00
01E2 CFE4 FFD9 02379         MOVFF   PREINC1, FSR2L
01E6 0012      02380         RETURN  
               02381 
               02382 ; ; Starting pCode block
               02383 S_main__digitalwrite    code
0000 02384 _digitalwrite:
               02385 ;       .line   20; /home/valentin/github/icaro-bloques/tools/bin/../share/sdcc/include/pic16/digitalw.c        void digitalwrite(int output,int state)
0000 CFD9 FFE5 02386         MOVFF   FSR2L, POSTDEC1
0004 CFE1 FFD9 02387         MOVFF   FSR1L, FSR2L
0008 C000 FFE5 02388         MOVFF   r0x00, POSTDEC1
000C C000 FFE5 02389         MOVFF   r0x01, POSTDEC1
0010 C000 FFE5 02390         MOVFF   r0x02, POSTDEC1
0014 C000 FFE5 02391         MOVFF   r0x03, POSTDEC1
0018 C000 FFE5 02392         MOVFF   r0x04, POSTDEC1
001C C000 FFE5 02393         MOVFF   r0x05, POSTDEC1
0020 C000 FFE5 02394         MOVFF   r0x06, POSTDEC1
0024 0E02      02395         MOVLW   0x02
0026 CFDB F000 02396         MOVFF   PLUSW2, r0x00
002A 0E03      02397         MOVLW   0x03
002C CFDB F000 02398         MOVFF   PLUSW2, r0x01
0030 0E04      02399         MOVLW   0x04
0032 CFDB F000 02400         MOVFF   PLUSW2, r0x02
0036 0E05      02401         MOVLW   0x05
0038 CFDB F000 02402         MOVFF   PLUSW2, r0x03
               02403 ;       .line   22; /home/valentin/github/icaro-bloques/tools/bin/../share/sdcc/include/pic16/digitalw.c        switch (port[output])
003C 0E00      02404         MOVLW   LOW(_port)
003E 2400      02405         ADDWF   r0x00, W
0040 6E00      02406         MOVWF   r0x04
0042 0E00      02407         MOVLW   HIGH(_port)
0044 2000      02408         ADDWFC  r0x01, W
0046 6E00      02409         MOVWF   r0x05
0048 6A00      02410         CLRF    r0x06
004A BE00      02411         BTFSC   r0x01, 7
004C 6800      02412         SETF    r0x06
004E 0E00      02413         MOVLW   UPPER(_port)
0050 2200      02414         ADDWFC  r0x06, F
0052 C000 FFF6 02415         MOVFF   r0x04, TBLPTRL
0056 C000 FFF7 02416         MOVFF   r0x05, TBLPTRH
005A C000 FFF8 02417         MOVFF   r0x06, TBLPTRU
005E 0009      02418         TBLRD*+ 
0060 CFF5 F000 02419         MOVFF   TABLAT, r0x04
0064 0E05      02420         MOVLW   0x05
0066 5C00      02421         SUBWF   r0x04, W
0068 B0D8      02422         BTFSC   STATUS, 0
006A D000      02423         BRA     _00126_DS_
006C C000 FFE5 02424         MOVFF   r0x07, POSTDEC1
0070 C000 FFE5 02425         MOVFF   r0x08, POSTDEC1
0074 6A00      02426         CLRF    r0x08
0076 3400      02427         RLCF    r0x04, W
0078 3600      02428         RLCF    r0x08, F
007A 34E8      02429         RLCF    WREG, W
007C 3600      02430         RLCF    r0x08, F
gpasm-0.13.7 beta               /home/valentin/github/icaro-bloques/source/main.asm6-17-2012  16:18:02          PAGE 46


LOC  OBJECT CODE     LINE SOURCE TEXT
  VALUE
 
007E 0BFC      02431         ANDLW   0xfc
0080 6E00      02432         MOVWF   r0x07
0082 0E00      02433         MOVLW   UPPER(_00135_DS_)
0084 6EFB      02434         MOVWF   PCLATU
0086 0E00      02435         MOVLW   HIGH(_00135_DS_)
0088 6EFA      02436         MOVWF   PCLATH
008A 0E00      02437         MOVLW   LOW(_00135_DS_)
008C 2600      02438         ADDWF   r0x07, F
008E 5000      02439         MOVF    r0x08, W
0090 22FA      02440         ADDWFC  PCLATH, F
0092 B0D8      02441         BTFSC   STATUS, 0
0094 2AFB      02442         INCF    PCLATU, F
0096 5000      02443         MOVF    r0x07, W
0098 CFE4 F000 02444         MOVFF   PREINC1, r0x08
009C CFE4 F000 02445         MOVFF   PREINC1, r0x07
00A0 6EF9      02446         MOVWF   PCL
00A2 02447 _00135_DS_:
00A2 EF00 F000 02448         GOTO    _00105_DS_
00A6 EF00 F000 02449         GOTO    _00109_DS_
00AA EF00 F000 02450         GOTO    _00113_DS_
00AE EF00 F000 02451         GOTO    _00117_DS_
00B2 EF00 F000 02452         GOTO    _00121_DS_
00B6 02453 _00105_DS_:
               02454 ;       .line   24; /home/valentin/github/icaro-bloques/tools/bin/../share/sdcc/include/pic16/digitalw.c        case 0: if (state) PORTB=PORTB | mask[output]; 
00B6 5000      02455         MOVF    r0x02, W
00B8 1000      02456         IORWF   r0x03, W
00BA E000      02457         BZ      _00107_DS_
00BC 0E00      02458         MOVLW   LOW(_mask)
00BE 2400      02459         ADDWF   r0x00, W
00C0 6E00      02460         MOVWF   r0x04
00C2 0E00      02461         MOVLW   HIGH(_mask)
00C4 2000      02462         ADDWFC  r0x01, W
00C6 6E00      02463         MOVWF   r0x05
00C8 6A00      02464         CLRF    r0x06
00CA BE00      02465         BTFSC   r0x01, 7
00CC 6800      02466         SETF    r0x06
00CE 0E00      02467         MOVLW   UPPER(_mask)
00D0 2200      02468         ADDWFC  r0x06, F
00D2 C000 FFF6 02469         MOVFF   r0x04, TBLPTRL
00D6 C000 FFF7 02470         MOVFF   r0x05, TBLPTRH
00DA C000 FFF8 02471         MOVFF   r0x06, TBLPTRU
00DE 0009      02472         TBLRD*+ 
00E0 CFF5 F000 02473         MOVFF   TABLAT, r0x04
00E4 5000      02474         MOVF    r0x04, W
00E6 1200      02475         IORWF   _PORTB, F
00E8 D000      02476         BRA     _00126_DS_
00EA 02477 _00107_DS_:
               02478 ;       .line   25; /home/valentin/github/icaro-bloques/tools/bin/../share/sdcc/include/pic16/digitalw.c        else PORTB=PORTB & (255-mask[output]);
00EA 0E00      02479         MOVLW   LOW(_mask)
00EC 2400      02480         ADDWF   r0x00, W
00EE 6E00      02481         MOVWF   r0x04
00F0 0E00      02482         MOVLW   HIGH(_mask)
00F2 2000      02483         ADDWFC  r0x01, W
00F4 6E00      02484         MOVWF   r0x05
gpasm-0.13.7 beta               /home/valentin/github/icaro-bloques/source/main.asm6-17-2012  16:18:02          PAGE 47


LOC  OBJECT CODE     LINE SOURCE TEXT
  VALUE
 
00F6 6A00      02485         CLRF    r0x06
00F8 BE00      02486         BTFSC   r0x01, 7
00FA 6800      02487         SETF    r0x06
00FC 0E00      02488         MOVLW   UPPER(_mask)
00FE 2200      02489         ADDWFC  r0x06, F
0100 C000 FFF6 02490         MOVFF   r0x04, TBLPTRL
0104 C000 FFF7 02491         MOVFF   r0x05, TBLPTRH
0108 C000 FFF8 02492         MOVFF   r0x06, TBLPTRU
010C 0009      02493         TBLRD*+ 
010E CFF5 F000 02494         MOVFF   TABLAT, r0x04
0112 5000      02495         MOVF    r0x04, W
0114 08FF      02496         SUBLW   0xff
               02497 ; #     MOVWF   r0x04
               02498 ; #     MOVF    r0x04, W
0116 1600      02499         ANDWF   _PORTB, F
               02500 ;       .line   26; /home/valentin/github/icaro-bloques/tools/bin/../share/sdcc/include/pic16/digitalw.c        break;
0118 D000      02501         BRA     _00126_DS_
011A 02502 _00109_DS_:
               02503 ;       .line   27; /home/valentin/github/icaro-bloques/tools/bin/../share/sdcc/include/pic16/digitalw.c        case 1: if (state) PORTC=PORTC | mask[output];
011A 5000      02504         MOVF    r0x02, W
011C 1000      02505         IORWF   r0x03, W
011E E000      02506         BZ      _00111_DS_
0120 0E00      02507         MOVLW   LOW(_mask)
0122 2400      02508         ADDWF   r0x00, W
0124 6E00      02509         MOVWF   r0x04
0126 0E00      02510         MOVLW   HIGH(_mask)
0128 2000      02511         ADDWFC  r0x01, W
012A 6E00      02512         MOVWF   r0x05
012C 6A00      02513         CLRF    r0x06
012E BE00      02514         BTFSC   r0x01, 7
0130 6800      02515         SETF    r0x06
0132 0E00      02516         MOVLW   UPPER(_mask)
0134 2200      02517         ADDWFC  r0x06, F
0136 C000 FFF6 02518         MOVFF   r0x04, TBLPTRL
013A C000 FFF7 02519         MOVFF   r0x05, TBLPTRH
013E C000 FFF8 02520         MOVFF   r0x06, TBLPTRU
0142 0009      02521         TBLRD*+ 
0144 CFF5 F000 02522         MOVFF   TABLAT, r0x04
0148 5000      02523         MOVF    r0x04, W
014A 1200      02524         IORWF   _PORTC, F
014C D000      02525         BRA     _00126_DS_
014E 02526 _00111_DS_:
               02527 ;       .line   28; /home/valentin/github/icaro-bloques/tools/bin/../share/sdcc/include/pic16/digitalw.c        else PORTC=PORTC & (255-mask[output]);
014E 0E00      02528         MOVLW   LOW(_mask)
0150 2400      02529         ADDWF   r0x00, W
0152 6E00      02530         MOVWF   r0x04
0154 0E00      02531         MOVLW   HIGH(_mask)
0156 2000      02532         ADDWFC  r0x01, W
0158 6E00      02533         MOVWF   r0x05
015A 6A00      02534         CLRF    r0x06
015C BE00      02535         BTFSC   r0x01, 7
015E 6800      02536         SETF    r0x06
0160 0E00      02537         MOVLW   UPPER(_mask)
0162 2200      02538         ADDWFC  r0x06, F
gpasm-0.13.7 beta               /home/valentin/github/icaro-bloques/source/main.asm6-17-2012  16:18:02          PAGE 48


LOC  OBJECT CODE     LINE SOURCE TEXT
  VALUE
 
0164 C000 FFF6 02539         MOVFF   r0x04, TBLPTRL
0168 C000 FFF7 02540         MOVFF   r0x05, TBLPTRH
016C C000 FFF8 02541         MOVFF   r0x06, TBLPTRU
0170 0009      02542         TBLRD*+ 
0172 CFF5 F000 02543         MOVFF   TABLAT, r0x04
0176 5000      02544         MOVF    r0x04, W
0178 08FF      02545         SUBLW   0xff
               02546 ; #     MOVWF   r0x04
               02547 ; #     MOVF    r0x04, W
017A 1600      02548         ANDWF   _PORTC, F
               02549 ;       .line   29; /home/valentin/github/icaro-bloques/tools/bin/../share/sdcc/include/pic16/digitalw.c        break;
017C D000      02550         BRA     _00126_DS_
017E 02551 _00113_DS_:
               02552 ;       .line   30; /home/valentin/github/icaro-bloques/tools/bin/../share/sdcc/include/pic16/digitalw.c        case 2: if (state) PORTA=PORTA | mask[output];
017E 5000      02553         MOVF    r0x02, W
0180 1000      02554         IORWF   r0x03, W
0182 E000      02555         BZ      _00115_DS_
0184 0E00      02556         MOVLW   LOW(_mask)
0186 2400      02557         ADDWF   r0x00, W
0188 6E00      02558         MOVWF   r0x04
018A 0E00      02559         MOVLW   HIGH(_mask)
018C 2000      02560         ADDWFC  r0x01, W
018E 6E00      02561         MOVWF   r0x05
0190 6A00      02562         CLRF    r0x06
0192 BE00      02563         BTFSC   r0x01, 7
0194 6800      02564         SETF    r0x06
0196 0E00      02565         MOVLW   UPPER(_mask)
0198 2200      02566         ADDWFC  r0x06, F
019A C000 FFF6 02567         MOVFF   r0x04, TBLPTRL
019E C000 FFF7 02568         MOVFF   r0x05, TBLPTRH
01A2 C000 FFF8 02569         MOVFF   r0x06, TBLPTRU
01A6 0009      02570         TBLRD*+ 
01A8 CFF5 F000 02571         MOVFF   TABLAT, r0x04
01AC 5000      02572         MOVF    r0x04, W
01AE 1200      02573         IORWF   _PORTA, F
01B0 D000      02574         BRA     _00126_DS_
01B2 02575 _00115_DS_:
               02576 ;       .line   31; /home/valentin/github/icaro-bloques/tools/bin/../share/sdcc/include/pic16/digitalw.c        else PORTA=PORTA & (255-mask[output]);
01B2 0E00      02577         MOVLW   LOW(_mask)
01B4 2400      02578         ADDWF   r0x00, W
01B6 6E00      02579         MOVWF   r0x04
01B8 0E00      02580         MOVLW   HIGH(_mask)
01BA 2000      02581         ADDWFC  r0x01, W
01BC 6E00      02582         MOVWF   r0x05
01BE 6A00      02583         CLRF    r0x06
01C0 BE00      02584         BTFSC   r0x01, 7
01C2 6800      02585         SETF    r0x06
01C4 0E00      02586         MOVLW   UPPER(_mask)
01C6 2200      02587         ADDWFC  r0x06, F
01C8 C000 FFF6 02588         MOVFF   r0x04, TBLPTRL
01CC C000 FFF7 02589         MOVFF   r0x05, TBLPTRH
01D0 C000 FFF8 02590         MOVFF   r0x06, TBLPTRU
01D4 0009      02591         TBLRD*+ 
01D6 CFF5 F000 02592         MOVFF   TABLAT, r0x04
gpasm-0.13.7 beta               /home/valentin/github/icaro-bloques/source/main.asm6-17-2012  16:18:02          PAGE 49


LOC  OBJECT CODE     LINE SOURCE TEXT
  VALUE
 
01DA 5000      02593         MOVF    r0x04, W
01DC 08FF      02594         SUBLW   0xff
               02595 ; #     MOVWF   r0x04
               02596 ; #     MOVF    r0x04, W
01DE 1600      02597         ANDWF   _PORTA, F
               02598 ;       .line   32; /home/valentin/github/icaro-bloques/tools/bin/../share/sdcc/include/pic16/digitalw.c        break;
01E0 D000      02599         BRA     _00126_DS_
01E2 02600 _00117_DS_:
               02601 ;       .line   34; /home/valentin/github/icaro-bloques/tools/bin/../share/sdcc/include/pic16/digitalw.c        case 3: if (state) PORTD=PORTD | mask[output]; 
01E2 5000      02602         MOVF    r0x02, W
01E4 1000      02603         IORWF   r0x03, W
01E6 E000      02604         BZ      _00119_DS_
01E8 0E00      02605         MOVLW   LOW(_mask)
01EA 2400      02606         ADDWF   r0x00, W
01EC 6E00      02607         MOVWF   r0x04
01EE 0E00      02608         MOVLW   HIGH(_mask)
01F0 2000      02609         ADDWFC  r0x01, W
01F2 6E00      02610         MOVWF   r0x05
01F4 6A00      02611         CLRF    r0x06
01F6 BE00      02612         BTFSC   r0x01, 7
01F8 6800      02613         SETF    r0x06
01FA 0E00      02614         MOVLW   UPPER(_mask)
01FC 2200      02615         ADDWFC  r0x06, F
01FE C000 FFF6 02616         MOVFF   r0x04, TBLPTRL
0202 C000 FFF7 02617         MOVFF   r0x05, TBLPTRH
0206 C000 FFF8 02618         MOVFF   r0x06, TBLPTRU
020A 0009      02619         TBLRD*+ 
020C CFF5 F000 02620         MOVFF   TABLAT, r0x04
0210 5000      02621         MOVF    r0x04, W
0212 1200      02622         IORWF   _PORTD, F
0214 D000      02623         BRA     _00126_DS_
0216 02624 _00119_DS_:
               02625 ;       .line   35; /home/valentin/github/icaro-bloques/tools/bin/../share/sdcc/include/pic16/digitalw.c        else PORTD=PORTD & (255-mask[output]);
0216 0E00      02626         MOVLW   LOW(_mask)
0218 2400      02627         ADDWF   r0x00, W
021A 6E00      02628         MOVWF   r0x04
021C 0E00      02629         MOVLW   HIGH(_mask)
021E 2000      02630         ADDWFC  r0x01, W
0220 6E00      02631         MOVWF   r0x05
0222 6A00      02632         CLRF    r0x06
0224 BE00      02633         BTFSC   r0x01, 7
0226 6800      02634         SETF    r0x06
0228 0E00      02635         MOVLW   UPPER(_mask)
022A 2200      02636         ADDWFC  r0x06, F
022C C000 FFF6 02637         MOVFF   r0x04, TBLPTRL
0230 C000 FFF7 02638         MOVFF   r0x05, TBLPTRH
0234 C000 FFF8 02639         MOVFF   r0x06, TBLPTRU
0238 0009      02640         TBLRD*+ 
023A CFF5 F000 02641         MOVFF   TABLAT, r0x04
023E 5000      02642         MOVF    r0x04, W
0240 08FF      02643         SUBLW   0xff
               02644 ; #     MOVWF   r0x04
               02645 ; #     MOVF    r0x04, W
0242 1600      02646         ANDWF   _PORTD, F
gpasm-0.13.7 beta               /home/valentin/github/icaro-bloques/source/main.asm6-17-2012  16:18:02          PAGE 50


LOC  OBJECT CODE     LINE SOURCE TEXT
  VALUE
 
               02647 ;       .line   36; /home/valentin/github/icaro-bloques/tools/bin/../share/sdcc/include/pic16/digitalw.c        break;
0244 D000      02648         BRA     _00126_DS_
0246 02649 _00121_DS_:
               02650 ;       .line   37; /home/valentin/github/icaro-bloques/tools/bin/../share/sdcc/include/pic16/digitalw.c        case 4: if (state) PORTE=PORTE | mask[output]; 
0246 5000      02651         MOVF    r0x02, W
0248 1000      02652         IORWF   r0x03, W
024A E000      02653         BZ      _00123_DS_
024C 0E00      02654         MOVLW   LOW(_mask)
024E 2400      02655         ADDWF   r0x00, W
0250 6E00      02656         MOVWF   r0x02
0252 0E00      02657         MOVLW   HIGH(_mask)
0254 2000      02658         ADDWFC  r0x01, W
0256 6E00      02659         MOVWF   r0x03
0258 6A00      02660         CLRF    r0x04
025A BE00      02661         BTFSC   r0x01, 7
025C 6800      02662         SETF    r0x04
025E 0E00      02663         MOVLW   UPPER(_mask)
0260 2200      02664         ADDWFC  r0x04, F
0262 C000 FFF6 02665         MOVFF   r0x02, TBLPTRL
0266 C000 FFF7 02666         MOVFF   r0x03, TBLPTRH
026A C000 FFF8 02667         MOVFF   r0x04, TBLPTRU
026E 0009      02668         TBLRD*+ 
0270 CFF5 F000 02669         MOVFF   TABLAT, r0x02
0274 5000      02670         MOVF    r0x02, W
0276 1200      02671         IORWF   _PORTE, F
0278 D000      02672         BRA     _00126_DS_
027A 02673 _00123_DS_:
               02674 ;       .line   38; /home/valentin/github/icaro-bloques/tools/bin/../share/sdcc/include/pic16/digitalw.c        else PORTE=PORTE & (255-mask[output]);
027A 6A00      02675         CLRF    r0x02
027C BE00      02676         BTFSC   r0x01, 7
027E 6800      02677         SETF    r0x02
0280 0E00      02678         MOVLW   LOW(_mask)
0282 2600      02679         ADDWF   r0x00, F
0284 0E00      02680         MOVLW   HIGH(_mask)
0286 2200      02681         ADDWFC  r0x01, F
0288 0E00      02682         MOVLW   UPPER(_mask)
028A 2200      02683         ADDWFC  r0x02, F
028C C000 FFF6 02684         MOVFF   r0x00, TBLPTRL
0290 C000 FFF7 02685         MOVFF   r0x01, TBLPTRH
0294 C000 FFF8 02686         MOVFF   r0x02, TBLPTRU
0298 0009      02687         TBLRD*+ 
029A CFF5 F000 02688         MOVFF   TABLAT, r0x00
029E 5000      02689         MOVF    r0x00, W
02A0 08FF      02690         SUBLW   0xff
               02691 ; #     MOVWF   r0x00
               02692 ; #     MOVF    r0x00, W
02A2 1600      02693         ANDWF   _PORTE, F
02A4 02694 _00126_DS_:
               02695 ;       .line   41; /home/valentin/github/icaro-bloques/tools/bin/../share/sdcc/include/pic16/digitalw.c        }
02A4 CFE4 F000 02696         MOVFF   PREINC1, r0x06
02A8 CFE4 F000 02697         MOVFF   PREINC1, r0x05
02AC CFE4 F000 02698         MOVFF   PREINC1, r0x04
02B0 CFE4 F000 02699         MOVFF   PREINC1, r0x03
02B4 CFE4 F000 02700         MOVFF   PREINC1, r0x02
gpasm-0.13.7 beta               /home/valentin/github/icaro-bloques/source/main.asm6-17-2012  16:18:02          PAGE 51


LOC  OBJECT CODE     LINE SOURCE TEXT
  VALUE
 
02B8 CFE4 F000 02701         MOVFF   PREINC1, r0x01
02BC CFE4 F000 02702         MOVFF   PREINC1, r0x00
02C0 CFE4 FFD9 02703         MOVFF   PREINC1, FSR2L
02C4 0012      02704         RETURN  
               02705 
               02706 ; ; Starting pCode block for Ival
               02707         code
0000 02708 _mask:
0000 0201 0804 02709         DB      0x01, 0x02, 0x04, 0x08, 0x10, 0x20, 0x40, 0x80, 0x40, 0x80, 0x01, 0x02
     2010 8040 
     8040 0201 
000C 0104 0402 02710         DB      0x04, 0x01, 0x02, 0x04, 0x08, 0x20, 0x01, 0x02, 0x04, 0x01, 0x02, 0x04
     2008 0201 
     0104 0402 
0018 1008 4020 02711         DB      0x08, 0x10, 0x20, 0x40, 0x80
     0080      
               02712 ; ; Starting pCode block for Ival
001E 02713 _port:
001E 0000 0000 02714         DB      0x00, 0x00, 0x00, 0x00, 0x00, 0x00, 0x00, 0x00, 0x01, 0x01, 0x01, 0x01
     0000 0000 
     0101 0101 
002A 0201 0202 02715         DB      0x01, 0x02, 0x02, 0x02, 0x02, 0x02, 0x04, 0x04, 0x04, 0x03, 0x03, 0x03
     0202 0404 
     0304 0303 
0036 0303 0303 02716         DB      0x03, 0x03, 0x03, 0x03, 0x03
     0003      
               02717 ; ; Starting pCode block for Ival
003C 02718 _servomasks:
003C 0201 0804 02719         DB      0x01, 0x02, 0x04, 0x08, 0x10, 0x20, 0x40, 0x80, 0x40, 0x80, 0x01, 0x02
     2010 8040 
     8040 0201 
0048 0104 0402 02720         DB      0x04, 0x01, 0x02, 0x04, 0x08, 0x20
     2008      
               02721 
               02722 
               02723 ; Statistics:
               02724 ; code size:     4826 (0x12da) bytes ( 3.68%)
               02725 ;                2413 (0x096d) words
               02726 ; udata size:      96 (0x0060) bytes ( 5.36%)
               02727 ; access size:     10 (0x000a) bytes
               02728 
               02729 
gpasm-0.13.7 beta               /home/valentin/github/icaro-bloques/source/main.asm6-17-2012  16:18:02          PAGE 52


SYMBOL TABLE
  LABEL                             VALUE 

BSR                               00000FE0
FSR0H                             00000FEA
FSR0L                             00000FE9
FSR1L                             00000FE1
FSR2L                             00000FD9
INDF0                             00000FEF
PCL                               00000FF9
PCLATH                            00000FFA
PCLATU                            00000FFB
PLUSW2                            00000FDB
POSTDEC1                          00000FE5
PREINC1                           00000FE4
PRODH                             00000FF4
PRODL                             00000FF3
STATUS                            00000FD8
TABLAT                            00000FF5
TBLPTRH                           00000FF7
TBLPTRL                           00000FF6
TBLPTRU                           00000FF8
WREG                              00000FE8
_00105_DS_                        000000B6
_00107_DS_                        000000EA
_00109_DS_                        0000011A
_00111_DS_                        0000014E
_00113_DS_                        0000017E
_00115_DS_                        000001B2
_00117_DS_                        000001E2
_00119_DS_                        00000216
_00121_DS_                        00000246
_00123_DS_                        0000027A
_00126_DS_                        000002A4
_00135_DS_                        000000A2
_00140_DS_                        000000A2
_00142_DS_                        000000D8
_00144_DS_                        000000DE
_00146_DS_                        00000114
_00148_DS_                        0000011A
_00150_DS_                        00000150
_00152_DS_                        00000156
_00154_DS_                        0000018C
_00156_DS_                        00000192
_00158_DS_                        000001C4
_00160_DS_                        000001CA
_00161_DS_                        000001CE
_00170_DS_                        0000008E
_00175_DS_                        000000B6
_00177_DS_                        000000EA
_00179_DS_                        0000011A
_00181_DS_                        0000014E
_00183_DS_                        0000017E
_00185_DS_                        000001B2
_00187_DS_                        000001E2
_00189_DS_                        00000216
gpasm-0.13.7 beta               /home/valentin/github/icaro-bloques/source/main.asm6-17-2012  16:18:02          PAGE 53


LOC  OBJECT CODE     LINE SOURCE TEXT
  VALUE
 
_00191_DS_                        00000246
_00193_DS_                        0000027A
_00196_DS_                        000002A4
_00205_DS_                        000000A2
_00210_DS_                        0000000E
_00213_DS_                        0000002E
_00225_DS_                        00000082
_00226_DS_                        00000018
_00230_DS_                        00000094
_00250_DS_                        0000014A
_00258_DS_                        00000218
_00266_DS_                        00000306
_00272_DS_                        00000258
_00275_DS_                        00000162
_00277_DS_                        00000082
_00279_DS_                        00000390
_00280_DS_                        00000032
_00283_DS_                        0000007E
_00284_DS_                        00000090
_00286_DS_                        00000342
_00287_DS_                        00000346
_00317_DS_                        0000015E
_00322_DS_                        0000022C
_00335_DS_                        0000009A
_00338_DS_                        00000060
_00340_DS_                        000000CA
_00357_DS_                        00000092
_00360_DS_                        0000005C
_00362_DS_                        000000BE
_00378_DS_                        00000030
_00380_DS_                        0000003A
_00381_DS_                        00000056
_00394_DS_                        00000020
_00395_DS_                        00000038
_00405_DS_                        00000036
_00415_DS_                        00000038
_00426_DS_                        00000024
_00430_DS_                        00000044
_00440_DS_                        0000004C
_00445_DS_                        0000003A
_00451_DS_                        00000048
_00455_DS_                        00000076
_00460_DS_                        0000005E
_00465_DS_                        00000028
_00469_DS_                        0000003C
_00474_DS_                        00000032
_00515_DS_                        00000018
_ADCON0                           00000000
_ADCON0bits                       00000000
_ADCON1                           00000000
_ADCON1bits                       00000000
_ADCON2                           00000000
_ADCON2bits                       00000000
_ADRESH                           00000000
gpasm-0.13.7 beta               /home/valentin/github/icaro-bloques/source/main.asm6-17-2012  16:18:02          PAGE 54


LOC  OBJECT CODE     LINE SOURCE TEXT
  VALUE
 
_ADRESL                           00000000
_BAUDCON                          00000000
_BAUDCONbits                      00000000
_BSR                              00000000
_BSRbits                          00000000
_CCP1CON                          00000000
_CCP1CONbits                      00000000
_CCP2CON                          00000000
_CCP2CONbits                      00000000
_CCPR1H                           00000000
_CCPR1L                           00000000
_CCPR2H                           00000000
_CCPR2L                           00000000
_CMCON                            00000000
_CMCONbits                        00000000
_CVRCON                           00000000
_CVRCONbits                       00000000
_Delayms                          00000000
_Delayus                          00000000
_ECCP1AS                          00000000
_ECCP1ASbits                      00000000
_ECCP1DEL                         00000000
_ECCP1DELbits                     00000000
_EEADR                            00000000
_EECON1                           00000000
_EECON1bits                       00000000
_EECON2                           00000000
_EEDATA                           00000000
_FSR0H                            00000000
_FSR0Hbits                        00000000
_FSR0L                            00000000
_FSR1H                            00000000
_FSR1Hbits                        00000000
_FSR1L                            00000000
_FSR2H                            00000000
_FSR2Hbits                        00000000
_FSR2L                            00000000
_HLVDCON                          00000000
_HLVDCONbits                      00000000
_INDF0                            00000000
_INDF1                            00000000
_INDF2                            00000000
_INTCON                           00000000
_INTCON2                          00000000
_INTCON2bits                      00000000
_INTCON3                          00000000
_INTCON3bits                      00000000
_INTCONbits                       00000000
_IPR1                             00000000
_IPR1bits                         00000000
_IPR2                             00000000
_IPR2bits                         00000000
_LATA                             00000000
_LATAbits                         00000000
gpasm-0.13.7 beta               /home/valentin/github/icaro-bloques/source/main.asm6-17-2012  16:18:02          PAGE 55


LOC  OBJECT CODE     LINE SOURCE TEXT
  VALUE
 
_LATB                             00000000
_LATBbits                         00000000
_LATC                             00000000
_LATCbits                         00000000
_LATD                             00000000
_LATDbits                         00000000
_LATE                             00000000
_LATEbits                         00000000
_OSCCON                           00000000
_OSCCONbits                       00000000
_OSCTUNE                          00000000
_OSCTUNEbits                      00000000
_PCL                              00000000
_PCLATH                           00000000
_PCLATHbits                       00000000
_PCLATU                           00000000
_PCLATUbits                       00000000
_PIE1                             00000000
_PIE1bits                         00000000
_PIE2                             00000000
_PIE2bits                         00000000
_PIR1                             00000000
_PIR1bits                         00000000
_PIR2                             00000000
_PIR2bits                         00000000
_PLUSW0                           00000000
_PLUSW1                           00000000
_PLUSW2                           00000000
_PORTA                            00000000
_PORTAbits                        00000000
_PORTB                            00000000
_PORTBbits                        00000000
_PORTC                            00000000
_PORTCbits                        00000000
_PORTD                            00000000
_PORTDbits                        00000000
_PORTE                            00000000
_PORTEbits                        00000000
_POSTDEC0                         00000000
_POSTDEC1                         00000000
_POSTDEC2                         00000000
_POSTINC0                         00000000
_POSTINC1                         00000000
_POSTINC2                         00000000
_PR2                              00000000
_PREINC0                          00000000
_PREINC1                          00000000
_PREINC2                          00000000
_PRODH                            00000000
_PRODL                            00000000
_RCON                             00000000
_RCONbits                         00000000
_RCREG                            00000000
_RCSTA                            00000000
gpasm-0.13.7 beta               /home/valentin/github/icaro-bloques/source/main.asm6-17-2012  16:18:02          PAGE 56


LOC  OBJECT CODE     LINE SOURCE TEXT
  VALUE
 
_RCSTAbits                        00000000
_SPBRG                            00000000
_SPBRGH                           00000000
_SPPCFG                           00000000
_SPPCFGbits                       00000000
_SPPCON                           00000000
_SPPCONbits                       00000000
_SPPDATA                          00000000
_SPPDATAbits                      00000000
_SPPEPS                           00000000
_SPPEPSbits                       00000000
_SSPADD                           00000000
_SSPBUF                           00000000
_SSPCON1                          00000000
_SSPCON1bits                      00000000
_SSPCON2                          00000000
_SSPCON2bits                      00000000
_SSPSTAT                          00000000
_SSPSTATbits                      00000000
_STATUS                           00000000
_STATUSbits                       00000000
_STKPTR                           00000000
_STKPTRbits                       00000000
_ServoAttach                      00000000
_ServoDetach                      00000000
_ServoMaximumPulse                00000000
_ServoMinimumPulse                00000000
_ServoRead                        00000000
_ServoWrite                       00000000
_ServosPulseDown                  00000000
_ServosPulseUp                    00000000
_SortServoTimings                 00000000
_SortServoTimings_mascaratotal_1_1  00000000
_T0CON                            00000000
_T0CONbits                        00000000
_T1CON                            00000000
_T1CONbits                        00000000
_T2CON                            00000000
_T2CONbits                        00000000
_T3CON                            00000000
_T3CONbits                        00000000
_TABLAT                           00000000
_TBLPTRH                          00000000
_TBLPTRL                          00000000
_TBLPTRU                          00000000
_TBLPTRUbits                      00000000
_TMR0H                            00000000
_TMR0L                            00000000
_TMR1H                            00000000
_TMR1L                            00000000
_TMR2                             00000000
_TMR3H                            00000000
_TMR3L                            00000000
_TOSH                             00000000
gpasm-0.13.7 beta               /home/valentin/github/icaro-bloques/source/main.asm6-17-2012  16:18:02          PAGE 57


LOC  OBJECT CODE     LINE SOURCE TEXT
  VALUE
 
_TOSL                             00000000
_TOSU                             00000000
_TOSUbits                         00000000
_TRISA                            00000000
_TRISAbits                        00000000
_TRISB                            00000000
_TRISBbits                        00000000
_TRISC                            00000000
_TRISCbits                        00000000
_TRISD                            00000000
_TRISDbits                        00000000
_TRISE                            00000000
_TRISEbits                        00000000
_TXREG                            00000000
_TXSTA                            00000000
_TXSTAbits                        00000000
_UADDR                            00000000
_UADDRbits                        00000000
_UCFG                             00000000
_UCFGbits                         00000000
_UCON                             00000000
_UCONbits                         00000000
_UEIE                             00000000
_UEIEbits                         00000000
_UEIR                             00000000
_UEIRbits                         00000000
_UEP0                             00000000
_UEP0bits                         00000000
_UEP1                             00000000
_UEP10                            00000000
_UEP10bits                        00000000
_UEP11                            00000000
_UEP11bits                        00000000
_UEP12                            00000000
_UEP12bits                        00000000
_UEP13                            00000000
_UEP13bits                        00000000
_UEP14                            00000000
_UEP14bits                        00000000
_UEP15                            00000000
_UEP15bits                        00000000
_UEP1bits                         00000000
_UEP2                             00000000
_UEP2bits                         00000000
_UEP3                             00000000
_UEP3bits                         00000000
_UEP4                             00000000
_UEP4bits                         00000000
_UEP5                             00000000
_UEP5bits                         00000000
_UEP6                             00000000
_UEP6bits                         00000000
_UEP7                             00000000
_UEP7bits                         00000000
gpasm-0.13.7 beta               /home/valentin/github/icaro-bloques/source/main.asm6-17-2012  16:18:02          PAGE 58


LOC  OBJECT CODE     LINE SOURCE TEXT
  VALUE
 
_UEP8                             00000000
_UEP8bits                         00000000
_UEP9                             00000000
_UEP9bits                         00000000
_UFRMH                            00000000
_UFRMHbits                        00000000
_UFRML                            00000000
_UFRMLbits                        00000000
_UIE                              00000000
_UIEbits                          00000000
_UIR                              00000000
_UIRbits                          00000000
_USTAT                            00000000
_USTATbits                        00000000
_WDTCON                           00000000
_WDTCONbits                       00000000
_WREG                             00000000
__18F4550                         00000001
_activatedservos                  00000003
_analog_init                      00000000
_analogread                       00000000
_delay10ktcy                      00000000
_digitalread                      00000000
_digitalwrite                     00000000
_epap_in                          00000000
_epap_out                         00000000
_epapin_init                      00000000
_epapout_init                     00000000
_high_priority_isr                00002020
_i                                00000000
_loop                             00000000
_loopvar                          00000000
_low_priority_isr                 00004000
_mask                             00000000
_needreordering                   00000001
_phase                            00000000
_pinguino_main                    00000000
_pinmode                          00000000
_port                             0000001E
_sensor                           00000000
_servomasks                       0000003C
_servos_init                      00000000
_servos_interrupt                 00000000
_servovalues                      00000000
_setup                            00000000
_tiempo                           00000006
_tiempo2                          0000000A
_timedivision                     00000002
_timingindex                      00000000
_timings                          00000000
_usb_active_alt_setting           00000000
_usb_active_cfg                   00000000
_usb_device_state                 00000000
bucle                             00000086
gpasm-0.13.7 beta               /home/valentin/github/icaro-bloques/source/main.asm6-17-2012  16:18:02          PAGE 59


LOC  OBJECT CODE     LINE SOURCE TEXT
  VALUE
 
r0x00                             00000000
r0x01                             00000001
r0x02                             00000002
r0x03                             00000003
r0x04                             00000004
r0x05                             00000005
r0x06                             00000006
r0x07                             00000007
r0x08                             00000008
r0x09                             00000009


Errors   :       0
Warnings :       0 reported,       0 suppressed
Messages :       0 reported,       0 suppressed

