gpasm-1.4.2 #1169 (Aug  3 2017) /home/vbasel/   3-17-2018  14:24:43         PAGE  1


LOC    OBJECT CODE    LINE  SOURCE TEXT
  VALUE

                      00001 ;--------------------------------------------------------
                      00002 ; File Created by SDCC : free open source ANSI-C Compiler
                      00003 ; Version 3.6.0 #9615 (Linux)
                      00004 ;--------------------------------------------------------
                      00005 ; PIC16 port for the Microchip 16-bit core micros
                      00006 ;--------------------------------------------------------
                      00007         list    p=18f4550
                      00008         radix   dec
                      00009 
                      00010 
                      00011 ;--------------------------------------------------------
                      00012 ; public variables in this module
                      00013 ;--------------------------------------------------------
  0000                00014         global  ___uflags
  0000                00015         global  __i
  0000                00016         global  _loopvar
  0000                00017         global  _timingindex
  0000                00018         global  __cpu_clock_
  0000                00019         global  __entry
  0000                00020         global  __startup
  0000                00021         global  _main
  0000                00022         global  _phase
  0000                00023         global  _needreordering
  0000                00024         global  _timedivision
  0000                00025         global  _mascaratotal
  0000                00026         global  _timevalue
  0000                00027         global  _timings
  0000                00028         global  _activatedservos
  0000                00029         global  _servovalues
  0000                00030         global  _maxminpos
  0000                00031         global  _System_readFlashMemory
  0000                00032         global  _System_getCpuFrequency
  0000                00033         global  _Delayms
  0000                00034         global  _pinmode
  0000                00035         global  _digitalwrite
  0000                00036         global  _digitalread
  0000                00037         global  _toggle
  0000                00038         global  _servos_init
  0000                00039         global  _ServoAttach
  0000                00040         global  _ServoDetach
  0000                00041         global  _ServoWrite
  0000                00042         global  _ServoRead
  0000                00043         global  _ServoMinimumPulse
  0000                00044         global  _ServoMaximumPulse
  0000                00045         global  _servos_interrupt
  0000                00046         global  _analog_init
  0000                00047         global  _analogreference
  0000                00048         global  _analogread
  0000                00049         global  _analogwrite_init
  0000                00050         global  _analogwrite
  0000                00051         global  _IO_init
  0000                00052         global  _IO_digital
  0000                00053         global  _Delayus
gpasm-1.4.2 #1169 (Aug  3 2017) /home/vbasel/   3-17-2018  14:24:43         PAGE  2


LOC    OBJECT CODE    LINE  SOURCE TEXT
  VALUE

  0000                00054         global  _ping
  0000                00055         global  _setup
  0000                00056         global  _sensordigital
  0000                00057         global  _loop
  0000                00058         global  _high_priority_isr
  0000                00059         global  _low_priority_isr
  0000                00060         global  _mask
  0000                00061         global  _port
                      00062 
                      00063 ;--------------------------------------------------------
                      00064 ; extern variables in this module
                      00065 ;--------------------------------------------------------
  0000                00066         extern  _SPPDATAbits
  0000                00067         extern  _SPPCFGbits
  0000                00068         extern  _SPPEPSbits
  0000                00069         extern  _SPPCONbits
  0000                00070         extern  _UFRMLbits
  0000                00071         extern  _UFRMHbits
  0000                00072         extern  _UIRbits
  0000                00073         extern  _UIEbits
  0000                00074         extern  _UEIRbits
  0000                00075         extern  _UEIEbits
  0000                00076         extern  _USTATbits
  0000                00077         extern  _UCONbits
  0000                00078         extern  _UADDRbits
  0000                00079         extern  _UCFGbits
  0000                00080         extern  _UEP0bits
  0000                00081         extern  _UEP1bits
  0000                00082         extern  _UEP2bits
  0000                00083         extern  _UEP3bits
  0000                00084         extern  _UEP4bits
  0000                00085         extern  _UEP5bits
  0000                00086         extern  _UEP6bits
  0000                00087         extern  _UEP7bits
  0000                00088         extern  _UEP8bits
  0000                00089         extern  _UEP9bits
  0000                00090         extern  _UEP10bits
  0000                00091         extern  _UEP11bits
  0000                00092         extern  _UEP12bits
  0000                00093         extern  _UEP13bits
  0000                00094         extern  _UEP14bits
  0000                00095         extern  _UEP15bits
  0000                00096         extern  _PORTAbits
  0000                00097         extern  _PORTBbits
  0000                00098         extern  _PORTCbits
  0000                00099         extern  _PORTDbits
  0000                00100         extern  _PORTEbits
  0000                00101         extern  _LATAbits
  0000                00102         extern  _LATBbits
  0000                00103         extern  _LATCbits
  0000                00104         extern  _LATDbits
  0000                00105         extern  _LATEbits
  0000                00106         extern  _TRISAbits
gpasm-1.4.2 #1169 (Aug  3 2017) /home/vbasel/   3-17-2018  14:24:43         PAGE  3


LOC    OBJECT CODE    LINE  SOURCE TEXT
  VALUE

  0000                00107         extern  _TRISBbits
  0000                00108         extern  _TRISCbits
  0000                00109         extern  _TRISDbits
  0000                00110         extern  _TRISEbits
  0000                00111         extern  _OSCTUNEbits
  0000                00112         extern  _PIE1bits
  0000                00113         extern  _PIR1bits
  0000                00114         extern  _IPR1bits
  0000                00115         extern  _PIE2bits
  0000                00116         extern  _PIR2bits
  0000                00117         extern  _IPR2bits
  0000                00118         extern  _EECON1bits
  0000                00119         extern  _RCSTAbits
  0000                00120         extern  _TXSTAbits
  0000                00121         extern  _T3CONbits
  0000                00122         extern  _CMCONbits
  0000                00123         extern  _CVRCONbits
  0000                00124         extern  _ECCP1ASbits
  0000                00125         extern  _ECCP1DELbits
  0000                00126         extern  _BAUDCONbits
  0000                00127         extern  _CCP2CONbits
  0000                00128         extern  _CCP1CONbits
  0000                00129         extern  _ADCON2bits
  0000                00130         extern  _ADCON1bits
  0000                00131         extern  _ADCON0bits
  0000                00132         extern  _SSPCON2bits
  0000                00133         extern  _SSPCON1bits
  0000                00134         extern  _SSPSTATbits
  0000                00135         extern  _T2CONbits
  0000                00136         extern  _T1CONbits
  0000                00137         extern  _RCONbits
  0000                00138         extern  _WDTCONbits
  0000                00139         extern  _HLVDCONbits
  0000                00140         extern  _OSCCONbits
  0000                00141         extern  _T0CONbits
  0000                00142         extern  _STATUSbits
  0000                00143         extern  _FSR2Hbits
  0000                00144         extern  _BSRbits
  0000                00145         extern  _FSR1Hbits
  0000                00146         extern  _FSR0Hbits
  0000                00147         extern  _INTCON3bits
  0000                00148         extern  _INTCON2bits
  0000                00149         extern  _INTCONbits
  0000                00150         extern  _TBLPTRUbits
  0000                00151         extern  _PCLATHbits
  0000                00152         extern  _PCLATUbits
  0000                00153         extern  _STKPTRbits
  0000                00154         extern  _TOSUbits
  0000                00155         extern  _stdin
  0000                00156         extern  _stdout
  0000                00157         extern  _stack_end
  0000                00158         extern  _SPPDATA
  0000                00159         extern  _SPPCFG
gpasm-1.4.2 #1169 (Aug  3 2017) /home/vbasel/   3-17-2018  14:24:43         PAGE  4


LOC    OBJECT CODE    LINE  SOURCE TEXT
  VALUE

  0000                00160         extern  _SPPEPS
  0000                00161         extern  _SPPCON
  0000                00162         extern  _UFRML
  0000                00163         extern  _UFRMH
  0000                00164         extern  _UIR
  0000                00165         extern  _UIE
  0000                00166         extern  _UEIR
  0000                00167         extern  _UEIE
  0000                00168         extern  _USTAT
  0000                00169         extern  _UCON
  0000                00170         extern  _UADDR
  0000                00171         extern  _UCFG
  0000                00172         extern  _UEP0
  0000                00173         extern  _UEP1
  0000                00174         extern  _UEP2
  0000                00175         extern  _UEP3
  0000                00176         extern  _UEP4
  0000                00177         extern  _UEP5
  0000                00178         extern  _UEP6
  0000                00179         extern  _UEP7
  0000                00180         extern  _UEP8
  0000                00181         extern  _UEP9
  0000                00182         extern  _UEP10
  0000                00183         extern  _UEP11
  0000                00184         extern  _UEP12
  0000                00185         extern  _UEP13
  0000                00186         extern  _UEP14
  0000                00187         extern  _UEP15
  0000                00188         extern  _PORTA
  0000                00189         extern  _PORTB
  0000                00190         extern  _PORTC
  0000                00191         extern  _PORTD
  0000                00192         extern  _PORTE
  0000                00193         extern  _LATA
  0000                00194         extern  _LATB
  0000                00195         extern  _LATC
  0000                00196         extern  _LATD
  0000                00197         extern  _LATE
  0000                00198         extern  _TRISA
  0000                00199         extern  _TRISB
  0000                00200         extern  _TRISC
  0000                00201         extern  _TRISD
  0000                00202         extern  _TRISE
  0000                00203         extern  _OSCTUNE
  0000                00204         extern  _PIE1
  0000                00205         extern  _PIR1
  0000                00206         extern  _IPR1
  0000                00207         extern  _PIE2
  0000                00208         extern  _PIR2
  0000                00209         extern  _IPR2
  0000                00210         extern  _EECON1
  0000                00211         extern  _EECON2
  0000                00212         extern  _EEDATA
gpasm-1.4.2 #1169 (Aug  3 2017) /home/vbasel/   3-17-2018  14:24:43         PAGE  5


LOC    OBJECT CODE    LINE  SOURCE TEXT
  VALUE

  0000                00213         extern  _EEADR
  0000                00214         extern  _RCSTA
  0000                00215         extern  _TXSTA
  0000                00216         extern  _TXREG
  0000                00217         extern  _RCREG
  0000                00218         extern  _SPBRG
  0000                00219         extern  _SPBRGH
  0000                00220         extern  _T3CON
  0000                00221         extern  _TMR3L
  0000                00222         extern  _TMR3H
  0000                00223         extern  _CMCON
  0000                00224         extern  _CVRCON
  0000                00225         extern  _ECCP1AS
  0000                00226         extern  _ECCP1DEL
  0000                00227         extern  _BAUDCON
  0000                00228         extern  _CCP2CON
  0000                00229         extern  _CCPR2L
  0000                00230         extern  _CCPR2H
  0000                00231         extern  _CCP1CON
  0000                00232         extern  _CCPR1L
  0000                00233         extern  _CCPR1H
  0000                00234         extern  _ADCON2
  0000                00235         extern  _ADCON1
  0000                00236         extern  _ADCON0
  0000                00237         extern  _ADRESL
  0000                00238         extern  _ADRESH
  0000                00239         extern  _SSPCON2
  0000                00240         extern  _SSPCON1
  0000                00241         extern  _SSPSTAT
  0000                00242         extern  _SSPADD
  0000                00243         extern  _SSPBUF
  0000                00244         extern  _T2CON
  0000                00245         extern  _PR2
  0000                00246         extern  _TMR2
  0000                00247         extern  _T1CON
  0000                00248         extern  _TMR1L
  0000                00249         extern  _TMR1H
  0000                00250         extern  _RCON
  0000                00251         extern  _WDTCON
  0000                00252         extern  _HLVDCON
  0000                00253         extern  _OSCCON
  0000                00254         extern  _T0CON
  0000                00255         extern  _TMR0L
  0000                00256         extern  _TMR0H
  0000                00257         extern  _STATUS
  0000                00258         extern  _FSR2L
  0000                00259         extern  _FSR2H
  0000                00260         extern  _PLUSW2
  0000                00261         extern  _PREINC2
  0000                00262         extern  _POSTDEC2
  0000                00263         extern  _POSTINC2
  0000                00264         extern  _INDF2
  0000                00265         extern  _BSR
gpasm-1.4.2 #1169 (Aug  3 2017) /home/vbasel/   3-17-2018  14:24:43         PAGE  6


LOC    OBJECT CODE    LINE  SOURCE TEXT
  VALUE

  0000                00266         extern  _FSR1L
  0000                00267         extern  _FSR1H
  0000                00268         extern  _PLUSW1
  0000                00269         extern  _PREINC1
  0000                00270         extern  _POSTDEC1
  0000                00271         extern  _POSTINC1
  0000                00272         extern  _INDF1
  0000                00273         extern  _WREG
  0000                00274         extern  _FSR0L
  0000                00275         extern  _FSR0H
  0000                00276         extern  _PLUSW0
  0000                00277         extern  _PREINC0
  0000                00278         extern  _POSTDEC0
  0000                00279         extern  _POSTINC0
  0000                00280         extern  _INDF0
  0000                00281         extern  _INTCON3
  0000                00282         extern  _INTCON2
  0000                00283         extern  _INTCON
  0000                00284         extern  _PRODL
  0000                00285         extern  _PRODH
  0000                00286         extern  _TABLAT
  0000                00287         extern  _TBLPTRL
  0000                00288         extern  _TBLPTRH
  0000                00289         extern  _TBLPTRU
  0000                00290         extern  _PCL
  0000                00291         extern  _PCLATH
  0000                00292         extern  _PCLATU
  0000                00293         extern  _STKPTR
  0000                00294         extern  _TOSL
  0000                00295         extern  _TOSH
  0000                00296         extern  _TOSU
  0000                00297         extern  __divslong
  0000                00298         extern  __divulong
  0000                00299         extern  __mulint
  0000                00300         extern  _delay100tcy
  0000                00301         extern  _cinit
                      00302 
                      00303 ;--------------------------------------------------------
                      00304 ;       Equates to used internal registers
                      00305 ;--------------------------------------------------------
  00000FD8            00306 STATUS  equ     0xfd8
  00000FF9            00307 PCL     equ     0xff9
  00000FFA            00308 PCLATH  equ     0xffa
  00000FFB            00309 PCLATU  equ     0xffb
  00000FE8            00310 WREG    equ     0xfe8
  00000FE0            00311 BSR     equ     0xfe0
  00000FF6            00312 TBLPTRL equ     0xff6
  00000FF7            00313 TBLPTRH equ     0xff7
  00000FF8            00314 TBLPTRU equ     0xff8
  00000FF5            00315 TABLAT  equ     0xff5
  00000FE9            00316 FSR0L   equ     0xfe9
  00000FEA            00317 FSR0H   equ     0xfea
  00000FE1            00318 FSR1L   equ     0xfe1
gpasm-1.4.2 #1169 (Aug  3 2017) /home/vbasel/   3-17-2018  14:24:43         PAGE  7


LOC    OBJECT CODE    LINE  SOURCE TEXT
  VALUE

  00000FD9            00319 FSR2L   equ     0xfd9
  00000FEF            00320 INDF0   equ     0xfef
  00000FE6            00321 POSTINC1        equ     0xfe6
  00000FE5            00322 POSTDEC1        equ     0xfe5
  00000FE4            00323 PREINC1 equ     0xfe4
  00000FDB            00324 PLUSW2  equ     0xfdb
  00000FF3            00325 PRODL   equ     0xff3
  00000FF4            00326 PRODH   equ     0xff4
                      00327 
                      00328 
                      00329         idata
000000 00             00330 _phase  db      0x00
000001 00             00331 _needreordering db      0x00
000002 00             00332 _timedivision   db      0x00
000003 00 00          00333 __i     db      0x00, 0x00
000005 00             00334 ___uflags       db      0x00
                      00335 
                      00336 
                      00337 ; Internal registers
                      00338 .registers      udata_ovr       0x0000
000000                00339 r0x00   res     1
000001                00340 r0x01   res     1
000002                00341 r0x02   res     1
000003                00342 r0x03   res     1
000004                00343 r0x04   res     1
000005                00344 r0x05   res     1
000006                00345 r0x06   res     1
000007                00346 r0x07   res     1
                      00347 
                      00348 udata_main_0    udata
000000                00349 __cpu_clock_    res     4
                      00350 
                      00351 udata_main_1    udata
000000                00352 _timingindex    res     1
                      00353 
                      00354 udata_main_2    udata
000000                00355 _loopvar        res     1
                      00356 
                      00357 udata_main_3    udata
000000                00358 _servovalues    res     30
                      00359 
                      00360 udata_main_4    udata
000000                00361 _maxminpos      res     60
                      00362 
                      00363 udata_main_5    udata
000000                00364 _activatedservos        res     5
                      00365 
                      00366 udata_main_6    udata
000000                00367 _ServosPulseDown_timingindex_1_28       res     1
                      00368 
                      00369 udata_main_7    udata
000000                00370 _timings        res     150
                      00371 
gpasm-1.4.2 #1169 (Aug  3 2017) /home/vbasel/   3-17-2018  14:24:43         PAGE  8


LOC    OBJECT CODE    LINE  SOURCE TEXT
  VALUE

                      00372 udata_main_8    udata
000000                00373 _timevalue      res     30
                      00374 
                      00375 udata_main_9    udata
000000                00376 _SortServoTimings_t_1_32        res     1
                      00377 
                      00378 udata_main_10   udata
000000                00379 _SortServoTimings_totalservos_1_32      res     1
                      00380 
                      00381 udata_main_11   udata
000000                00382 _SortServoTimings_numservos_1_32        res     1
                      00383 
                      00384 udata_main_12   udata
000000                00385 _SortServoTimings_s_1_32        res     1
                      00386 
                      00387 udata_main_13   udata
000000                00388 _mascaratotal   res     5
                      00389 
                      00390 ;--------------------------------------------------------
                      00391 ; interrupt vector
                      00392 ;--------------------------------------------------------
                      00393 
                      00394 ;--------------------------------------------------------
                      00395 ; global & static initialisations
                      00396 ;--------------------------------------------------------
                      00397 ; ; Starting pCode block
                      00398 S_main___entry  code    0X000C00
000C00                00399 __entry:
000C00 EF00 F000      00400         goto    __startup
                      00401         
                      00402 ; ; Starting pCode block for absolute section
                      00403 ; ;-----------------------------------------
                      00404 S_main_ivec_0x1_high_priority_isr       code    0X000C08
000C08                00405 ivec_0x1_high_priority_isr:
000C08 EF00 F000      00406         GOTO    _high_priority_isr
                      00407 
                      00408 ; ; Starting pCode block for absolute section
                      00409 ; ;-----------------------------------------
                      00410 S_main_ivec_0x2_low_priority_isr        code    0X000C18
000C18                00411 ivec_0x2_low_priority_isr:
000C18 EF00 F000      00412         GOTO    _low_priority_isr
                      00413 
                      00414 ; I code from now on!
                      00415 ; ; Starting pCode block
                      00416 S_main__main    code
000000                00417 _main:
                      00418 ;       .line   197; /home/vbasel/.icaro/v4/firmware/source/main.c      if (OSCCONbits.SCS > 0x01)
000000 50??           00419         MOVF    _OSCCONbits, W
000002 0B03           00420         ANDLW   0x03
                      00421 ; #     MOVWF   r0x00
                      00422 ; #     MOVF    r0x00, W
000004 0F80           00423         ADDLW   0x80
000006 0F7E           00424         ADDLW   0x7e
gpasm-1.4.2 #1169 (Aug  3 2017) /home/vbasel/   3-17-2018  14:24:43         PAGE  9


LOC    OBJECT CODE    LINE  SOURCE TEXT
  VALUE

000008 E3??           00425         BNC     _00836_DS_
00000A                00426 _00832_DS_:
                      00427 ;       .line   199; /home/vbasel/.icaro/v4/firmware/source/main.c      while (!OSCCONbits.IOFS);
00000A A4??           00428         BTFSS   _OSCCONbits, 2
00000C D???           00429         BRA     _00832_DS_
00000E                00430 _00836_DS_:
                      00431 ;       .line   243; /home/vbasel/.icaro/v4/firmware/source/main.c      IO_init();
00000E EC?? F0??      00432         CALL    _IO_init
                      00433 ;       .line   244; /home/vbasel/.icaro/v4/firmware/source/main.c      IO_digital();
000012 EC?? F0??      00434         CALL    _IO_digital
                      00435 ;       .line   272; /home/vbasel/.icaro/v4/firmware/source/main.c      analog_init();
000016 EC?? F0??      00436         CALL    _analog_init
                      00437 ;       .line   288; /home/vbasel/.icaro/v4/firmware/source/main.c      servos_init();
00001A EC?? F0??      00438         CALL    _servos_init
                      00439 ;       .line   300; /home/vbasel/.icaro/v4/firmware/source/main.c      setup();
00001E EC?? F0??      00440         CALL    _setup
000022                00441 _00838_DS_:
                      00442 ;       .line   327; /home/vbasel/.icaro/v4/firmware/source/main.c      loop();
000022 EC?? F0??      00443         CALL    _loop
000026 D???           00444         BRA     _00838_DS_
000028 0012           00445         RETURN  
                      00446 
                      00447 ; ; Starting pCode block
                      00448 S_main__low_priority_isr        code
000000                00449 _low_priority_isr:
                      00450 ;       .line   535; /home/vbasel/.icaro/v4/firmware/source/main.c      void low_priority_isr(void) __in
                            terrupt 2
000000 CFD8 FFE5      00451         MOVFF   STATUS, POSTDEC1
000004 CFE0 FFE5      00452         MOVFF   BSR, POSTDEC1
000008 6EE5           00453         MOVWF   POSTDEC1
00000A CFF3 FFE5      00454         MOVFF   PRODL, POSTDEC1
00000E CFF4 FFE5      00455         MOVFF   PRODH, POSTDEC1
000012 CFE9 FFE5      00456         MOVFF   FSR0L, POSTDEC1
000016 CFEA FFE5      00457         MOVFF   FSR0H, POSTDEC1
00001A CFFA FFE5      00458         MOVFF   PCLATH, POSTDEC1
00001E CFFB FFE5      00459         MOVFF   PCLATU, POSTDEC1
000022 CFD9 FFE5      00460         MOVFF   FSR2L, POSTDEC1
000026 CFE1 FFD9      00461         MOVFF   FSR1L, FSR2L
00002A C??? F???      00462         MOVFF   _TBLPTRL, POSTDEC1
00002E C??? F???      00463         MOVFF   _TBLPTRH, POSTDEC1
000032 C??? F???      00464         MOVFF   _TBLPTRU, POSTDEC1
000036 C??? F???      00465         MOVFF   _TABLAT, POSTDEC1
                      00466         
00003A CFE4 F000      00467         MOVFF   PREINC1, _TABLAT
00003E CFE4 F000      00468         MOVFF   PREINC1, _TBLPTRU
000042 CFE4 F000      00469         MOVFF   PREINC1, _TBLPTRH
000046 CFE4 F000      00470         MOVFF   PREINC1, _TBLPTRL
                      00471         
00004A CFE4 FFD9      00472         MOVFF   PREINC1, FSR2L
00004E CFE4 FFFB      00473         MOVFF   PREINC1, PCLATU
000052 CFE4 FFFA      00474         MOVFF   PREINC1, PCLATH
000056 CFE4 FFEA      00475         MOVFF   PREINC1, FSR0H
00005A CFE4 FFE9      00476         MOVFF   PREINC1, FSR0L
gpasm-1.4.2 #1169 (Aug  3 2017) /home/vbasel/   3-17-2018  14:24:43         PAGE 10


LOC    OBJECT CODE    LINE  SOURCE TEXT
  VALUE

00005E CFE4 FFF4      00477         MOVFF   PREINC1, PRODH
000062 CFE4 FFF3      00478         MOVFF   PREINC1, PRODL
000066 50E4           00479         MOVF    PREINC1, W
000068 CFE4 FFE0      00480         MOVFF   PREINC1, BSR
00006C CFE4 FFD8      00481         MOVFF   PREINC1, STATUS
000070 0010           00482         RETFIE  
                      00483 
                      00484 ; ; Starting pCode block
                      00485 S_main__high_priority_isr       code
000000                00486 _high_priority_isr:
                      00487 ;       .line   438; /home/vbasel/.icaro/v4/firmware/source/main.c      void high_priority_isr(void) __i
                            nterrupt 1
000000 CFD8 FFE5      00488         MOVFF   STATUS, POSTDEC1
000004 CFE0 FFE5      00489         MOVFF   BSR, POSTDEC1
000008 6EE5           00490         MOVWF   POSTDEC1
00000A CFF3 FFE5      00491         MOVFF   PRODL, POSTDEC1
00000E CFF4 FFE5      00492         MOVFF   PRODH, POSTDEC1
000012 CFE9 FFE5      00493         MOVFF   FSR0L, POSTDEC1
000016 CFEA FFE5      00494         MOVFF   FSR0H, POSTDEC1
00001A CFFA FFE5      00495         MOVFF   PCLATH, POSTDEC1
00001E CFFB FFE5      00496         MOVFF   PCLATU, POSTDEC1
000022 CFD9 FFE5      00497         MOVFF   FSR2L, POSTDEC1
000026 CFE1 FFD9      00498         MOVFF   FSR1L, FSR2L
00002A C??? F???      00499         MOVFF   _TBLPTRL, POSTDEC1
00002E C??? F???      00500         MOVFF   _TBLPTRH, POSTDEC1
000032 C??? F???      00501         MOVFF   _TBLPTRU, POSTDEC1
000036 C??? F???      00502         MOVFF   _TABLAT, POSTDEC1
                      00503         
                      00504 ;       .line   475; /home/vbasel/.icaro/v4/firmware/source/main.c      servos_interrupt();
00003A EC?? F0??      00505         CALL    _servos_interrupt
00003E CFE4 F000      00506         MOVFF   PREINC1, _TABLAT
000042 CFE4 F000      00507         MOVFF   PREINC1, _TBLPTRU
000046 CFE4 F000      00508         MOVFF   PREINC1, _TBLPTRH
00004A CFE4 F000      00509         MOVFF   PREINC1, _TBLPTRL
                      00510         
00004E CFE4 FFD9      00511         MOVFF   PREINC1, FSR2L
000052 CFE4 FFFB      00512         MOVFF   PREINC1, PCLATU
000056 CFE4 FFFA      00513         MOVFF   PREINC1, PCLATH
00005A CFE4 FFEA      00514         MOVFF   PREINC1, FSR0H
00005E CFE4 FFE9      00515         MOVFF   PREINC1, FSR0L
000062 CFE4 FFF4      00516         MOVFF   PREINC1, PRODH
000066 CFE4 FFF3      00517         MOVFF   PREINC1, PRODL
00006A 50E4           00518         MOVF    PREINC1, W
00006C CFE4 FFE0      00519         MOVFF   PREINC1, BSR
000070 CFE4 FFD8      00520         MOVFF   PREINC1, STATUS
000074 0010           00521         RETFIE  
                      00522 
                      00523 ; ; Starting pCode block
                      00524 S_main___startup        code
000000                00525 __startup:
                      00526         ;       Initialize the stack pointer
000000 EE?? F0??      00527         lfsr    1, _stack_end
000004 EE?? F0??      00528         lfsr    2, _stack_end
gpasm-1.4.2 #1169 (Aug  3 2017) /home/vbasel/   3-17-2018  14:24:43         PAGE 11


LOC    OBJECT CODE    LINE  SOURCE TEXT
  VALUE

                      00529         ;       1st silicon does not do this on POR
000008 6A??           00530         clrf    _TBLPTRU, 0
                      00531         ;       Initialize the flash memory access configuration.
                      00532         ;       This is harmless for non-flash devices, so we do it on all parts.
00000A 8EA6           00533         bsf     0xa6, 7, 0 ; EECON1.EEPGD = 1, TBLPTR accesses program memory
00000C 9CA6           00534         bcf     0xa6, 6, 0 ; EECON1.CFGS = 0, TBLPTR accesses program memory
                      00535         ;       Load FSR0 with top of RAM.
00000E 0EBF           00536         movlw   0xbf
000010 6E??           00537         movwf   _FSR0L, 0
000012 0E0E           00538         movlw   0x0e
000014 6E??           00539         movwf   _FSR0H, 0
                      00540         ;       Place 0xff at address 0x00 as a sentinel.
000016 6800           00541         setf    0x00, 0
000018                00542 clear_loop:
000018 6A??           00543         clrf    _POSTDEC0, 0
00001A 5000           00544         movf    0x00, w, 0
00001C E1??           00545         bnz     clear_loop
                      00546         ;       TBLPTR = &cinit
00001E 0E??           00547         movlw   low(_cinit)
000020 6E??           00548         movwf   _TBLPTRL, 0
000022 0E??           00549         movlw   high(_cinit)
000024 6E??           00550         movwf   _TBLPTRH, 0
000026 0E??           00551         movlw   upper(_cinit)
000028 6E??           00552         movwf   _TBLPTRU, 0
                      00553         ;       0x05 = cinit.num_init
00002A 0009           00554         tblrd*+
00002C C??? F???      00555         movff   _TABLAT, 0x05
000030 0009           00556         tblrd*+
000032 C??? F???      00557         movff   _TABLAT, (0x05 + 1)
                      00558         ;       while (0x05)
000036 D???           00559         bra     entry_loop_dec
000038                00560 entry_loop:
                      00561         ;       Count down so we only have to look up the data in _cinit once.
                      00562         ;       At this point we know that TBLPTR points to the top of the current
                      00563         ;       entry in _cinit, so we can just start reading the from, to, and
                      00564         ;       size values.
                      00565         ;       Read the source address low.
                      00566         ;       0x00 = 0x07 ->from;
000038 0009           00567         tblrd*+
00003A C??? F???      00568         movff   _TABLAT, 0x00
                      00569         ;       source address high
00003E 0009           00570         tblrd*+
000040 C??? F???      00571         movff   _TABLAT, (0x00 + 1)
                      00572         ;       source address upper
000044 0009           00573         tblrd*+
000046 C??? F???      00574         movff   _TABLAT, (0x00 + 2)
                      00575         ;       Skip a byte since it is stored as a 32bit int.
00004A 0009           00576         tblrd*+
                      00577         ;       Read the destination address directly into FSR0
                      00578         ;       destination address low.
                      00579         ;       FSR0 = (unsigned short)0x07 ->to;
00004C 0009           00580         tblrd*+
00004E C??? F???      00581         movff   _TABLAT, _FSR0L
gpasm-1.4.2 #1169 (Aug  3 2017) /home/vbasel/   3-17-2018  14:24:43         PAGE 12


LOC    OBJECT CODE    LINE  SOURCE TEXT
  VALUE

                      00582         ;       destination address high
000052 0009           00583         tblrd*+
000054 C??? F???      00584         movff   _TABLAT, _FSR0H
                      00585         ;       Skip two bytes since it is stored as a 32bit int.
000058 0009           00586         tblrd*+
00005A 0009           00587         tblrd*+
                      00588         ;       Read the size of data to transfer to destination address.
                      00589         ;       0x03 = (unsigned short)0x07 ->size;
00005C 0009           00590         tblrd*+
00005E C??? F???      00591         movff   _TABLAT, 0x03
000062 0009           00592         tblrd*+
000064 C??? F???      00593         movff   _TABLAT, (0x03 + 1)
                      00594         ;       Skip two bytes since it is stored as a 32bit int.
000068 0009           00595         tblrd*+
00006A 0009           00596         tblrd*+
                      00597         ;       0x00 = 0x07 ->from;
                      00598         ;       FSR0 = (unsigned short)0x07 ->to;
                      00599         ;       0x03 = (unsigned short)0x07 ->size;
                      00600         ;       The table pointer now points to the next entry. Save it
                      00601         ;       off since we will be using the table pointer to do the copying
                      00602         ;       for the entry.
                      00603         ;       0x07 = TBLPTR
00006C C??? F???      00604         movff   _TBLPTRL, 0x07
000070 C??? F???      00605         movff   _TBLPTRH, (0x07 + 1)
000074 C??? F???      00606         movff   _TBLPTRU, (0x07 + 2)
                      00607         ;       Now assign the source address to the table pointer.
                      00608         ;       TBLPTR = 0x00
000078 C000 F000      00609         movff   0x00, _TBLPTRL
00007C C001 F000      00610         movff   (0x00 + 1), _TBLPTRH
000080 C002 F000      00611         movff   (0x00 + 2), _TBLPTRU
000084 D???           00612         bra     copy_loop_dec
000086                00613 copy_loop:
000086 0009           00614         tblrd*+
000088 C??? F???      00615         movff   _TABLAT, _POSTINC0
00008C                00616 copy_loop_dec:
                      00617         ;       while (--0x03);
                      00618         ;       Decrement and test the byte counter.
                      00619         ;       The cycle ends when the value of counter reaches the -1.
00008C 0603           00620         decf    0x03, f, 0
00008E E2??           00621         bc      copy_loop
000090 0604           00622         decf    (0x03 + 1), f, 0
000092 E2??           00623         bc      copy_loop
                      00624         ;       Restore the table pointer for the next entry.
                      00625         ;       TBLPTR = 0x07
000094 C007 F000      00626         movff   0x07, _TBLPTRL
000098 C008 F000      00627         movff   (0x07 + 1), _TBLPTRH
00009C C009 F000      00628         movff   (0x07 + 2), _TBLPTRU
0000A0                00629 entry_loop_dec:
                      00630         ;       while (--0x05);
                      00631         ;       Decrement and test the entry counter.
                      00632         ;       The cycle ends when the value of counter reaches the -1.
0000A0 0605           00633         decf    0x05, f, 0
0000A2 E2??           00634         bc      entry_loop
gpasm-1.4.2 #1169 (Aug  3 2017) /home/vbasel/   3-17-2018  14:24:43         PAGE 13


LOC    OBJECT CODE    LINE  SOURCE TEXT
  VALUE

0000A4 0606           00635         decf    (0x05 + 1), f, 0
0000A6 E2??           00636         bc      entry_loop
                      00637         
                      00638 ;       .line   259; /home/vbasel/.icaro/v4/firmware/source/crt0iz.c    main ();
0000A8 EC?? F0??      00639         CALL    _main
0000AC                00640 lockup:
                      00641         ;       Returning from main will lock up.
0000AC D???           00642         bra     lockup
                      00643         
                      00644 ; ; Starting pCode block
                      00645 S_main__loop    code
000000                00646 _loop:
                      00647 ;       .line   71; /home/vbasel/.icaro/v4/firmware/source/user.c       PORTB=ping() ;
000000 EC?? F0??      00648         CALL    _ping
000004 6E??           00649         MOVWF   _PORTB
                      00650 ;       .line   72; /home/vbasel/.icaro/v4/firmware/source/user.c       Delayus(2);
000006 6AE5           00651         CLRF    POSTDEC1
000008 0E02           00652         MOVLW   0x02
00000A 6EE5           00653         MOVWF   POSTDEC1
00000C EC?? F0??      00654         CALL    _Delayus
000010 52E6           00655         MOVF    POSTINC1, F
000012 52E6           00656         MOVF    POSTINC1, F
000014 0012           00657         RETURN  
                      00658 
                      00659 ; ; Starting pCode block
                      00660 S_main__sensordigital   code
000000                00661 _sensordigital:
                      00662 ;       .line   111; /home/vbasel/.icaro/v4/firmware/icaro_lib/definiciones_icr.c       int sensordigita
                            l(int valor)
000000 CFD9 FFE5      00663         MOVFF   FSR2L, POSTDEC1
000004 CFE1 FFD9      00664         MOVFF   FSR1L, FSR2L
000008 C??? F???      00665         MOVFF   r0x00, POSTDEC1
00000C C??? F???      00666         MOVFF   r0x01, POSTDEC1
000010 0E02           00667         MOVLW   0x02
000012 CFDB F000      00668         MOVFF   PLUSW2, r0x00
000016 0E03           00669         MOVLW   0x03
000018 CFDB F000      00670         MOVFF   PLUSW2, r0x01
                      00671 ;       .line   115; /home/vbasel/.icaro/v4/firmware/icaro_lib/definiciones_icr.c       temp=digitalread
                            (valor);
00001C 50??           00672         MOVF    r0x00, W
00001E 6EE5           00673         MOVWF   POSTDEC1
000020 EC?? F0??      00674         CALL    _digitalread
000024 6E??           00675         MOVWF   r0x00
000026 52E6           00676         MOVF    POSTINC1, F
                      00677 ;       .line   116; /home/vbasel/.icaro/v4/firmware/icaro_lib/definiciones_icr.c       if (temp==0)
000028 50??           00678         MOVF    r0x00, W
00002A E1??           00679         BNZ     _00810_DS_
                      00680 ;       .line   118; /home/vbasel/.icaro/v4/firmware/icaro_lib/definiciones_icr.c       return 1;
00002C 6AF3           00681         CLRF    PRODL
00002E 0E01           00682         MOVLW   0x01
000030 D???           00683         BRA     _00812_DS_
000032                00684 _00810_DS_:
                      00685 ;       .line   122; /home/vbasel/.icaro/v4/firmware/icaro_lib/definiciones_icr.c       return 0;
gpasm-1.4.2 #1169 (Aug  3 2017) /home/vbasel/   3-17-2018  14:24:43         PAGE 14


LOC    OBJECT CODE    LINE  SOURCE TEXT
  VALUE

000032 6AF3           00686         CLRF    PRODL
000034 6AE8           00687         CLRF    WREG
000036                00688 _00812_DS_:
000036 CFE4 F000      00689         MOVFF   PREINC1, r0x01
00003A CFE4 F000      00690         MOVFF   PREINC1, r0x00
00003E CFE4 FFD9      00691         MOVFF   PREINC1, FSR2L
000042 0012           00692         RETURN  
                      00693 
                      00694 ; ; Starting pCode block
                      00695 S_main__setup   code
000000                00696 _setup:
                      00697 ;       .line   80; /home/vbasel/.icaro/v4/firmware/icaro_lib/definiciones_icr.c        TRISB=0; //defin
                            o PORTB como salida
000000 6A??           00698         CLRF    _TRISB
                      00699 ;       .line   81; /home/vbasel/.icaro/v4/firmware/icaro_lib/definiciones_icr.c        PORTB=0; 
000002 6A??           00700         CLRF    _PORTB
                      00701 ;       .line   82; /home/vbasel/.icaro/v4/firmware/icaro_lib/definiciones_icr.c        PORTD=0;
000004 6A??           00702         CLRF    _PORTD
                      00703 ;       .line   83; /home/vbasel/.icaro/v4/firmware/icaro_lib/definiciones_icr.c        pinmode(ICR_DIG1
                            ,INPUT);
000006 0E01           00704         MOVLW   0x01
000008 6EE5           00705         MOVWF   POSTDEC1
00000A 0E15           00706         MOVLW   0x15
00000C 6EE5           00707         MOVWF   POSTDEC1
00000E EC?? F0??      00708         CALL    _pinmode
000012 52E6           00709         MOVF    POSTINC1, F
000014 52E6           00710         MOVF    POSTINC1, F
                      00711 ;       .line   84; /home/vbasel/.icaro/v4/firmware/icaro_lib/definiciones_icr.c        pinmode(ICR_DIG2
                            ,INPUT);
000016 0E01           00712         MOVLW   0x01
000018 6EE5           00713         MOVWF   POSTDEC1
00001A 0E16           00714         MOVLW   0x16
00001C 6EE5           00715         MOVWF   POSTDEC1
00001E EC?? F0??      00716         CALL    _pinmode
000022 52E6           00717         MOVF    POSTINC1, F
000024 52E6           00718         MOVF    POSTINC1, F
                      00719 ;       .line   86; /home/vbasel/.icaro/v4/firmware/icaro_lib/definiciones_icr.c        pinmode(ICR_DIG3
                            ,TRIG);
000026 6AE5           00720         CLRF    POSTDEC1
000028 0E17           00721         MOVLW   0x17
00002A 6EE5           00722         MOVWF   POSTDEC1
00002C EC?? F0??      00723         CALL    _pinmode
000030 52E6           00724         MOVF    POSTINC1, F
000032 52E6           00725         MOVF    POSTINC1, F
                      00726 ;       .line   87; /home/vbasel/.icaro/v4/firmware/icaro_lib/definiciones_icr.c        pinmode(ICR_DIG4
                            ,ECHO);
000034 0E01           00727         MOVLW   0x01
000036 6EE5           00728         MOVWF   POSTDEC1
000038 0E18           00729         MOVLW   0x18
00003A 6EE5           00730         MOVWF   POSTDEC1
00003C EC?? F0??      00731         CALL    _pinmode
000040 52E6           00732         MOVF    POSTINC1, F
000042 52E6           00733         MOVF    POSTINC1, F
gpasm-1.4.2 #1169 (Aug  3 2017) /home/vbasel/   3-17-2018  14:24:43         PAGE 15


LOC    OBJECT CODE    LINE  SOURCE TEXT
  VALUE

                      00734 ;       .line   88; /home/vbasel/.icaro/v4/firmware/icaro_lib/definiciones_icr.c        pinmode(ICR_l293
                            _P1,OUTPUT);
000044 6AE5           00735         CLRF    POSTDEC1
000046 0E19           00736         MOVLW   0x19
000048 6EE5           00737         MOVWF   POSTDEC1
00004A EC?? F0??      00738         CALL    _pinmode
00004E 52E6           00739         MOVF    POSTINC1, F
000050 52E6           00740         MOVF    POSTINC1, F
                      00741 ;       .line   89; /home/vbasel/.icaro/v4/firmware/icaro_lib/definiciones_icr.c        pinmode(ICR_l293
                            _P2,OUTPUT);
000052 6AE5           00742         CLRF    POSTDEC1
000054 0E1A           00743         MOVLW   0x1a
000056 6EE5           00744         MOVWF   POSTDEC1
000058 EC?? F0??      00745         CALL    _pinmode
00005C 52E6           00746         MOVF    POSTINC1, F
00005E 52E6           00747         MOVF    POSTINC1, F
                      00748 ;       .line   90; /home/vbasel/.icaro/v4/firmware/icaro_lib/definiciones_icr.c        pinmode(ICR_l293
                            _P3,OUTPUT);
000060 6AE5           00749         CLRF    POSTDEC1
000062 0E1B           00750         MOVLW   0x1b
000064 6EE5           00751         MOVWF   POSTDEC1
000066 EC?? F0??      00752         CALL    _pinmode
00006A 52E6           00753         MOVF    POSTINC1, F
00006C 52E6           00754         MOVF    POSTINC1, F
                      00755 ;       .line   91; /home/vbasel/.icaro/v4/firmware/icaro_lib/definiciones_icr.c        pinmode(ICR_l293
                            _P4,OUTPUT);
00006E 6AE5           00756         CLRF    POSTDEC1
000070 0E1C           00757         MOVLW   0x1c
000072 6EE5           00758         MOVWF   POSTDEC1
000074 EC?? F0??      00759         CALL    _pinmode
000078 52E6           00760         MOVF    POSTINC1, F
00007A 52E6           00761         MOVF    POSTINC1, F
                      00762 ;       .line   92; /home/vbasel/.icaro/v4/firmware/icaro_lib/definiciones_icr.c        ServoAttach(ICR_
                            SRV1);
00007C 0E0A           00763         MOVLW   0x0a
00007E 6EE5           00764         MOVWF   POSTDEC1
000080 EC?? F0??      00765         CALL    _ServoAttach
000084 52E6           00766         MOVF    POSTINC1, F
                      00767 ;       .line   93; /home/vbasel/.icaro/v4/firmware/icaro_lib/definiciones_icr.c        ServoAttach(ICR_
                            SRV2);
000086 0E0B           00768         MOVLW   0x0b
000088 6EE5           00769         MOVWF   POSTDEC1
00008A EC?? F0??      00770         CALL    _ServoAttach
00008E 52E6           00771         MOVF    POSTINC1, F
                      00772 ;       .line   94; /home/vbasel/.icaro/v4/firmware/icaro_lib/definiciones_icr.c        ServoAttach(ICR_
                            SRV3);
000090 0E0C           00773         MOVLW   0x0c
000092 6EE5           00774         MOVWF   POSTDEC1
000094 EC?? F0??      00775         CALL    _ServoAttach
000098 52E6           00776         MOVF    POSTINC1, F
                      00777 ;       .line   95; /home/vbasel/.icaro/v4/firmware/icaro_lib/definiciones_icr.c        ServoAttach(ICR_
                            SRV4);
00009A 0E09           00778         MOVLW   0x09
gpasm-1.4.2 #1169 (Aug  3 2017) /home/vbasel/   3-17-2018  14:24:43         PAGE 16


LOC    OBJECT CODE    LINE  SOURCE TEXT
  VALUE

00009C 6EE5           00779         MOVWF   POSTDEC1
00009E EC?? F0??      00780         CALL    _ServoAttach
0000A2 52E6           00781         MOVF    POSTINC1, F
                      00782 ;       .line   96; /home/vbasel/.icaro/v4/firmware/icaro_lib/definiciones_icr.c        ServoAttach(ICR_
                            SRV5);
0000A4 0E08           00783         MOVLW   0x08
0000A6 6EE5           00784         MOVWF   POSTDEC1
0000A8 EC?? F0??      00785         CALL    _ServoAttach
0000AC 52E6           00786         MOVF    POSTINC1, F
0000AE 0012           00787         RETURN  
                      00788 
                      00789 ; ; Starting pCode block
                      00790 S_main__ping    code
000000                00791 _ping:
                      00792 ;       .line   27; /home/vbasel/.icaro/v4/firmware/icaro_lib/sensores.h        int ping()
000000 C??? F???      00793         MOVFF   r0x00, POSTDEC1
000004 C??? F???      00794         MOVFF   r0x01, POSTDEC1
000008                00795 _00777_DS_:
                      00796 ;       .line   31; /home/vbasel/.icaro/v4/firmware/icaro_lib/sensores.h        while (digitalread(24) =
                            = LOW) 
000008 0E18           00797         MOVLW   0x18
00000A 6EE5           00798         MOVWF   POSTDEC1
00000C EC?? F0??      00799         CALL    _digitalread
000010 6E??           00800         MOVWF   r0x00
000012 52E6           00801         MOVF    POSTINC1, F
000014 50??           00802         MOVF    r0x00, W
000016 E1??           00803         BNZ     _00788_DS_
                      00804 ;       .line   33; /home/vbasel/.icaro/v4/firmware/icaro_lib/sensores.h        digitalwrite(23, HIGH);/
                            /Activa el disparador
000018 0E01           00805         MOVLW   0x01
00001A 6EE5           00806         MOVWF   POSTDEC1
00001C 0E17           00807         MOVLW   0x17
00001E 6EE5           00808         MOVWF   POSTDEC1
000020 EC?? F0??      00809         CALL    _digitalwrite
000024 52E6           00810         MOVF    POSTINC1, F
000026 52E6           00811         MOVF    POSTINC1, F
                      00812 ;       .line   34; /home/vbasel/.icaro/v4/firmware/icaro_lib/sensores.h        Delayus(50);//Espera 50 
                            microsegundos (minimo 10)
000028 6AE5           00813         CLRF    POSTDEC1
00002A 0E32           00814         MOVLW   0x32
00002C 6EE5           00815         MOVWF   POSTDEC1
00002E EC?? F0??      00816         CALL    _Delayus
000032 52E6           00817         MOVF    POSTINC1, F
000034 52E6           00818         MOVF    POSTINC1, F
                      00819 ;       .line   35; /home/vbasel/.icaro/v4/firmware/icaro_lib/sensores.h        digitalwrite(23, LOW);//
                            Desactiva el disparador
000036 6AE5           00820         CLRF    POSTDEC1
000038 0E17           00821         MOVLW   0x17
00003A 6EE5           00822         MOVWF   POSTDEC1
00003C EC?? F0??      00823         CALL    _digitalwrite
000040 52E6           00824         MOVF    POSTINC1, F
000042 52E6           00825         MOVF    POSTINC1, F
000044 D???           00826         BRA     _00777_DS_
gpasm-1.4.2 #1169 (Aug  3 2017) /home/vbasel/   3-17-2018  14:24:43         PAGE 17


LOC    OBJECT CODE    LINE  SOURCE TEXT
  VALUE

000046                00827 _00788_DS_:
                      00828 ;       .line   38; /home/vbasel/.icaro/v4/firmware/icaro_lib/sensores.h        while (digitalread(24) =
                            = HIGH) 
000046 6A??           00829         CLRF    r0x00
000048 6A??           00830         CLRF    r0x01
00004A                00831 _00780_DS_:
00004A 0E18           00832         MOVLW   0x18
00004C 6EE5           00833         MOVWF   POSTDEC1
00004E EC?? F0??      00834         CALL    _digitalread
000052 52E6           00835         MOVF    POSTINC1, F
000054 0A01           00836         XORLW   0x01
000056 E1??           00837         BNZ     _00782_DS_
                      00838 ;       .line   40; /home/vbasel/.icaro/v4/firmware/icaro_lib/sensores.h        Dato++;//El contador se 
                            incrementa hasta llegar el eco
000058 4A??           00839         INFSNZ  r0x00, F
00005A 2A??           00840         INCF    r0x01, F
                      00841 ;       .line   41; /home/vbasel/.icaro/v4/firmware/icaro_lib/sensores.h        Delayus(58);//Tiempo en 
                            recorrer dos centimetros 1 de ida 1 de vuelta
00005C 6AE5           00842         CLRF    POSTDEC1
00005E 0E3A           00843         MOVLW   0x3a
000060 6EE5           00844         MOVWF   POSTDEC1
000062 EC?? F0??      00845         CALL    _Delayus
000066 52E6           00846         MOVF    POSTINC1, F
000068 52E6           00847         MOVF    POSTINC1, F
00006A D???           00848         BRA     _00780_DS_
00006C                00849 _00782_DS_:
                      00850 ;       .line   44; /home/vbasel/.icaro/v4/firmware/icaro_lib/sensores.h        return Dato;
00006C C??? F???      00851         MOVFF   r0x01, PRODL
000070 50??           00852         MOVF    r0x00, W
000072 CFE4 F000      00853         MOVFF   PREINC1, r0x01
000076 CFE4 F000      00854         MOVFF   PREINC1, r0x00
00007A 0012           00855         RETURN  
                      00856 
                      00857 ; ; Starting pCode block
                      00858 S_main__Delayus code
000000                00859 _Delayus:
                      00860 ;       .line   69; /home/vbasel/.icaro/v4/firmware/core/delayus.c      void Delayus(unsigned int micros
                            econds)
000000 CFD9 FFE5      00861         MOVFF   FSR2L, POSTDEC1
000004 CFE1 FFD9      00862         MOVFF   FSR1L, FSR2L
000008 C??? F???      00863         MOVFF   r0x00, POSTDEC1
00000C C??? F???      00864         MOVFF   r0x01, POSTDEC1
000010 C??? F???      00865         MOVFF   r0x02, POSTDEC1
000014 C??? F???      00866         MOVFF   r0x03, POSTDEC1
000018 0E02           00867         MOVLW   0x02
00001A CFDB F000      00868         MOVFF   PLUSW2, r0x00
00001E 0E03           00869         MOVLW   0x03
000020 CFDB F000      00870         MOVFF   PLUSW2, r0x01
                      00871 ;       .line   73; /home/vbasel/.icaro/v4/firmware/core/delayus.c      for (i=0; i<microseconds; i++)
000024 6A??           00872         CLRF    r0x02
000026 6A??           00873         CLRF    r0x03
000028                00874 _00761_DS_:
000028 50??           00875         MOVF    r0x01, W
gpasm-1.4.2 #1169 (Aug  3 2017) /home/vbasel/   3-17-2018  14:24:43         PAGE 18


LOC    OBJECT CODE    LINE  SOURCE TEXT
  VALUE

00002A 5C??           00876         SUBWF   r0x03, W
00002C E1??           00877         BNZ     _00772_DS_
00002E 50??           00878         MOVF    r0x00, W
000030 5C??           00879         SUBWF   r0x02, W
000032                00880 _00772_DS_:
000032 E2??           00881         BC      _00763_DS_
000034 4A??           00882         INFSNZ  r0x02, F
000036 2A??           00883         INCF    r0x03, F
000038 D???           00884         BRA     _00761_DS_
00003A                00885 _00763_DS_:
00003A CFE4 F000      00886         MOVFF   PREINC1, r0x03
00003E CFE4 F000      00887         MOVFF   PREINC1, r0x02
000042 CFE4 F000      00888         MOVFF   PREINC1, r0x01
000046 CFE4 F000      00889         MOVFF   PREINC1, r0x00
00004A CFE4 FFD9      00890         MOVFF   PREINC1, FSR2L
00004E 0012           00891         RETURN  
                      00892 
                      00893 ; ; Starting pCode block
                      00894 S_main__IO_digital      code
000000                00895 _IO_digital:
                      00896 ;       .line   123; /home/vbasel/.icaro/v4/firmware/core/io.c  ADCON1 = 0x0F;                          
                            // AN0 to AN12 Digital I/O
000000 0E0F           00897         MOVLW   0x0f
000002 6E??           00898         MOVWF   _ADCON1
                      00899 ;       .line   124; /home/vbasel/.icaro/v4/firmware/core/io.c  CMCON = 0x07;               // Comparato
                            rs as Digital I/O
000004 0E07           00900         MOVLW   0x07
000006 6E??           00901         MOVWF   _CMCON
000008 0012           00902         RETURN  
                      00903 
                      00904 ; ; Starting pCode block
                      00905 S_main__IO_init code
000000                00906 _IO_init:
                      00907 ;       .line   53; /home/vbasel/.icaro/v4/firmware/core/io.c   LATA  = 0x00;
000000 6A??           00908         CLRF    _LATA
                      00909 ;       .line   54; /home/vbasel/.icaro/v4/firmware/core/io.c   LATB  = 0x00;
000002 6A??           00910         CLRF    _LATB
                      00911 ;       .line   72; /home/vbasel/.icaro/v4/firmware/core/io.c   LATC  = 0x00;
000004 6A??           00912         CLRF    _LATC
                      00913 ;       .line   79; /home/vbasel/.icaro/v4/firmware/core/io.c   LATD  = 0x00; 
000006 6A??           00914         CLRF    _LATD
                      00915 ;       .line   80; /home/vbasel/.icaro/v4/firmware/core/io.c   LATE  = 0x00; 
000008 6A??           00916         CLRF    _LATE
                      00917 ;       .line   83; /home/vbasel/.icaro/v4/firmware/core/io.c   TRISA = 0x00;
00000A 6A??           00918         CLRF    _TRISA
                      00919 ;       .line   85; /home/vbasel/.icaro/v4/firmware/core/io.c   TRISB = 0x00;
00000C 6A??           00920         CLRF    _TRISB
                      00921 ;       .line   91; /home/vbasel/.icaro/v4/firmware/core/io.c   TRISCbits.TRISC0 = 0x00;
00000E 90??           00922         BCF     _TRISCbits, 0
                      00923 ;       .line   92; /home/vbasel/.icaro/v4/firmware/core/io.c   TRISCbits.TRISC1 = 0x00;
000010 92??           00924         BCF     _TRISCbits, 1
                      00925 ;       .line   93; /home/vbasel/.icaro/v4/firmware/core/io.c   TRISCbits.TRISC2 = 0x00;
000012 94??           00926         BCF     _TRISCbits, 2
gpasm-1.4.2 #1169 (Aug  3 2017) /home/vbasel/   3-17-2018  14:24:43         PAGE 19


LOC    OBJECT CODE    LINE  SOURCE TEXT
  VALUE

                      00927 ;       .line   94; /home/vbasel/.icaro/v4/firmware/core/io.c   TRISCbits.TRISC6 = 0x00;
000014 9C??           00928         BCF     _TRISCbits, 6
                      00929 ;       .line   95; /home/vbasel/.icaro/v4/firmware/core/io.c   TRISCbits.TRISC7 = 0x00;
000016 9E??           00930         BCF     _TRISCbits, 7
                      00931 ;       .line   101; /home/vbasel/.icaro/v4/firmware/core/io.c  TRISD = 0x00; 
000018 6A??           00932         CLRF    _TRISD
                      00933 ;       .line   102; /home/vbasel/.icaro/v4/firmware/core/io.c  TRISE = 0x00; 
00001A 6A??           00934         CLRF    _TRISE
                      00935 ;       .line   106; /home/vbasel/.icaro/v4/firmware/core/io.c  PORTA  = 0x00;
00001C 6A??           00936         CLRF    _PORTA
                      00937 ;       .line   107; /home/vbasel/.icaro/v4/firmware/core/io.c  PORTB  = 0x00;
00001E 6A??           00938         CLRF    _PORTB
                      00939 ;       .line   108; /home/vbasel/.icaro/v4/firmware/core/io.c  PORTC  = 0x00;
000020 6A??           00940         CLRF    _PORTC
                      00941 ;       .line   112; /home/vbasel/.icaro/v4/firmware/core/io.c  PORTD  = 0x00; 
000022 6A??           00942         CLRF    _PORTD
                      00943 ;       .line   113; /home/vbasel/.icaro/v4/firmware/core/io.c  PORTE  = 0x00; 
000024 6A??           00944         CLRF    _PORTE
000026 0012           00945         RETURN  
                      00946 
                      00947 ; ; Starting pCode block
                      00948 S_main__analogwrite     code
000000                00949 _analogwrite:
                      00950 ;       .line   241; /home/vbasel/.icaro/v4/firmware/core/analog.c      void analogwrite(u8 pin, u16 dut
                            y)
000000 CFD9 FFE5      00951         MOVFF   FSR2L, POSTDEC1
000004 CFE1 FFD9      00952         MOVFF   FSR1L, FSR2L
000008 C??? F???      00953         MOVFF   r0x00, POSTDEC1
00000C C??? F???      00954         MOVFF   r0x01, POSTDEC1
000010 C??? F???      00955         MOVFF   r0x02, POSTDEC1
000014 C??? F???      00956         MOVFF   r0x03, POSTDEC1
000018 0E02           00957         MOVLW   0x02
00001A CFDB F000      00958         MOVFF   PLUSW2, r0x00
00001E 0E03           00959         MOVLW   0x03
000020 CFDB F000      00960         MOVFF   PLUSW2, r0x01
000024 0E04           00961         MOVLW   0x04
000026 CFDB F000      00962         MOVFF   PLUSW2, r0x02
                      00963 ;       .line   243; /home/vbasel/.icaro/v4/firmware/core/analog.c      switch (pin)
00002A 50??           00964         MOVF    r0x00, W
00002C 0A0B           00965         XORLW   0x0b
00002E E0??           00966         BZ      _00731_DS_
000030 50??           00967         MOVF    r0x00, W
000032 0A0C           00968         XORLW   0x0c
000034 E1??           00969         BNZ     _00732_DS_
                      00970 ;       .line   306; /home/vbasel/.icaro/v4/firmware/core/analog.c      CCP1CON  = 0b00001100;
000036 0E0C           00971         MOVLW   0x0c
000038 6E??           00972         MOVWF   _CCP1CON
                      00973 ;       .line   307; /home/vbasel/.icaro/v4/firmware/core/analog.c      CCPR1L   = ( duty >> 2 ) & 0xFF;
                                // 8 LSB
00003A 90D8           00974         BCF     STATUS, 0
00003C 30??           00975         RRCF    r0x02, W
00003E 6E??           00976         MOVWF   r0x03
000040 30??           00977         RRCF    r0x01, W
gpasm-1.4.2 #1169 (Aug  3 2017) /home/vbasel/   3-17-2018  14:24:43         PAGE 20


LOC    OBJECT CODE    LINE  SOURCE TEXT
  VALUE

000042 6E??           00978         MOVWF   r0x00
000044 90D8           00979         BCF     STATUS, 0
000046 32??           00980         RRCF    r0x03, F
000048 32??           00981         RRCF    r0x00, F
00004A 50??           00982         MOVF    r0x00, W
00004C 6E??           00983         MOVWF   _CCPR1L
                      00984 ;       .line   308; /home/vbasel/.icaro/v4/firmware/core/analog.c      CCP1CON |= ((u8)duty & 0x03) << 
                            4;  // 2 MSB in <5:4>
00004E 50??           00985         MOVF    r0x01, W
000050 6E??           00986         MOVWF   r0x00
000052 0E03           00987         MOVLW   0x03
000054 16??           00988         ANDWF   r0x00, F
000056 38??           00989         SWAPF   r0x00, W
000058 0BF0           00990         ANDLW   0xf0
                      00991 ; #     MOVWF   r0x03
                      00992 ; #     MOVF    r0x03, W
00005A 12??           00993         IORWF   _CCP1CON, F
                      00994 ;       .line   309; /home/vbasel/.icaro/v4/firmware/core/analog.c      break;
00005C D???           00995         BRA     _00732_DS_
00005E                00996 _00731_DS_:
                      00997 ;       .line   312; /home/vbasel/.icaro/v4/firmware/core/analog.c      CCP2CON  = 0b00001100;
00005E 0E0C           00998         MOVLW   0x0c
000060 6E??           00999         MOVWF   _CCP2CON
                      01000 ;       .line   313; /home/vbasel/.icaro/v4/firmware/core/analog.c      CCPR2L   = ( duty >> 2 ) & 0xFF;
                                // 8 LSB
000062 90D8           01001         BCF     STATUS, 0
000064 30??           01002         RRCF    r0x02, W
000066 6E??           01003         MOVWF   r0x03
000068 30??           01004         RRCF    r0x01, W
00006A 6E??           01005         MOVWF   r0x00
00006C 90D8           01006         BCF     STATUS, 0
00006E 32??           01007         RRCF    r0x03, F
000070 32??           01008         RRCF    r0x00, F
000072 50??           01009         MOVF    r0x00, W
000074 6E??           01010         MOVWF   _CCPR2L
                      01011 ;       .line   314; /home/vbasel/.icaro/v4/firmware/core/analog.c      CCP2CON |= ((u8)duty & 0x03) << 
                            4;  // 2 MSB in <5:4>
000076 0E03           01012         MOVLW   0x03
000078 16??           01013         ANDWF   r0x01, F
00007A 38??           01014         SWAPF   r0x01, W
00007C 0BF0           01015         ANDLW   0xf0
                      01016 ; #     MOVWF   r0x00
                      01017 ; #     MOVF    r0x00, W
00007E 12??           01018         IORWF   _CCP2CON, F
000080                01019 _00732_DS_:
                      01020 ;       .line   321; /home/vbasel/.icaro/v4/firmware/core/analog.c      PIR1bits.TMR2IF = 0;
000080 92??           01021         BCF     _PIR1bits, 1
000082 CFE4 F000      01022         MOVFF   PREINC1, r0x03
000086 CFE4 F000      01023         MOVFF   PREINC1, r0x02
00008A CFE4 F000      01024         MOVFF   PREINC1, r0x01
00008E CFE4 F000      01025         MOVFF   PREINC1, r0x00
000092 CFE4 FFD9      01026         MOVFF   PREINC1, FSR2L
000096 0012           01027         RETURN  
gpasm-1.4.2 #1169 (Aug  3 2017) /home/vbasel/   3-17-2018  14:24:43         PAGE 21


LOC    OBJECT CODE    LINE  SOURCE TEXT
  VALUE

                      01028 
                      01029 ; ; Starting pCode block
                      01030 S_main__analogwrite_init        code
000000                01031 _analogwrite_init:
                      01032 ;       .line   237; /home/vbasel/.icaro/v4/firmware/core/analog.c      PR2 = 0xFF;                     
                                // set PWM period to the max. to get 10-bit res.
000000 68??           01033         SETF    _PR2
                      01034 ;       .line   238; /home/vbasel/.icaro/v4/firmware/core/analog.c      T2CON = 0b00000100;             
                                // Timer2 on, prescaler is 1
000002 0E04           01035         MOVLW   0x04
000004 6E??           01036         MOVWF   _T2CON
000006 0012           01037         RETURN  
                      01038 
                      01039 ; ; Starting pCode block
                      01040 S_main__analogread      code
000000                01041 _analogread:
                      01042 ;       .line   134; /home/vbasel/.icaro/v4/firmware/core/analog.c      u16 analogread(u8 channel)
000000 CFD9 FFE5      01043         MOVFF   FSR2L, POSTDEC1
000004 CFE1 FFD9      01044         MOVFF   FSR1L, FSR2L
000008 C??? F???      01045         MOVFF   r0x00, POSTDEC1
00000C C??? F???      01046         MOVFF   r0x01, POSTDEC1
000010 C??? F???      01047         MOVFF   r0x02, POSTDEC1
000014 C??? F???      01048         MOVFF   r0x03, POSTDEC1
000018 0E02           01049         MOVLW   0x02
00001A CFDB F000      01050         MOVFF   PLUSW2, r0x00
                      01051 ;       .line   173; /home/vbasel/.icaro/v4/firmware/core/analog.c      if(channel>=13 && channel<=20)
00001E 0E0D           01052         MOVLW   0x0d
000020 5C??           01053         SUBWF   r0x00, W
000022 E3??           01054         BNC     _00684_DS_
000024 0E15           01055         MOVLW   0x15
000026 5C??           01056         SUBWF   r0x00, W
000028 E2??           01057         BC      _00684_DS_
                      01058 ;       .line   174; /home/vbasel/.icaro/v4/firmware/core/analog.c      ADCON0=(channel-13) << 2;   // A
                            0 = 13, ..., A4 = 17
00002A 0EF3           01059         MOVLW   0xf3
00002C 24??           01060         ADDWF   r0x00, W
00002E 6E??           01061         MOVWF   r0x01
000030 44??           01062         RLNCF   r0x01, W
000032 44E8           01063         RLNCF   WREG, W
000034 0BFC           01064         ANDLW   0xfc
000036 6E??           01065         MOVWF   _ADCON0
000038 D???           01066         BRA     _00685_DS_
00003A                01067 _00684_DS_:
                      01068 ;       .line   175; /home/vbasel/.icaro/v4/firmware/core/analog.c      else if(channel<=5)
00003A 0E06           01069         MOVLW   0x06
00003C 5C??           01070         SUBWF   r0x00, W
00003E E2??           01071         BC      _00685_DS_
                      01072 ;       .line   176; /home/vbasel/.icaro/v4/firmware/core/analog.c      ADCON0 = channel << 2;      // A
                            0 = 0, ..., A4 = 4
000040 44??           01073         RLNCF   r0x00, W
000042 44E8           01074         RLNCF   WREG, W
000044 0BFC           01075         ANDLW   0xfc
000046 6E??           01076         MOVWF   _ADCON0
gpasm-1.4.2 #1169 (Aug  3 2017) /home/vbasel/   3-17-2018  14:24:43         PAGE 22


LOC    OBJECT CODE    LINE  SOURCE TEXT
  VALUE

000048                01077 _00685_DS_:
                      01078 ;       .line   180; /home/vbasel/.icaro/v4/firmware/core/analog.c      ADCON0bits.ADON=1;              
                                // A/D Converter module is enabled
000048 80??           01079         BSF     _ADCON0bits, 0
                      01080 ;       .line   182; /home/vbasel/.icaro/v4/firmware/core/analog.c      for (result=1;result<10;result++
                            )   // Acquisition time
00004A 0E09           01081         MOVLW   0x09
00004C 6E??           01082         MOVWF   r0x00
00004E 6A??           01083         CLRF    r0x01
000050                01084 _00693_DS_:
000050 0000           01085         NOP
000052 0EFF           01086         MOVLW   0xff
000054 26??           01087         ADDWF   r0x00, F
000056 22??           01088         ADDWFC  r0x01, F
                      01089 ;       .line   182; /home/vbasel/.icaro/v4/firmware/core/analog.c      for (result=1;result<10;result++
                            )   // Acquisition time
000058 50??           01090         MOVF    r0x00, W
00005A 10??           01091         IORWF   r0x01, W
00005C E1??           01092         BNZ     _00693_DS_
                      01093 ;       .line   185; /home/vbasel/.icaro/v4/firmware/core/analog.c      ADCON0bits.GO=1;                
                                // Start A/D Conversion
00005E 82??           01094         BSF     _ADCON0bits, 1
000060                01095 _00688_DS_:
                      01096 ;       .line   187; /home/vbasel/.icaro/v4/firmware/core/analog.c      while (ADCON0bits.GO);          
                                // Wait for conversion stop
000060 B2??           01097         BTFSC   _ADCON0bits, 1
000062 D???           01098         BRA     _00688_DS_
                      01099 ;       .line   189; /home/vbasel/.icaro/v4/firmware/core/analog.c      result = ADRESH << 8;
000064 C??? F???      01100         MOVFF   _ADRESH, r0x00
000068 6A??           01101         CLRF    r0x01
00006A 50??           01102         MOVF    r0x00, W
00006C 6E??           01103         MOVWF   r0x03
00006E 6A??           01104         CLRF    r0x02
                      01105 ;       .line   190; /home/vbasel/.icaro/v4/firmware/core/analog.c      result += ADRESL;
000070 C??? F???      01106         MOVFF   _ADRESL, r0x00
000074 6A??           01107         CLRF    r0x01
000076 50??           01108         MOVF    r0x00, W
000078 26??           01109         ADDWF   r0x02, F
00007A 50??           01110         MOVF    r0x01, W
00007C 22??           01111         ADDWFC  r0x03, F
                      01112 ;       .line   192; /home/vbasel/.icaro/v4/firmware/core/analog.c      ADCON0bits.ADON = 0;            
                                // A/D Converter module is disabled
00007E 90??           01113         BCF     _ADCON0bits, 0
                      01114 ;       .line   194; /home/vbasel/.icaro/v4/firmware/core/analog.c      return(result);
000080 C??? F???      01115         MOVFF   r0x03, PRODL
000084 50??           01116         MOVF    r0x02, W
000086 CFE4 F000      01117         MOVFF   PREINC1, r0x03
00008A CFE4 F000      01118         MOVFF   PREINC1, r0x02
00008E CFE4 F000      01119         MOVFF   PREINC1, r0x01
000092 CFE4 F000      01120         MOVFF   PREINC1, r0x00
000096 CFE4 FFD9      01121         MOVFF   PREINC1, FSR2L
00009A 0012           01122         RETURN  
                      01123 
gpasm-1.4.2 #1169 (Aug  3 2017) /home/vbasel/   3-17-2018  14:24:43         PAGE 23


LOC    OBJECT CODE    LINE  SOURCE TEXT
  VALUE

                      01124 ; ; Starting pCode block
                      01125 S_main__analogreference code
000000                01126 _analogreference:
                      01127 ;       .line   103; /home/vbasel/.icaro/v4/firmware/core/analog.c      void analogreference(u8 Type)
000000 CFD9 FFE5      01128         MOVFF   FSR2L, POSTDEC1
000004 CFE1 FFD9      01129         MOVFF   FSR1L, FSR2L
000008 C??? F???      01130         MOVFF   r0x00, POSTDEC1
00000C 0E02           01131         MOVLW   0x02
00000E CFDB F000      01132         MOVFF   PLUSW2, r0x00
                      01133 ; #     MOVF    r0x00, W
                      01134 ; #     BTFSS   STATUS, 2
                      01135 ; #     GOTO    _00665_DS_
                      01136 ; #     GOTO    _00667_DS_
                      01137 ; #     MOVF    r0x00, W
                      01138 ;       .line   108; /home/vbasel/.icaro/v4/firmware/core/analog.c      if(Type == DEFAULT)             
                                    //the default analog reference of 5 volts (on 5V Arduino boards) or 3.3 volts (on 3.3V Arduino b
                            oards)
000012 50??           01139         MOVF    r0x00, W
                      01140 ;       .line   109; /home/vbasel/.icaro/v4/firmware/core/analog.c      ADCON1|=0x00;                   
                            //Vref+ = VDD
000014 E0??           01141         BZ      _00667_DS_
                      01142 ;       .line   110; /home/vbasel/.icaro/v4/firmware/core/analog.c      else if(Type == EXTERNAL)       
                            //the voltage applied to the AREF pin (0 to 5V only) is used as the reference.
000016 50??           01143         MOVF    r0x00, W
000018 0A01           01144         XORLW   0x01
00001A E1??           01145         BNZ     _00667_DS_
                      01146 ;       .line   111; /home/vbasel/.icaro/v4/firmware/core/analog.c      ADCON1|=0x10;                   
                            //Vref+ = External source
00001C 88??           01147         BSF     _ADCON1, 4
00001E                01148 _00667_DS_:
00001E CFE4 F000      01149         MOVFF   PREINC1, r0x00
000022 CFE4 FFD9      01150         MOVFF   PREINC1, FSR2L
000026 0012           01151         RETURN  
                      01152 
                      01153 ; ; Starting pCode block
                      01154 S_main__analog_init     code
000000                01155 _analog_init:
                      01156 ;       .line   36; /home/vbasel/.icaro/v4/firmware/core/analog.c       TRISA=TRISA | 0x2F;
000000 0E2F           01157         MOVLW   0x2f
000002 12??           01158         IORWF   _TRISA, F
                      01159 ;       .line   37; /home/vbasel/.icaro/v4/firmware/core/analog.c       TRISE=TRISE | 0x07;     
000004 0E07           01160         MOVLW   0x07
000006 12??           01161         IORWF   _TRISE, F
                      01162 ;       .line   38; /home/vbasel/.icaro/v4/firmware/core/analog.c       ADCON1=0x07;
000008 6E??           01163         MOVWF   _ADCON1
                      01164 ;       .line   39; /home/vbasel/.icaro/v4/firmware/core/analog.c       ADCON2=0xBD;
00000A 0EBD           01165         MOVLW   0xbd
00000C 6E??           01166         MOVWF   _ADCON2
00000E 0012           01167         RETURN  
                      01168 
                      01169 ; ; Starting pCode block
                      01170 S_main__servos_interrupt        code
000000                01171 _servos_interrupt:
gpasm-1.4.2 #1169 (Aug  3 2017) /home/vbasel/   3-17-2018  14:24:43         PAGE 24


LOC    OBJECT CODE    LINE  SOURCE TEXT
  VALUE

                      01172 ;       .line   547; /home/vbasel/.icaro/v4/firmware/libraries/servos.c if (PIR1bits.TMR1IF)
000000 A0??           01173         BTFSS   _PIR1bits, 0
000002 D???           01174         BRA     _00652_DS_
000004 ????           01175         BANKSEL _phase
                      01176 ;       .line   553; /home/vbasel/.icaro/v4/firmware/libraries/servos.c if (phase)
000006 51??           01177         MOVF    _phase, W, B
000008 E0??           01178         BZ      _00648_DS_
                      01179 ;       .line   555; /home/vbasel/.icaro/v4/firmware/libraries/servos.c ServosPulseUp();
00000A EC?? F0??      01180         CALL    _ServosPulseUp
                      01181 ;       .line   557; /home/vbasel/.icaro/v4/firmware/libraries/servos.c TMR1H= 0xe9;//0xe9;
00000E 0EE9           01182         MOVLW   0xe9
000010 6E??           01183         MOVWF   _TMR1H
                      01184 ;       .line   558; /home/vbasel/.icaro/v4/firmware/libraries/servos.c TMR1L= 0x59;
000012 0E59           01185         MOVLW   0x59
000014 6E??           01186         MOVWF   _TMR1L
                      01187 ;       .line   560; /home/vbasel/.icaro/v4/firmware/libraries/servos.c T1CON=1;
000016 0E01           01188         MOVLW   0x01
000018 6E??           01189         MOVWF   _T1CON
00001A ????           01190         BANKSEL _phase
                      01191 ;       .line   561; /home/vbasel/.icaro/v4/firmware/libraries/servos.c phase = 0;
00001C 6B??           01192         CLRF    _phase, B
00001E D???           01193         BRA     _00649_DS_
000020                01194 _00648_DS_:
                      01195 ;       .line   569; /home/vbasel/.icaro/v4/firmware/libraries/servos.c ServosPulseDown();
000020 EC?? F0??      01196         CALL    _ServosPulseDown
                      01197 ;       .line   573; /home/vbasel/.icaro/v4/firmware/libraries/servos.c TMR1H= 0x32;
000024 0E32           01198         MOVLW   0x32
000026 6E??           01199         MOVWF   _TMR1H
                      01200 ;       .line   574; /home/vbasel/.icaro/v4/firmware/libraries/servos.c TMR1L= 0xeb;
000028 0EEB           01201         MOVLW   0xeb
00002A 6E??           01202         MOVWF   _TMR1L
                      01203 ; #     MOVF    _needreordering, W, B
                      01204 ; #     BTFSC   STATUS, 2
                      01205 ; #     GOTO    _00646_DS_
                      01206 ; #     CALL    _SortServoTimings
                      01207 ; #     MOVLW   0x21
00002C ????           01208         BANKSEL _needreordering
                      01209 ;       .line   576; /home/vbasel/.icaro/v4/firmware/libraries/servos.c if (needreordering)
00002E 51??           01210         MOVF    _needreordering, W, B
                      01211 ;       .line   577; /home/vbasel/.icaro/v4/firmware/libraries/servos.c SortServoTimings(); // This take
                            s more than 1 ms, but it's call only if needed.
000030 A4D8           01212         BTFSS   STATUS, 2
                      01213 ;       .line   578; /home/vbasel/.icaro/v4/firmware/libraries/servos.c T1CON= ( 1 | 2 << 4 ) ; // activ
                            ate timer1 and prescaler = 1:4
000032 EC?? F0??      01214         CALL    _SortServoTimings
000036 0E21           01215         MOVLW   0x21
000038 6E??           01216         MOVWF   _T1CON
                      01217 ;       .line   579; /home/vbasel/.icaro/v4/firmware/libraries/servos.c phase = 1;                      
                            //This indicates that after next interrupt it will start the servos cycle.
00003A 0E01           01218         MOVLW   0x01
00003C ????           01219         BANKSEL _phase
00003E 6F??           01220         MOVWF   _phase, B
000040                01221 _00649_DS_:
gpasm-1.4.2 #1169 (Aug  3 2017) /home/vbasel/   3-17-2018  14:24:43         PAGE 25


LOC    OBJECT CODE    LINE  SOURCE TEXT
  VALUE

                      01222 ;       .line   583; /home/vbasel/.icaro/v4/firmware/libraries/servos.c PIR1bits.TMR1IF=0;
000040 90??           01223         BCF     _PIR1bits, 0
000042                01224 _00652_DS_:
                      01225 ;       .line   585; /home/vbasel/.icaro/v4/firmware/libraries/servos.c return;
000042 0012           01226         RETURN  
                      01227 
                      01228 ; ; Starting pCode block
                      01229 S_main__ServoMaximumPulse       code
000000                01230 _ServoMaximumPulse:
                      01231 ;       .line   530; /home/vbasel/.icaro/v4/firmware/libraries/servos.c void ServoMaximumPulse(unsigned 
                            char servo,int max_microseconds)
000000 CFD9 FFE5      01232         MOVFF   FSR2L, POSTDEC1
000004 CFE1 FFD9      01233         MOVFF   FSR1L, FSR2L
000008 C??? F???      01234         MOVFF   r0x00, POSTDEC1
00000C C??? F???      01235         MOVFF   r0x01, POSTDEC1
000010 C??? F???      01236         MOVFF   r0x02, POSTDEC1
000014 C??? F???      01237         MOVFF   r0x03, POSTDEC1
000018 0E02           01238         MOVLW   0x02
00001A CFDB F000      01239         MOVFF   PLUSW2, r0x00
00001E 0E03           01240         MOVLW   0x03
000020 CFDB F000      01241         MOVFF   PLUSW2, r0x01
000024 0E04           01242         MOVLW   0x04
000026 CFDB F000      01243         MOVFF   PLUSW2, r0x02
                      01244 ;       .line   533; /home/vbasel/.icaro/v4/firmware/libraries/servos.c if(servo>=TotalPICpins)
00002A 0E1E           01245         MOVLW   0x1e
                      01246 ; #     SUBWF   r0x00, W
                      01247 ; #     BTFSS   STATUS, 0
                      01248 ; #     GOTO    _00622_DS_
                      01249 ; #     GOTO    _00627_DS_
                      01250 ; #     MOVF    r0x02, W
                      01251 ;       .line   534; /home/vbasel/.icaro/v4/firmware/libraries/servos.c return;
00002C 5C??           01252         SUBWF   r0x00, W
                      01253 ;       .line   537; /home/vbasel/.icaro/v4/firmware/libraries/servos.c if (max_microseconds < MIDUS) ma
                            x_microseconds = MIDUS;
00002E E2??           01254         BC      _00627_DS_
000030 50??           01255         MOVF    r0x02, W
000032 0F80           01256         ADDLW   0x80
000034 0F7B           01257         ADDLW   0x7b
000036 E1??           01258         BNZ     _00639_DS_
000038 0EDC           01259         MOVLW   0xdc
00003A 5C??           01260         SUBWF   r0x01, W
00003C                01261 _00639_DS_:
00003C E2??           01262         BC      _00624_DS_
00003E 0EDC           01263         MOVLW   0xdc
000040 6E??           01264         MOVWF   r0x01
000042 0E05           01265         MOVLW   0x05
000044 6E??           01266         MOVWF   r0x02
000046                01267 _00624_DS_:
                      01268 ;       .line   538; /home/vbasel/.icaro/v4/firmware/libraries/servos.c if (max_microseconds > MAXUS) ma
                            x_microseconds = MAXUS;
000046 50??           01269         MOVF    r0x02, W
000048 0F80           01270         ADDLW   0x80
00004A 0F77           01271         ADDLW   0x77
gpasm-1.4.2 #1169 (Aug  3 2017) /home/vbasel/   3-17-2018  14:24:43         PAGE 26


LOC    OBJECT CODE    LINE  SOURCE TEXT
  VALUE

00004C E1??           01272         BNZ     _00640_DS_
00004E 0EC5           01273         MOVLW   0xc5
000050 5C??           01274         SUBWF   r0x01, W
000052                01275 _00640_DS_:
000052 E3??           01276         BNC     _00626_DS_
000054 0EC4           01277         MOVLW   0xc4
000056 6E??           01278         MOVWF   r0x01
000058 0E09           01279         MOVLW   0x09
00005A 6E??           01280         MOVWF   r0x02
00005C                01281 _00626_DS_:
                      01282 ;       .line   541; /home/vbasel/.icaro/v4/firmware/libraries/servos.c maxminpos[1][servo]=(max_microse
                            conds - MINUS)>>3;   // 125 < final_max < 250
00005C 6A??           01283         CLRF    r0x03
00005E 0E??           01284         MOVLW   LOW(_maxminpos + 30)
000060 26??           01285         ADDWF   r0x00, F
000062 0E??           01286         MOVLW   HIGH(_maxminpos + 30)
000064 22??           01287         ADDWFC  r0x03, F
000066 0E0C           01288         MOVLW   0x0c
000068 26??           01289         ADDWF   r0x01, F
00006A 0EFE           01290         MOVLW   0xfe
00006C 22??           01291         ADDWFC  r0x02, F
00006E 34??           01292         RLCF    r0x02, W
000070 32??           01293         RRCF    r0x02, F
000072 32??           01294         RRCF    r0x01, F
000074 34??           01295         RLCF    r0x02, W
000076 32??           01296         RRCF    r0x02, F
000078 32??           01297         RRCF    r0x01, F
00007A 34??           01298         RLCF    r0x02, W
00007C 32??           01299         RRCF    r0x02, F
00007E 32??           01300         RRCF    r0x01, F
000080 C??? F???      01301         MOVFF   r0x00, FSR0L
000084 C??? F???      01302         MOVFF   r0x03, FSR0H
000088 C??? F???      01303         MOVFF   r0x01, INDF0
00008C                01304 _00627_DS_:
00008C CFE4 F000      01305         MOVFF   PREINC1, r0x03
000090 CFE4 F000      01306         MOVFF   PREINC1, r0x02
000094 CFE4 F000      01307         MOVFF   PREINC1, r0x01
000098 CFE4 F000      01308         MOVFF   PREINC1, r0x00
00009C CFE4 FFD9      01309         MOVFF   PREINC1, FSR2L
0000A0 0012           01310         RETURN  
                      01311 
                      01312 ; ; Starting pCode block
                      01313 S_main__ServoMinimumPulse       code
000000                01314 _ServoMinimumPulse:
                      01315 ;       .line   516; /home/vbasel/.icaro/v4/firmware/libraries/servos.c void ServoMinimumPulse(unsigned 
                            char servo,int min_microseconds)
000000 CFD9 FFE5      01316         MOVFF   FSR2L, POSTDEC1
000004 CFE1 FFD9      01317         MOVFF   FSR1L, FSR2L
000008 C??? F???      01318         MOVFF   r0x00, POSTDEC1
00000C C??? F???      01319         MOVFF   r0x01, POSTDEC1
000010 C??? F???      01320         MOVFF   r0x02, POSTDEC1
000014 C??? F???      01321         MOVFF   r0x03, POSTDEC1
000018 0E02           01322         MOVLW   0x02
gpasm-1.4.2 #1169 (Aug  3 2017) /home/vbasel/   3-17-2018  14:24:43         PAGE 27


LOC    OBJECT CODE    LINE  SOURCE TEXT
  VALUE

00001A CFDB F000      01323         MOVFF   PLUSW2, r0x00
00001E 0E03           01324         MOVLW   0x03
000020 CFDB F000      01325         MOVFF   PLUSW2, r0x01
000024 0E04           01326         MOVLW   0x04
000026 CFDB F000      01327         MOVFF   PLUSW2, r0x02
                      01328 ;       .line   519; /home/vbasel/.icaro/v4/firmware/libraries/servos.c if(servo>=TotalPICpins)
00002A 0E1E           01329         MOVLW   0x1e
                      01330 ; #     SUBWF   r0x00, W
                      01331 ; #     BTFSS   STATUS, 0
                      01332 ; #     GOTO    _00598_DS_
                      01333 ; #     GOTO    _00603_DS_
                      01334 ; #     MOVF    r0x02, W
                      01335 ;       .line   520; /home/vbasel/.icaro/v4/firmware/libraries/servos.c return;
00002C 5C??           01336         SUBWF   r0x00, W
                      01337 ;       .line   523; /home/vbasel/.icaro/v4/firmware/libraries/servos.c if (min_microseconds < MINUS) mi
                            n_microseconds = MINUS;
00002E E2??           01338         BC      _00603_DS_
000030 50??           01339         MOVF    r0x02, W
000032 0F80           01340         ADDLW   0x80
000034 0F7F           01341         ADDLW   0x7f
000036 E1??           01342         BNZ     _00615_DS_
000038 0EF4           01343         MOVLW   0xf4
00003A 5C??           01344         SUBWF   r0x01, W
00003C                01345 _00615_DS_:
00003C E2??           01346         BC      _00600_DS_
00003E 0EF4           01347         MOVLW   0xf4
000040 6E??           01348         MOVWF   r0x01
000042 0E01           01349         MOVLW   0x01
000044 6E??           01350         MOVWF   r0x02
000046                01351 _00600_DS_:
                      01352 ;       .line   524; /home/vbasel/.icaro/v4/firmware/libraries/servos.c if (min_microseconds > MIDUS) mi
                            n_microseconds = MIDUS;
000046 50??           01353         MOVF    r0x02, W
000048 0F80           01354         ADDLW   0x80
00004A 0F7B           01355         ADDLW   0x7b
00004C E1??           01356         BNZ     _00616_DS_
00004E 0EDD           01357         MOVLW   0xdd
000050 5C??           01358         SUBWF   r0x01, W
000052                01359 _00616_DS_:
000052 E3??           01360         BNC     _00602_DS_
000054 0EDC           01361         MOVLW   0xdc
000056 6E??           01362         MOVWF   r0x01
000058 0E05           01363         MOVLW   0x05
00005A 6E??           01364         MOVWF   r0x02
00005C                01365 _00602_DS_:
                      01366 ;       .line   527; /home/vbasel/.icaro/v4/firmware/libraries/servos.c maxminpos[0][servo]=(min_microse
                            conds - MINUS)>>3;   // 0 < final_min < 125
00005C 6A??           01367         CLRF    r0x03
00005E 0E??           01368         MOVLW   LOW(_maxminpos)
000060 26??           01369         ADDWF   r0x00, F
000062 0E??           01370         MOVLW   HIGH(_maxminpos)
000064 22??           01371         ADDWFC  r0x03, F
000066 0E0C           01372         MOVLW   0x0c
gpasm-1.4.2 #1169 (Aug  3 2017) /home/vbasel/   3-17-2018  14:24:43         PAGE 28


LOC    OBJECT CODE    LINE  SOURCE TEXT
  VALUE

000068 26??           01373         ADDWF   r0x01, F
00006A 0EFE           01374         MOVLW   0xfe
00006C 22??           01375         ADDWFC  r0x02, F
00006E 34??           01376         RLCF    r0x02, W
000070 32??           01377         RRCF    r0x02, F
000072 32??           01378         RRCF    r0x01, F
000074 34??           01379         RLCF    r0x02, W
000076 32??           01380         RRCF    r0x02, F
000078 32??           01381         RRCF    r0x01, F
00007A 34??           01382         RLCF    r0x02, W
00007C 32??           01383         RRCF    r0x02, F
00007E 32??           01384         RRCF    r0x01, F
000080 C??? F???      01385         MOVFF   r0x00, FSR0L
000084 C??? F???      01386         MOVFF   r0x03, FSR0H
000088 C??? F???      01387         MOVFF   r0x01, INDF0
00008C                01388 _00603_DS_:
00008C CFE4 F000      01389         MOVFF   PREINC1, r0x03
000090 CFE4 F000      01390         MOVFF   PREINC1, r0x02
000094 CFE4 F000      01391         MOVFF   PREINC1, r0x01
000098 CFE4 F000      01392         MOVFF   PREINC1, r0x00
00009C CFE4 FFD9      01393         MOVFF   PREINC1, FSR2L
0000A0 0012           01394         RETURN  
                      01395 
                      01396 ; ; Starting pCode block
                      01397 S_main__ServoRead       code
000000                01398 _ServoRead:
                      01399 ;       .line   508; /home/vbasel/.icaro/v4/firmware/libraries/servos.c unsigned char ServoRead(unsigned
                             char servo)
000000 CFD9 FFE5      01400         MOVFF   FSR2L, POSTDEC1
000004 CFE1 FFD9      01401         MOVFF   FSR1L, FSR2L
000008 C??? F???      01402         MOVFF   r0x00, POSTDEC1
00000C C??? F???      01403         MOVFF   r0x01, POSTDEC1
000010 0E02           01404         MOVLW   0x02
000012 CFDB F000      01405         MOVFF   PLUSW2, r0x00
                      01406 ;       .line   510; /home/vbasel/.icaro/v4/firmware/libraries/servos.c if(servo>=TotalPICpins)        /
                            / test if numservo is valid
000016 0E1E           01407         MOVLW   0x1e
000018 5C??           01408         SUBWF   r0x00, W
00001A E3??           01409         BNC     _00586_DS_
                      01410 ;       .line   511; /home/vbasel/.icaro/v4/firmware/libraries/servos.c return 0;
00001C 6AE8           01411         CLRF    WREG
00001E D???           01412         BRA     _00587_DS_
000020                01413 _00586_DS_:
                      01414 ;       .line   513; /home/vbasel/.icaro/v4/firmware/libraries/servos.c return servovalues[servo];
000020 6A??           01415         CLRF    r0x01
000022 0E??           01416         MOVLW   LOW(_servovalues)
000024 26??           01417         ADDWF   r0x00, F
000026 0E??           01418         MOVLW   HIGH(_servovalues)
000028 22??           01419         ADDWFC  r0x01, F
00002A C??? F???      01420         MOVFF   r0x00, FSR0L
00002E C??? F???      01421         MOVFF   r0x01, FSR0H
000032 CFEF F000      01422         MOVFF   INDF0, r0x00
000036 50??           01423         MOVF    r0x00, W
gpasm-1.4.2 #1169 (Aug  3 2017) /home/vbasel/   3-17-2018  14:24:43         PAGE 29


LOC    OBJECT CODE    LINE  SOURCE TEXT
  VALUE

000038                01424 _00587_DS_:
000038 CFE4 F000      01425         MOVFF   PREINC1, r0x01
00003C CFE4 F000      01426         MOVFF   PREINC1, r0x00
000040 CFE4 FFD9      01427         MOVFF   PREINC1, FSR2L
000044 0012           01428         RETURN  
                      01429 
                      01430 ; ; Starting pCode block
                      01431 S_main__ServoWrite      code
000000                01432 _ServoWrite:
                      01433 ;       .line   484; /home/vbasel/.icaro/v4/firmware/libraries/servos.c void ServoWrite(unsigned char se
                            rvo,unsigned char degrees)
000000 CFD9 FFE5      01434         MOVFF   FSR2L, POSTDEC1
000004 CFE1 FFD9      01435         MOVFF   FSR1L, FSR2L
000008 C??? F???      01436         MOVFF   r0x00, POSTDEC1
00000C C??? F???      01437         MOVFF   r0x01, POSTDEC1
000010 C??? F???      01438         MOVFF   r0x02, POSTDEC1
000014 0E02           01439         MOVLW   0x02
000016 CFDB F000      01440         MOVFF   PLUSW2, r0x00
00001A 0E03           01441         MOVLW   0x03
00001C CFDB F000      01442         MOVFF   PLUSW2, r0x01
                      01443 ;       .line   491; /home/vbasel/.icaro/v4/firmware/libraries/servos.c if(servo>=TotalPICpins)
000020 0E1E           01444         MOVLW   0x1e
                      01445 ; #     SUBWF   r0x00, W
                      01446 ; #     BTFSS   STATUS, 0
                      01447 ; #     GOTO    _00574_DS_
                      01448 ; #     GOTO    _00575_DS_
                      01449 ; #     CLRF    r0x02
                      01450 ;       .line   492; /home/vbasel/.icaro/v4/firmware/libraries/servos.c return;
000022 5C??           01451         SUBWF   r0x00, W
                      01452 ;       .line   503; /home/vbasel/.icaro/v4/firmware/libraries/servos.c servovalues[servo]= value;
000024 E2??           01453         BC      _00575_DS_
000026 6A??           01454         CLRF    r0x02
000028 0E??           01455         MOVLW   LOW(_servovalues)
00002A 26??           01456         ADDWF   r0x00, F
00002C 0E??           01457         MOVLW   HIGH(_servovalues)
00002E 22??           01458         ADDWFC  r0x02, F
000030 C??? F???      01459         MOVFF   r0x00, FSR0L
000034 C??? F???      01460         MOVFF   r0x02, FSR0H
000038 C??? F???      01461         MOVFF   r0x01, INDF0
                      01462 ;       .line   505; /home/vbasel/.icaro/v4/firmware/libraries/servos.c needreordering=1;  // This indic
                            ates servo timings must be reordered.
00003C 0E01           01463         MOVLW   0x01
00003E ????           01464         BANKSEL _needreordering
000040 6F??           01465         MOVWF   _needreordering, B
000042                01466 _00575_DS_:
000042 CFE4 F000      01467         MOVFF   PREINC1, r0x02
000046 CFE4 F000      01468         MOVFF   PREINC1, r0x01
00004A CFE4 F000      01469         MOVFF   PREINC1, r0x00
00004E CFE4 FFD9      01470         MOVFF   PREINC1, FSR2L
000052 0012           01471         RETURN  
                      01472 
                      01473 ; ; Starting pCode block
                      01474 S_main__ServoDetach     code
gpasm-1.4.2 #1169 (Aug  3 2017) /home/vbasel/   3-17-2018  14:24:43         PAGE 30


LOC    OBJECT CODE    LINE  SOURCE TEXT
  VALUE

000000                01475 _ServoDetach:
                      01476 ;       .line   459; /home/vbasel/.icaro/v4/firmware/libraries/servos.c void ServoDetach(unsigned char p
                            in)
000000 CFD9 FFE5      01477         MOVFF   FSR2L, POSTDEC1
000004 CFE1 FFD9      01478         MOVFF   FSR1L, FSR2L
000008 C??? F???      01479         MOVFF   r0x00, POSTDEC1
00000C C??? F???      01480         MOVFF   r0x01, POSTDEC1
000010 C??? F???      01481         MOVFF   r0x02, POSTDEC1
000014 C??? F???      01482         MOVFF   r0x03, POSTDEC1
000018 0E02           01483         MOVLW   0x02
00001A CFDB F000      01484         MOVFF   PLUSW2, r0x00
                      01485 ;       .line   461; /home/vbasel/.icaro/v4/firmware/libraries/servos.c if(pin>=TotalPICpins) return;
00001E 0E1E           01486         MOVLW   0x1e
                      01487 ; #     SUBWF   r0x00, W
                      01488 ; #     BTFSS   STATUS, 0
                      01489 ; #     GOTO    _00551_DS_
                      01490 ; #     GOTO    _00558_DS_
                      01491 ; #     MOVLW   LOW(_port)
                      01492 ;       .line   463; /home/vbasel/.icaro/v4/firmware/libraries/servos.c switch (port[pin])
000020 5C??           01493         SUBWF   r0x00, W
000022 B0D8           01494         BTFSC   STATUS, 0
000024 D???           01495         BRA     _00558_DS_
000026 0E??           01496         MOVLW   LOW(_port)
000028 24??           01497         ADDWF   r0x00, W
00002A 6E??           01498         MOVWF   r0x01
00002C 6A??           01499         CLRF    r0x02
00002E 0E??           01500         MOVLW   HIGH(_port)
000030 22??           01501         ADDWFC  r0x02, F
000032 6A??           01502         CLRF    r0x03
000034 0E??           01503         MOVLW   UPPER(_port)
000036 22??           01504         ADDWFC  r0x03, F
000038 C??? F???      01505         MOVFF   r0x01, TBLPTRL
00003C C??? F???      01506         MOVFF   r0x02, TBLPTRH
000040 C??? F???      01507         MOVFF   r0x03, TBLPTRU
000044 0009           01508         TBLRD*+ 
000046 CFF5 F000      01509         MOVFF   TABLAT, r0x01
00004A 0E05           01510         MOVLW   0x05
00004C 5C??           01511         SUBWF   r0x01, W
00004E B0D8           01512         BTFSC   STATUS, 0
000050 D???           01513         BRA     _00558_DS_
000052 6AFA           01514         CLRF    PCLATH
000054 6AFB           01515         CLRF    PCLATU
000056 34??           01516         RLCF    r0x01, W
000058 36FA           01517         RLCF    PCLATH, F
00005A 34E8           01518         RLCF    WREG, W
00005C 36FA           01519         RLCF    PCLATH, F
00005E 0BFC           01520         ANDLW   0xfc
000060 0F??           01521         ADDLW   LOW(_00568_DS_)
000062 6EE5           01522         MOVWF   POSTDEC1
000064 0E??           01523         MOVLW   HIGH(_00568_DS_)
000066 22FA           01524         ADDWFC  PCLATH, F
000068 0E??           01525         MOVLW   UPPER(_00568_DS_)
00006A 22FB           01526         ADDWFC  PCLATU, F
gpasm-1.4.2 #1169 (Aug  3 2017) /home/vbasel/   3-17-2018  14:24:43         PAGE 31


LOC    OBJECT CODE    LINE  SOURCE TEXT
  VALUE

00006C 50E4           01527         MOVF    PREINC1, W
00006E 6EF9           01528         MOVWF   PCL
000070                01529 _00568_DS_:
000070 EF?? F0??      01530         GOTO    _00552_DS_
000074 EF?? F0??      01531         GOTO    _00553_DS_
000078 EF?? F0??      01532         GOTO    _00554_DS_
00007C EF?? F0??      01533         GOTO    _00555_DS_
000080 EF?? F0??      01534         GOTO    _00556_DS_
000084                01535 _00552_DS_:
                      01536 ;       .line   465; /home/vbasel/.icaro/v4/firmware/libraries/servos.c case pA: activatedservos[pA] = a
                            ctivatedservos[pA] ^ mask[pin];
000084 0E??           01537         MOVLW   LOW(_mask)
000086 24??           01538         ADDWF   r0x00, W
000088 6E??           01539         MOVWF   r0x01
00008A 6A??           01540         CLRF    r0x02
00008C 0E??           01541         MOVLW   HIGH(_mask)
00008E 22??           01542         ADDWFC  r0x02, F
000090 6A??           01543         CLRF    r0x03
000092 0E??           01544         MOVLW   UPPER(_mask)
000094 22??           01545         ADDWFC  r0x03, F
000096 C??? F???      01546         MOVFF   r0x01, TBLPTRL
00009A C??? F???      01547         MOVFF   r0x02, TBLPTRH
00009E C??? F???      01548         MOVFF   r0x03, TBLPTRU
0000A2 0009           01549         TBLRD*+ 
0000A4 CFF5 F000      01550         MOVFF   TABLAT, r0x01
0000A8 ????           01551         BANKSEL _activatedservos
0000AA 51??           01552         MOVF    _activatedservos, W, B
0000AC 1A??           01553         XORWF   r0x01, F
0000AE 50??           01554         MOVF    r0x01, W
                      01555 ; removed redundant BANKSEL
0000B0 6F??           01556         MOVWF   _activatedservos, B
                      01557 ;       .line   466; /home/vbasel/.icaro/v4/firmware/libraries/servos.c break;
0000B2 D???           01558         BRA     _00558_DS_
0000B4                01559 _00553_DS_:
                      01560 ;       .line   467; /home/vbasel/.icaro/v4/firmware/libraries/servos.c case pB: activatedservos[pB] = a
                            ctivatedservos[pB] ^ mask[pin];
0000B4 0E??           01561         MOVLW   LOW(_mask)
0000B6 24??           01562         ADDWF   r0x00, W
0000B8 6E??           01563         MOVWF   r0x01
0000BA 6A??           01564         CLRF    r0x02
0000BC 0E??           01565         MOVLW   HIGH(_mask)
0000BE 22??           01566         ADDWFC  r0x02, F
0000C0 6A??           01567         CLRF    r0x03
0000C2 0E??           01568         MOVLW   UPPER(_mask)
0000C4 22??           01569         ADDWFC  r0x03, F
0000C6 C??? F???      01570         MOVFF   r0x01, TBLPTRL
0000CA C??? F???      01571         MOVFF   r0x02, TBLPTRH
0000CE C??? F???      01572         MOVFF   r0x03, TBLPTRU
0000D2 0009           01573         TBLRD*+ 
0000D4 CFF5 F000      01574         MOVFF   TABLAT, r0x01
0000D8 ????           01575         BANKSEL (_activatedservos + 1)
0000DA 51??           01576         MOVF    (_activatedservos + 1), W, B
0000DC 1A??           01577         XORWF   r0x01, F
gpasm-1.4.2 #1169 (Aug  3 2017) /home/vbasel/   3-17-2018  14:24:43         PAGE 32


LOC    OBJECT CODE    LINE  SOURCE TEXT
  VALUE

0000DE 50??           01578         MOVF    r0x01, W
                      01579 ; removed redundant BANKSEL
0000E0 6F??           01580         MOVWF   (_activatedservos + 1), B
                      01581 ;       .line   468; /home/vbasel/.icaro/v4/firmware/libraries/servos.c break;
0000E2 D???           01582         BRA     _00558_DS_
0000E4                01583 _00554_DS_:
                      01584 ;       .line   470; /home/vbasel/.icaro/v4/firmware/libraries/servos.c case pC: activatedservos[pC] = a
                            ctivatedservos[pC] ^ mask[pin];
0000E4 0E??           01585         MOVLW   LOW(_mask)
0000E6 24??           01586         ADDWF   r0x00, W
0000E8 6E??           01587         MOVWF   r0x01
0000EA 6A??           01588         CLRF    r0x02
0000EC 0E??           01589         MOVLW   HIGH(_mask)
0000EE 22??           01590         ADDWFC  r0x02, F
0000F0 6A??           01591         CLRF    r0x03
0000F2 0E??           01592         MOVLW   UPPER(_mask)
0000F4 22??           01593         ADDWFC  r0x03, F
0000F6 C??? F???      01594         MOVFF   r0x01, TBLPTRL
0000FA C??? F???      01595         MOVFF   r0x02, TBLPTRH
0000FE C??? F???      01596         MOVFF   r0x03, TBLPTRU
000102 0009           01597         TBLRD*+ 
000104 CFF5 F000      01598         MOVFF   TABLAT, r0x01
000108 ????           01599         BANKSEL (_activatedservos + 2)
00010A 51??           01600         MOVF    (_activatedservos + 2), W, B
00010C 1A??           01601         XORWF   r0x01, F
00010E 50??           01602         MOVF    r0x01, W
                      01603 ; removed redundant BANKSEL
000110 6F??           01604         MOVWF   (_activatedservos + 2), B
                      01605 ;       .line   471; /home/vbasel/.icaro/v4/firmware/libraries/servos.c break;
000112 D???           01606         BRA     _00558_DS_
000114                01607 _00555_DS_:
                      01608 ;       .line   474; /home/vbasel/.icaro/v4/firmware/libraries/servos.c case pD: activatedservos[pD] = a
                            ctivatedservos[pD] ^ mask[pin];
000114 0E??           01609         MOVLW   LOW(_mask)
000116 24??           01610         ADDWF   r0x00, W
000118 6E??           01611         MOVWF   r0x01
00011A 6A??           01612         CLRF    r0x02
00011C 0E??           01613         MOVLW   HIGH(_mask)
00011E 22??           01614         ADDWFC  r0x02, F
000120 6A??           01615         CLRF    r0x03
000122 0E??           01616         MOVLW   UPPER(_mask)
000124 22??           01617         ADDWFC  r0x03, F
000126 C??? F???      01618         MOVFF   r0x01, TBLPTRL
00012A C??? F???      01619         MOVFF   r0x02, TBLPTRH
00012E C??? F???      01620         MOVFF   r0x03, TBLPTRU
000132 0009           01621         TBLRD*+ 
000134 CFF5 F000      01622         MOVFF   TABLAT, r0x01
000138 ????           01623         BANKSEL (_activatedservos + 3)
00013A 51??           01624         MOVF    (_activatedservos + 3), W, B
00013C 1A??           01625         XORWF   r0x01, F
00013E 50??           01626         MOVF    r0x01, W
                      01627 ; removed redundant BANKSEL
000140 6F??           01628         MOVWF   (_activatedservos + 3), B
gpasm-1.4.2 #1169 (Aug  3 2017) /home/vbasel/   3-17-2018  14:24:43         PAGE 33


LOC    OBJECT CODE    LINE  SOURCE TEXT
  VALUE

                      01629 ;       .line   475; /home/vbasel/.icaro/v4/firmware/libraries/servos.c break;
000142 D???           01630         BRA     _00558_DS_
000144                01631 _00556_DS_:
                      01632 ;       .line   478; /home/vbasel/.icaro/v4/firmware/libraries/servos.c case pE: activatedservos[pE] = a
                            ctivatedservos[pE] ^ mask[pin];
000144 6A??           01633         CLRF    r0x01
000146 6A??           01634         CLRF    r0x02
000148 0E??           01635         MOVLW   LOW(_mask)
00014A 26??           01636         ADDWF   r0x00, F
00014C 0E??           01637         MOVLW   HIGH(_mask)
00014E 22??           01638         ADDWFC  r0x01, F
000150 0E??           01639         MOVLW   UPPER(_mask)
000152 22??           01640         ADDWFC  r0x02, F
000154 C??? F???      01641         MOVFF   r0x00, TBLPTRL
000158 C??? F???      01642         MOVFF   r0x01, TBLPTRH
00015C C??? F???      01643         MOVFF   r0x02, TBLPTRU
000160 0009           01644         TBLRD*+ 
000162 CFF5 F000      01645         MOVFF   TABLAT, r0x00
000166 ????           01646         BANKSEL (_activatedservos + 4)
000168 51??           01647         MOVF    (_activatedservos + 4), W, B
00016A 1A??           01648         XORWF   r0x00, F
00016C 50??           01649         MOVF    r0x00, W
                      01650 ; removed redundant BANKSEL
00016E 6F??           01651         MOVWF   (_activatedservos + 4), B
000170                01652 _00558_DS_:
                      01653 ;       .line   481; /home/vbasel/.icaro/v4/firmware/libraries/servos.c }
000170 CFE4 F000      01654         MOVFF   PREINC1, r0x03
000174 CFE4 F000      01655         MOVFF   PREINC1, r0x02
000178 CFE4 F000      01656         MOVFF   PREINC1, r0x01
00017C CFE4 F000      01657         MOVFF   PREINC1, r0x00
000180 CFE4 FFD9      01658         MOVFF   PREINC1, FSR2L
000184 0012           01659         RETURN  
                      01660 
                      01661 ; ; Starting pCode block
                      01662 S_main__ServoAttach     code
000000                01663 _ServoAttach:
                      01664 ;       .line   424; /home/vbasel/.icaro/v4/firmware/libraries/servos.c void ServoAttach(unsigned char p
                            in)
000000 CFD9 FFE5      01665         MOVFF   FSR2L, POSTDEC1
000004 CFE1 FFD9      01666         MOVFF   FSR1L, FSR2L
000008 C??? F???      01667         MOVFF   r0x00, POSTDEC1
00000C C??? F???      01668         MOVFF   r0x01, POSTDEC1
000010 C??? F???      01669         MOVFF   r0x02, POSTDEC1
000014 C??? F???      01670         MOVFF   r0x03, POSTDEC1
000018 C??? F???      01671         MOVFF   r0x04, POSTDEC1
00001C 0E02           01672         MOVLW   0x02
00001E CFDB F000      01673         MOVFF   PLUSW2, r0x00
                      01674 ;       .line   426; /home/vbasel/.icaro/v4/firmware/libraries/servos.c if(pin>=TotalPICpins) return;
000022 0E1E           01675         MOVLW   0x1e
                      01676 ; #     SUBWF   r0x00, W
                      01677 ; #     BTFSS   STATUS, 0
                      01678 ; #     GOTO    _00528_DS_
                      01679 ; #     GOTO    _00535_DS_
gpasm-1.4.2 #1169 (Aug  3 2017) /home/vbasel/   3-17-2018  14:24:43         PAGE 34


LOC    OBJECT CODE    LINE  SOURCE TEXT
  VALUE

                      01680 ; #     MOVLW   LOW(_port)
                      01681 ;       .line   428; /home/vbasel/.icaro/v4/firmware/libraries/servos.c switch (port[pin])
000024 5C??           01682         SUBWF   r0x00, W
000026 B0D8           01683         BTFSC   STATUS, 0
000028 D???           01684         BRA     _00535_DS_
00002A 0E??           01685         MOVLW   LOW(_port)
00002C 24??           01686         ADDWF   r0x00, W
00002E 6E??           01687         MOVWF   r0x01
000030 6A??           01688         CLRF    r0x02
000032 0E??           01689         MOVLW   HIGH(_port)
000034 22??           01690         ADDWFC  r0x02, F
000036 6A??           01691         CLRF    r0x03
000038 0E??           01692         MOVLW   UPPER(_port)
00003A 22??           01693         ADDWFC  r0x03, F
00003C C??? F???      01694         MOVFF   r0x01, TBLPTRL
000040 C??? F???      01695         MOVFF   r0x02, TBLPTRH
000044 C??? F???      01696         MOVFF   r0x03, TBLPTRU
000048 0009           01697         TBLRD*+ 
00004A CFF5 F000      01698         MOVFF   TABLAT, r0x01
00004E 0E05           01699         MOVLW   0x05
000050 5C??           01700         SUBWF   r0x01, W
000052 B0D8           01701         BTFSC   STATUS, 0
000054 D???           01702         BRA     _00535_DS_
000056 6AFA           01703         CLRF    PCLATH
000058 6AFB           01704         CLRF    PCLATU
00005A 34??           01705         RLCF    r0x01, W
00005C 36FA           01706         RLCF    PCLATH, F
00005E 34E8           01707         RLCF    WREG, W
000060 36FA           01708         RLCF    PCLATH, F
000062 0BFC           01709         ANDLW   0xfc
000064 0F??           01710         ADDLW   LOW(_00545_DS_)
000066 6EE5           01711         MOVWF   POSTDEC1
000068 0E??           01712         MOVLW   HIGH(_00545_DS_)
00006A 22FA           01713         ADDWFC  PCLATH, F
00006C 0E??           01714         MOVLW   UPPER(_00545_DS_)
00006E 22FB           01715         ADDWFC  PCLATU, F
000070 50E4           01716         MOVF    PREINC1, W
000072 6EF9           01717         MOVWF   PCL
000074                01718 _00545_DS_:
000074 EF?? F0??      01719         GOTO    _00529_DS_
000078 EF?? F0??      01720         GOTO    _00530_DS_
00007C EF?? F0??      01721         GOTO    _00531_DS_
000080 EF?? F0??      01722         GOTO    _00532_DS_
000084 EF?? F0??      01723         GOTO    _00533_DS_
000088                01724 _00529_DS_:
                      01725 ;       .line   431; /home/vbasel/.icaro/v4/firmware/libraries/servos.c activatedservos[pA] = activateds
                            ervos[pA] | mask[pin];  // list pin as servo driver.
000088 0E??           01726         MOVLW   LOW(_mask)
00008A 24??           01727         ADDWF   r0x00, W
00008C 6E??           01728         MOVWF   r0x01
00008E 6A??           01729         CLRF    r0x02
000090 0E??           01730         MOVLW   HIGH(_mask)
000092 22??           01731         ADDWFC  r0x02, F
gpasm-1.4.2 #1169 (Aug  3 2017) /home/vbasel/   3-17-2018  14:24:43         PAGE 35


LOC    OBJECT CODE    LINE  SOURCE TEXT
  VALUE

000094 6A??           01732         CLRF    r0x03
000096 0E??           01733         MOVLW   UPPER(_mask)
000098 22??           01734         ADDWFC  r0x03, F
00009A C??? F???      01735         MOVFF   r0x01, TBLPTRL
00009E C??? F???      01736         MOVFF   r0x02, TBLPTRH
0000A2 C??? F???      01737         MOVFF   r0x03, TBLPTRU
0000A6 0009           01738         TBLRD*+ 
0000A8 CFF5 F000      01739         MOVFF   TABLAT, r0x04
0000AC ????           01740         BANKSEL _activatedservos
0000AE 51??           01741         MOVF    _activatedservos, W, B
0000B0 12??           01742         IORWF   r0x04, F
0000B2 50??           01743         MOVF    r0x04, W
                      01744 ; removed redundant BANKSEL
0000B4 6F??           01745         MOVWF   _activatedservos, B
                      01746 ;       .line   432; /home/vbasel/.icaro/v4/firmware/libraries/servos.c TRISA = TRISA & (~mask[pin]);   
                                                            // set as output pin
0000B6 C??? F???      01747         MOVFF   r0x01, TBLPTRL
0000BA C??? F???      01748         MOVFF   r0x02, TBLPTRH
0000BE C??? F???      01749         MOVFF   r0x03, TBLPTRU
0000C2 0009           01750         TBLRD*+ 
0000C4 CFF5 F000      01751         MOVFF   TABLAT, r0x01
0000C8 1E??           01752         COMF    r0x01, F
0000CA 50??           01753         MOVF    r0x01, W
0000CC 16??           01754         ANDWF   _TRISA, F
                      01755 ;       .line   433; /home/vbasel/.icaro/v4/firmware/libraries/servos.c break;
0000CE D???           01756         BRA     _00535_DS_
0000D0                01757 _00530_DS_:
                      01758 ;       .line   435; /home/vbasel/.icaro/v4/firmware/libraries/servos.c activatedservos[pB] = activateds
                            ervos[pB] | mask[pin];  // list pin as servo driver.
0000D0 0E??           01759         MOVLW   LOW(_mask)
0000D2 24??           01760         ADDWF   r0x00, W
0000D4 6E??           01761         MOVWF   r0x01
0000D6 6A??           01762         CLRF    r0x02
0000D8 0E??           01763         MOVLW   HIGH(_mask)
0000DA 22??           01764         ADDWFC  r0x02, F
0000DC 6A??           01765         CLRF    r0x03
0000DE 0E??           01766         MOVLW   UPPER(_mask)
0000E0 22??           01767         ADDWFC  r0x03, F
0000E2 C??? F???      01768         MOVFF   r0x01, TBLPTRL
0000E6 C??? F???      01769         MOVFF   r0x02, TBLPTRH
0000EA C??? F???      01770         MOVFF   r0x03, TBLPTRU
0000EE 0009           01771         TBLRD*+ 
0000F0 CFF5 F000      01772         MOVFF   TABLAT, r0x04
0000F4 ????           01773         BANKSEL (_activatedservos + 1)
0000F6 51??           01774         MOVF    (_activatedservos + 1), W, B
0000F8 12??           01775         IORWF   r0x04, F
0000FA 50??           01776         MOVF    r0x04, W
                      01777 ; removed redundant BANKSEL
0000FC 6F??           01778         MOVWF   (_activatedservos + 1), B
                      01779 ;       .line   436; /home/vbasel/.icaro/v4/firmware/libraries/servos.c TRISB = TRISB & (~mask[pin]);   
                                                            // set as output pin
0000FE C??? F???      01780         MOVFF   r0x01, TBLPTRL
000102 C??? F???      01781         MOVFF   r0x02, TBLPTRH
gpasm-1.4.2 #1169 (Aug  3 2017) /home/vbasel/   3-17-2018  14:24:43         PAGE 36


LOC    OBJECT CODE    LINE  SOURCE TEXT
  VALUE

000106 C??? F???      01782         MOVFF   r0x03, TBLPTRU
00010A 0009           01783         TBLRD*+ 
00010C CFF5 F000      01784         MOVFF   TABLAT, r0x01
000110 1E??           01785         COMF    r0x01, F
000112 50??           01786         MOVF    r0x01, W
000114 16??           01787         ANDWF   _TRISB, F
                      01788 ;       .line   437; /home/vbasel/.icaro/v4/firmware/libraries/servos.c break;
000116 D???           01789         BRA     _00535_DS_
000118                01790 _00531_DS_:
                      01791 ;       .line   440; /home/vbasel/.icaro/v4/firmware/libraries/servos.c activatedservos[pC] = activateds
                            ervos[pC] | mask[pin];  // list pin as servo driver.
000118 0E??           01792         MOVLW   LOW(_mask)
00011A 24??           01793         ADDWF   r0x00, W
00011C 6E??           01794         MOVWF   r0x01
00011E 6A??           01795         CLRF    r0x02
000120 0E??           01796         MOVLW   HIGH(_mask)
000122 22??           01797         ADDWFC  r0x02, F
000124 6A??           01798         CLRF    r0x03
000126 0E??           01799         MOVLW   UPPER(_mask)
000128 22??           01800         ADDWFC  r0x03, F
00012A C??? F???      01801         MOVFF   r0x01, TBLPTRL
00012E C??? F???      01802         MOVFF   r0x02, TBLPTRH
000132 C??? F???      01803         MOVFF   r0x03, TBLPTRU
000136 0009           01804         TBLRD*+ 
000138 CFF5 F000      01805         MOVFF   TABLAT, r0x04
00013C ????           01806         BANKSEL (_activatedservos + 2)
00013E 51??           01807         MOVF    (_activatedservos + 2), W, B
000140 12??           01808         IORWF   r0x04, F
000142 50??           01809         MOVF    r0x04, W
                      01810 ; removed redundant BANKSEL
000144 6F??           01811         MOVWF   (_activatedservos + 2), B
                      01812 ;       .line   441; /home/vbasel/.icaro/v4/firmware/libraries/servos.c TRISC = TRISC & (~mask[pin]);   
                                                            // set as output pin
000146 C??? F???      01813         MOVFF   r0x01, TBLPTRL
00014A C??? F???      01814         MOVFF   r0x02, TBLPTRH
00014E C??? F???      01815         MOVFF   r0x03, TBLPTRU
000152 0009           01816         TBLRD*+ 
000154 CFF5 F000      01817         MOVFF   TABLAT, r0x01
000158 1E??           01818         COMF    r0x01, F
00015A 50??           01819         MOVF    r0x01, W
00015C 16??           01820         ANDWF   _TRISC, F
                      01821 ;       .line   442; /home/vbasel/.icaro/v4/firmware/libraries/servos.c break;
00015E D???           01822         BRA     _00535_DS_
000160                01823 _00532_DS_:
                      01824 ;       .line   446; /home/vbasel/.icaro/v4/firmware/libraries/servos.c activatedservos[pD] = activateds
                            ervos[pD] | mask[pin];  // list pin as servo driver.
000160 0E??           01825         MOVLW   LOW(_mask)
000162 24??           01826         ADDWF   r0x00, W
000164 6E??           01827         MOVWF   r0x01
000166 6A??           01828         CLRF    r0x02
000168 0E??           01829         MOVLW   HIGH(_mask)
00016A 22??           01830         ADDWFC  r0x02, F
00016C 6A??           01831         CLRF    r0x03
gpasm-1.4.2 #1169 (Aug  3 2017) /home/vbasel/   3-17-2018  14:24:43         PAGE 37


LOC    OBJECT CODE    LINE  SOURCE TEXT
  VALUE

00016E 0E??           01832         MOVLW   UPPER(_mask)
000170 22??           01833         ADDWFC  r0x03, F
000172 C??? F???      01834         MOVFF   r0x01, TBLPTRL
000176 C??? F???      01835         MOVFF   r0x02, TBLPTRH
00017A C??? F???      01836         MOVFF   r0x03, TBLPTRU
00017E 0009           01837         TBLRD*+ 
000180 CFF5 F000      01838         MOVFF   TABLAT, r0x04
000184 ????           01839         BANKSEL (_activatedservos + 3)
000186 51??           01840         MOVF    (_activatedservos + 3), W, B
000188 12??           01841         IORWF   r0x04, F
00018A 50??           01842         MOVF    r0x04, W
                      01843 ; removed redundant BANKSEL
00018C 6F??           01844         MOVWF   (_activatedservos + 3), B
                      01845 ;       .line   447; /home/vbasel/.icaro/v4/firmware/libraries/servos.c TRISD = TRISD & (~mask[pin]);   
                                                            // set as output pin
00018E C??? F???      01846         MOVFF   r0x01, TBLPTRL
000192 C??? F???      01847         MOVFF   r0x02, TBLPTRH
000196 C??? F???      01848         MOVFF   r0x03, TBLPTRU
00019A 0009           01849         TBLRD*+ 
00019C CFF5 F000      01850         MOVFF   TABLAT, r0x01
0001A0 1E??           01851         COMF    r0x01, F
0001A2 50??           01852         MOVF    r0x01, W
0001A4 16??           01853         ANDWF   _TRISD, F
                      01854 ;       .line   448; /home/vbasel/.icaro/v4/firmware/libraries/servos.c break;
0001A6 D???           01855         BRA     _00535_DS_
0001A8                01856 _00533_DS_:
                      01857 ;       .line   452; /home/vbasel/.icaro/v4/firmware/libraries/servos.c activatedservos[pE] = activateds
                            ervos[pE] | mask[pin];  // list pin as servo driver.
0001A8 6A??           01858         CLRF    r0x01
0001AA 6A??           01859         CLRF    r0x02
0001AC 0E??           01860         MOVLW   LOW(_mask)
0001AE 26??           01861         ADDWF   r0x00, F
0001B0 0E??           01862         MOVLW   HIGH(_mask)
0001B2 22??           01863         ADDWFC  r0x01, F
0001B4 0E??           01864         MOVLW   UPPER(_mask)
0001B6 22??           01865         ADDWFC  r0x02, F
0001B8 C??? F???      01866         MOVFF   r0x00, TBLPTRL
0001BC C??? F???      01867         MOVFF   r0x01, TBLPTRH
0001C0 C??? F???      01868         MOVFF   r0x02, TBLPTRU
0001C4 0009           01869         TBLRD*+ 
0001C6 CFF5 F000      01870         MOVFF   TABLAT, r0x03
0001CA ????           01871         BANKSEL (_activatedservos + 4)
0001CC 51??           01872         MOVF    (_activatedservos + 4), W, B
0001CE 12??           01873         IORWF   r0x03, F
0001D0 50??           01874         MOVF    r0x03, W
                      01875 ; removed redundant BANKSEL
0001D2 6F??           01876         MOVWF   (_activatedservos + 4), B
                      01877 ;       .line   453; /home/vbasel/.icaro/v4/firmware/libraries/servos.c TRISE = TRISE & (~mask[pin]);   
                                                            // set as output pin
0001D4 C??? F???      01878         MOVFF   r0x00, TBLPTRL
0001D8 C??? F???      01879         MOVFF   r0x01, TBLPTRH
0001DC C??? F???      01880         MOVFF   r0x02, TBLPTRU
0001E0 0009           01881         TBLRD*+ 
gpasm-1.4.2 #1169 (Aug  3 2017) /home/vbasel/   3-17-2018  14:24:43         PAGE 38


LOC    OBJECT CODE    LINE  SOURCE TEXT
  VALUE

0001E2 CFF5 F000      01882         MOVFF   TABLAT, r0x00
0001E6 1E??           01883         COMF    r0x00, F
0001E8 50??           01884         MOVF    r0x00, W
0001EA 16??           01885         ANDWF   _TRISE, F
0001EC                01886 _00535_DS_:
                      01887 ;       .line   456; /home/vbasel/.icaro/v4/firmware/libraries/servos.c }
0001EC CFE4 F000      01888         MOVFF   PREINC1, r0x04
0001F0 CFE4 F000      01889         MOVFF   PREINC1, r0x03
0001F4 CFE4 F000      01890         MOVFF   PREINC1, r0x02
0001F8 CFE4 F000      01891         MOVFF   PREINC1, r0x01
0001FC CFE4 F000      01892         MOVFF   PREINC1, r0x00
000200 CFE4 FFD9      01893         MOVFF   PREINC1, FSR2L
000204 0012           01894         RETURN  
                      01895 
                      01896 ; ; Starting pCode block
                      01897 S_main__SortServoTimings        code
000000                01898 _SortServoTimings:
                      01899 ;       .line   249; /home/vbasel/.icaro/v4/firmware/libraries/servos.c static void SortServoTimings()
000000 C??? F???      01900         MOVFF   r0x00, POSTDEC1
000004 C??? F???      01901         MOVFF   r0x01, POSTDEC1
000008 C??? F???      01902         MOVFF   r0x02, POSTDEC1
00000C C??? F???      01903         MOVFF   r0x03, POSTDEC1
000010 C??? F???      01904         MOVFF   r0x04, POSTDEC1
000014 C??? F???      01905         MOVFF   r0x05, POSTDEC1
000018 C??? F???      01906         MOVFF   r0x06, POSTDEC1
00001C ????           01907         BANKSEL _SortServoTimings_t_1_32
                      01908 ;       .line   254; /home/vbasel/.icaro/v4/firmware/libraries/servos.c for(t=0;t<TotalPICpins;t++)
00001E 6B??           01909         CLRF    _SortServoTimings_t_1_32, B
000020                01910 _00411_DS_:
000020 0E1E           01911         MOVLW   0x1e
000022 ????           01912         BANKSEL _SortServoTimings_t_1_32
000024 5D??           01913         SUBWF   _SortServoTimings_t_1_32, W, B
000026 B0D8           01914         BTFSC   STATUS, 0
000028 D???           01915         BRA     _00358_DS_
                      01916 ;       .line   256; /home/vbasel/.icaro/v4/firmware/libraries/servos.c timevalue[t]=255; 
00002A 0E??           01917         MOVLW   LOW(_timevalue)
                      01918 ; removed redundant BANKSEL
00002C 25??           01919         ADDWF   _SortServoTimings_t_1_32, W, B
00002E 6E??           01920         MOVWF   r0x00
000030 6A??           01921         CLRF    r0x01
000032 0E??           01922         MOVLW   HIGH(_timevalue)
000034 22??           01923         ADDWFC  r0x01, F
000036 C??? F???      01924         MOVFF   r0x00, FSR0L
00003A C??? F???      01925         MOVFF   r0x01, FSR0H
00003E 68EF           01926         SETF    INDF0
                      01927 ; ;multiply lit val:0x05 by variable _SortServoTimings_t_1_32 and store in r0x00
                      01928 ; removed redundant BANKSEL
                      01929 ;       .line   257; /home/vbasel/.icaro/v4/firmware/libraries/servos.c timings[t][pA]=0x00;
000040 51??           01930         MOVF    _SortServoTimings_t_1_32, W, B
000042 0D05           01931         MULLW   0x05
000044 50F4           01932         MOVF    PRODH, W
000046 6E??           01933         MOVWF   r0x01
000048 CFF3 F000      01934         MOVFF   PRODL, r0x00
gpasm-1.4.2 #1169 (Aug  3 2017) /home/vbasel/   3-17-2018  14:24:43         PAGE 39


LOC    OBJECT CODE    LINE  SOURCE TEXT
  VALUE

00004C 0E??           01935         MOVLW   LOW(_timings)
00004E 26??           01936         ADDWF   r0x00, F
000050 0E??           01937         MOVLW   HIGH(_timings)
000052 22??           01938         ADDWFC  r0x01, F
000054 C??? F???      01939         MOVFF   r0x00, FSR0L
000058 C??? F???      01940         MOVFF   r0x01, FSR0H
00005C 6AEF           01941         CLRF    INDF0
                      01942 ; ;multiply lit val:0x05 by variable _SortServoTimings_t_1_32 and store in r0x00
                      01943 ; removed redundant BANKSEL
                      01944 ;       .line   258; /home/vbasel/.icaro/v4/firmware/libraries/servos.c timings[t][pB]=0x00;
00005E 51??           01945         MOVF    _SortServoTimings_t_1_32, W, B
000060 0D05           01946         MULLW   0x05
000062 50F4           01947         MOVF    PRODH, W
000064 6E??           01948         MOVWF   r0x01
000066 CFF3 F000      01949         MOVFF   PRODL, r0x00
00006A 0E??           01950         MOVLW   LOW(_timings)
00006C 26??           01951         ADDWF   r0x00, F
00006E 0E??           01952         MOVLW   HIGH(_timings)
000070 22??           01953         ADDWFC  r0x01, F
000072 4A??           01954         INFSNZ  r0x00, F
000074 2A??           01955         INCF    r0x01, F
000076 C??? F???      01956         MOVFF   r0x00, FSR0L
00007A C??? F???      01957         MOVFF   r0x01, FSR0H
00007E 6AEF           01958         CLRF    INDF0
                      01959 ; ;multiply lit val:0x05 by variable _SortServoTimings_t_1_32 and store in r0x00
                      01960 ; removed redundant BANKSEL
                      01961 ;       .line   260; /home/vbasel/.icaro/v4/firmware/libraries/servos.c timings[t][pC]=0x00;
000080 51??           01962         MOVF    _SortServoTimings_t_1_32, W, B
000082 0D05           01963         MULLW   0x05
000084 50F4           01964         MOVF    PRODH, W
000086 6E??           01965         MOVWF   r0x01
000088 CFF3 F000      01966         MOVFF   PRODL, r0x00
00008C 0E??           01967         MOVLW   LOW(_timings)
00008E 26??           01968         ADDWF   r0x00, F
000090 0E??           01969         MOVLW   HIGH(_timings)
000092 22??           01970         ADDWFC  r0x01, F
000094 0E02           01971         MOVLW   0x02
000096 26??           01972         ADDWF   r0x00, F
000098 B0D8           01973         BTFSC   STATUS, 0
00009A 2A??           01974         INCF    r0x01, F
00009C C??? F???      01975         MOVFF   r0x00, FSR0L
0000A0 C??? F???      01976         MOVFF   r0x01, FSR0H
0000A4 6AEF           01977         CLRF    INDF0
                      01978 ; ;multiply lit val:0x05 by variable _SortServoTimings_t_1_32 and store in r0x00
                      01979 ; removed redundant BANKSEL
                      01980 ;       .line   263; /home/vbasel/.icaro/v4/firmware/libraries/servos.c timings[t][pD]=0x00;
0000A6 51??           01981         MOVF    _SortServoTimings_t_1_32, W, B
0000A8 0D05           01982         MULLW   0x05
0000AA 50F4           01983         MOVF    PRODH, W
0000AC 6E??           01984         MOVWF   r0x01
0000AE CFF3 F000      01985         MOVFF   PRODL, r0x00
0000B2 0E??           01986         MOVLW   LOW(_timings)
0000B4 26??           01987         ADDWF   r0x00, F
gpasm-1.4.2 #1169 (Aug  3 2017) /home/vbasel/   3-17-2018  14:24:43         PAGE 40


LOC    OBJECT CODE    LINE  SOURCE TEXT
  VALUE

0000B6 0E??           01988         MOVLW   HIGH(_timings)
0000B8 22??           01989         ADDWFC  r0x01, F
0000BA 0E03           01990         MOVLW   0x03
0000BC 26??           01991         ADDWF   r0x00, F
0000BE B0D8           01992         BTFSC   STATUS, 0
0000C0 2A??           01993         INCF    r0x01, F
0000C2 C??? F???      01994         MOVFF   r0x00, FSR0L
0000C6 C??? F???      01995         MOVFF   r0x01, FSR0H
0000CA 6AEF           01996         CLRF    INDF0
                      01997 ; ;multiply lit val:0x05 by variable _SortServoTimings_t_1_32 and store in r0x00
                      01998 ; removed redundant BANKSEL
                      01999 ;       .line   266; /home/vbasel/.icaro/v4/firmware/libraries/servos.c timings[t][pE]=0x00;
0000CC 51??           02000         MOVF    _SortServoTimings_t_1_32, W, B
0000CE 0D05           02001         MULLW   0x05
0000D0 50F4           02002         MOVF    PRODH, W
0000D2 6E??           02003         MOVWF   r0x01
0000D4 CFF3 F000      02004         MOVFF   PRODL, r0x00
0000D8 0E??           02005         MOVLW   LOW(_timings)
0000DA 26??           02006         ADDWF   r0x00, F
0000DC 0E??           02007         MOVLW   HIGH(_timings)
0000DE 22??           02008         ADDWFC  r0x01, F
0000E0 0E04           02009         MOVLW   0x04
0000E2 26??           02010         ADDWF   r0x00, F
0000E4 B0D8           02011         BTFSC   STATUS, 0
0000E6 2A??           02012         INCF    r0x01, F
0000E8 C??? F???      02013         MOVFF   r0x00, FSR0L
0000EC C??? F???      02014         MOVFF   r0x01, FSR0H
0000F0 6AEF           02015         CLRF    INDF0
                      02016 ; removed redundant BANKSEL
                      02017 ;       .line   254; /home/vbasel/.icaro/v4/firmware/libraries/servos.c for(t=0;t<TotalPICpins;t++)
0000F2 2B??           02018         INCF    _SortServoTimings_t_1_32, F, B
0000F4 D???           02019         BRA     _00411_DS_
0000F6                02020 _00358_DS_:
0000F6 ????           02021         BANKSEL _SortServoTimings_t_1_32
                      02022 ;       .line   271; /home/vbasel/.icaro/v4/firmware/libraries/servos.c for(t=0;t<TotalPICports;t++)
0000F8 6B??           02023         CLRF    _SortServoTimings_t_1_32, B
0000FA                02024 _00414_DS_:
0000FA 0E05           02025         MOVLW   0x05
0000FC ????           02026         BANKSEL _SortServoTimings_t_1_32
0000FE 5D??           02027         SUBWF   _SortServoTimings_t_1_32, W, B
000100 E2??           02028         BC      _00359_DS_
                      02029 ;       .line   272; /home/vbasel/.icaro/v4/firmware/libraries/servos.c mascaratotal[t]=0x00;
000102 0E??           02030         MOVLW   LOW(_mascaratotal)
                      02031 ; removed redundant BANKSEL
000104 25??           02032         ADDWF   _SortServoTimings_t_1_32, W, B
000106 6E??           02033         MOVWF   r0x00
000108 6A??           02034         CLRF    r0x01
00010A 0E??           02035         MOVLW   HIGH(_mascaratotal)
00010C 22??           02036         ADDWFC  r0x01, F
00010E C??? F???      02037         MOVFF   r0x00, FSR0L
000112 C??? F???      02038         MOVFF   r0x01, FSR0H
000116 6AEF           02039         CLRF    INDF0
                      02040 ; removed redundant BANKSEL
gpasm-1.4.2 #1169 (Aug  3 2017) /home/vbasel/   3-17-2018  14:24:43         PAGE 41


LOC    OBJECT CODE    LINE  SOURCE TEXT
  VALUE

                      02041 ;       .line   271; /home/vbasel/.icaro/v4/firmware/libraries/servos.c for(t=0;t<TotalPICports;t++)
000118 2B??           02042         INCF    _SortServoTimings_t_1_32, F, B
00011A D???           02043         BRA     _00414_DS_
00011C                02044 _00359_DS_:
00011C ????           02045         BANKSEL _SortServoTimings_totalservos_1_32
                      02046 ;       .line   274; /home/vbasel/.icaro/v4/firmware/libraries/servos.c totalservos=0; // Total servos r
                            evised. This helps to keep within "while"
00011E 6B??           02047         CLRF    _SortServoTimings_totalservos_1_32, B
000120 ????           02048         BANKSEL _SortServoTimings_t_1_32
                      02049 ;       .line   275; /home/vbasel/.icaro/v4/firmware/libraries/servos.c t=0;           // Index to go th
                            rough timevalue and timings tables.
000122 6B??           02050         CLRF    _SortServoTimings_t_1_32, B
000124                02051 _00407_DS_:
                      02052 ;       .line   276; /home/vbasel/.icaro/v4/firmware/libraries/servos.c while(totalservos<TotalPICpins)
000124 0E1E           02053         MOVLW   0x1e
000126 ????           02054         BANKSEL _SortServoTimings_totalservos_1_32
000128 5D??           02055         SUBWF   _SortServoTimings_totalservos_1_32, W, B
00012A B0D8           02056         BTFSC   STATUS, 0
00012C EF?? F0??      02057         GOTO    _00409_DS_
                      02058 ;       .line   278; /home/vbasel/.icaro/v4/firmware/libraries/servos.c numservos=1;
000130 0E01           02059         MOVLW   0x01
000132 ????           02060         BANKSEL _SortServoTimings_numservos_1_32
000134 6F??           02061         MOVWF   _SortServoTimings_numservos_1_32, B
000136 ????           02062         BANKSEL _SortServoTimings_s_1_32
                      02063 ;       .line   280; /home/vbasel/.icaro/v4/firmware/libraries/servos.c for(s=0;s<TotalPICpins;s++)
000138 6B??           02064         CLRF    _SortServoTimings_s_1_32, B
00013A                02065 _00417_DS_:
00013A 0E1E           02066         MOVLW   0x1e
00013C ????           02067         BANKSEL _SortServoTimings_s_1_32
00013E 5D??           02068         SUBWF   _SortServoTimings_s_1_32, W, B
000140 B0D8           02069         BTFSC   STATUS, 0
000142 EF?? F0??      02070         GOTO    _00406_DS_
                      02071 ;       .line   283; /home/vbasel/.icaro/v4/firmware/libraries/servos.c switch (port[s])
000146 0E??           02072         MOVLW   LOW(_port)
                      02073 ; removed redundant BANKSEL
000148 25??           02074         ADDWF   _SortServoTimings_s_1_32, W, B
00014A 6E??           02075         MOVWF   r0x00
00014C 6A??           02076         CLRF    r0x01
00014E 0E??           02077         MOVLW   HIGH(_port)
000150 22??           02078         ADDWFC  r0x01, F
000152 6A??           02079         CLRF    r0x02
000154 0E??           02080         MOVLW   UPPER(_port)
000156 22??           02081         ADDWFC  r0x02, F
000158 C??? F???      02082         MOVFF   r0x00, TBLPTRL
00015C C??? F???      02083         MOVFF   r0x01, TBLPTRH
000160 C??? F???      02084         MOVFF   r0x02, TBLPTRU
000164 0009           02085         TBLRD*+ 
000166 CFF5 F000      02086         MOVFF   TABLAT, r0x00
00016A 0E05           02087         MOVLW   0x05
00016C 5C??           02088         SUBWF   r0x00, W
00016E B0D8           02089         BTFSC   STATUS, 0
000170 EF?? F0??      02090         GOTO    _00418_DS_
000174 6AFA           02091         CLRF    PCLATH
gpasm-1.4.2 #1169 (Aug  3 2017) /home/vbasel/   3-17-2018  14:24:43         PAGE 42


LOC    OBJECT CODE    LINE  SOURCE TEXT
  VALUE

000176 6AFB           02092         CLRF    PCLATU
000178 34??           02093         RLCF    r0x00, W
00017A 36FA           02094         RLCF    PCLATH, F
00017C 34E8           02095         RLCF    WREG, W
00017E 36FA           02096         RLCF    PCLATH, F
000180 0BFC           02097         ANDLW   0xfc
000182 0F??           02098         ADDLW   LOW(_00498_DS_)
000184 6EE5           02099         MOVWF   POSTDEC1
000186 0E??           02100         MOVLW   HIGH(_00498_DS_)
000188 22FA           02101         ADDWFC  PCLATH, F
00018A 0E??           02102         MOVLW   UPPER(_00498_DS_)
00018C 22FB           02103         ADDWFC  PCLATU, F
00018E 50E4           02104         MOVF    PREINC1, W
000190 6EF9           02105         MOVWF   PCL
000192                02106 _00498_DS_:
000192 EF?? F0??      02107         GOTO    _00360_DS_
000196 EF?? F0??      02108         GOTO    _00369_DS_
00019A EF?? F0??      02109         GOTO    _00378_DS_
00019E EF?? F0??      02110         GOTO    _00387_DS_
0001A2 EF?? F0??      02111         GOTO    _00396_DS_
0001A6                02112 _00360_DS_:
                      02113 ;       .line   286; /home/vbasel/.icaro/v4/firmware/libraries/servos.c if (mask[s] & mascaratotal[pA] &
                             activatedservos[pA]){
0001A6 0E??           02114         MOVLW   LOW(_mask)
0001A8 ????           02115         BANKSEL _SortServoTimings_s_1_32
0001AA 25??           02116         ADDWF   _SortServoTimings_s_1_32, W, B
0001AC 6E??           02117         MOVWF   r0x00
0001AE 6A??           02118         CLRF    r0x01
0001B0 0E??           02119         MOVLW   HIGH(_mask)
0001B2 22??           02120         ADDWFC  r0x01, F
0001B4 6A??           02121         CLRF    r0x02
0001B6 0E??           02122         MOVLW   UPPER(_mask)
0001B8 22??           02123         ADDWFC  r0x02, F
0001BA C??? F???      02124         MOVFF   r0x00, TBLPTRL
0001BE C??? F???      02125         MOVFF   r0x01, TBLPTRH
0001C2 C??? F???      02126         MOVFF   r0x02, TBLPTRU
0001C6 0009           02127         TBLRD*+ 
0001C8 CFF5 F000      02128         MOVFF   TABLAT, r0x00
0001CC ????           02129         BANKSEL _mascaratotal
0001CE 51??           02130         MOVF    _mascaratotal, W, B
0001D0 16??           02131         ANDWF   r0x00, F
0001D2 ????           02132         BANKSEL _activatedservos
0001D4 51??           02133         MOVF    _activatedservos, W, B
0001D6 16??           02134         ANDWF   r0x00, F
0001D8 50??           02135         MOVF    r0x00, W
0001DA A4D8           02136         BTFSS   STATUS, 2
0001DC EF?? F0??      02137         GOTO    _00418_DS_
                      02138 ;       .line   289; /home/vbasel/.icaro/v4/firmware/libraries/servos.c else if (servovalues[s] < timeva
                            lue[t]){
0001E0 0E??           02139         MOVLW   LOW(_servovalues)
0001E2 ????           02140         BANKSEL _SortServoTimings_s_1_32
0001E4 25??           02141         ADDWF   _SortServoTimings_s_1_32, W, B
0001E6 6E??           02142         MOVWF   r0x00
gpasm-1.4.2 #1169 (Aug  3 2017) /home/vbasel/   3-17-2018  14:24:43         PAGE 43


LOC    OBJECT CODE    LINE  SOURCE TEXT
  VALUE

0001E8 6A??           02143         CLRF    r0x01
0001EA 0E??           02144         MOVLW   HIGH(_servovalues)
0001EC 22??           02145         ADDWFC  r0x01, F
0001EE C??? F???      02146         MOVFF   r0x00, FSR0L
0001F2 C??? F???      02147         MOVFF   r0x01, FSR0H
0001F6 CFEF F000      02148         MOVFF   INDF0, r0x00
0001FA 0E??           02149         MOVLW   LOW(_timevalue)
0001FC ????           02150         BANKSEL _SortServoTimings_t_1_32
0001FE 25??           02151         ADDWF   _SortServoTimings_t_1_32, W, B
000200 6E??           02152         MOVWF   r0x01
000202 6A??           02153         CLRF    r0x02
000204 0E??           02154         MOVLW   HIGH(_timevalue)
000206 22??           02155         ADDWFC  r0x02, F
000208 C??? F???      02156         MOVFF   r0x01, FSR0L
00020C C??? F???      02157         MOVFF   r0x02, FSR0H
000210 CFEF F000      02158         MOVFF   INDF0, r0x01
000214 50??           02159         MOVF    r0x01, W
000216 5C??           02160         SUBWF   r0x00, W
000218 B0D8           02161         BTFSC   STATUS, 0
00021A D???           02162         BRA     _00364_DS_
                      02163 ;       .line   290; /home/vbasel/.icaro/v4/firmware/libraries/servos.c timevalue[t]=servovalues[s];
00021C 0E??           02164         MOVLW   LOW(_timevalue)
                      02165 ; removed redundant BANKSEL
00021E 25??           02166         ADDWF   _SortServoTimings_t_1_32, W, B
000220 6E??           02167         MOVWF   r0x00
000222 6A??           02168         CLRF    r0x01
000224 0E??           02169         MOVLW   HIGH(_timevalue)
000226 22??           02170         ADDWFC  r0x01, F
000228 0E??           02171         MOVLW   LOW(_servovalues)
00022A ????           02172         BANKSEL _SortServoTimings_s_1_32
00022C 25??           02173         ADDWF   _SortServoTimings_s_1_32, W, B
00022E 6E??           02174         MOVWF   r0x02
000230 6A??           02175         CLRF    r0x03
000232 0E??           02176         MOVLW   HIGH(_servovalues)
000234 22??           02177         ADDWFC  r0x03, F
000236 C??? F???      02178         MOVFF   r0x02, FSR0L
00023A C??? F???      02179         MOVFF   r0x03, FSR0H
00023E CFEF F000      02180         MOVFF   INDF0, r0x02
000242 C??? F???      02181         MOVFF   r0x00, FSR0L
000246 C??? F???      02182         MOVFF   r0x01, FSR0H
00024A C??? F???      02183         MOVFF   r0x02, INDF0
                      02184 ; ;multiply lit val:0x05 by variable _SortServoTimings_t_1_32 and store in r0x00
00024E ????           02185         BANKSEL _SortServoTimings_t_1_32
                      02186 ;       .line   291; /home/vbasel/.icaro/v4/firmware/libraries/servos.c timings[t][pA]=mask[s];
000250 51??           02187         MOVF    _SortServoTimings_t_1_32, W, B
000252 0D05           02188         MULLW   0x05
000254 50F4           02189         MOVF    PRODH, W
000256 6E??           02190         MOVWF   r0x01
000258 CFF3 F000      02191         MOVFF   PRODL, r0x00
00025C 0E??           02192         MOVLW   LOW(_timings)
00025E 26??           02193         ADDWF   r0x00, F
000260 0E??           02194         MOVLW   HIGH(_timings)
000262 22??           02195         ADDWFC  r0x01, F
gpasm-1.4.2 #1169 (Aug  3 2017) /home/vbasel/   3-17-2018  14:24:43         PAGE 44


LOC    OBJECT CODE    LINE  SOURCE TEXT
  VALUE

000264 0E??           02196         MOVLW   LOW(_mask)
000266 ????           02197         BANKSEL _SortServoTimings_s_1_32
000268 25??           02198         ADDWF   _SortServoTimings_s_1_32, W, B
00026A 6E??           02199         MOVWF   r0x02
00026C 6A??           02200         CLRF    r0x03
00026E 0E??           02201         MOVLW   HIGH(_mask)
000270 22??           02202         ADDWFC  r0x03, F
000272 6A??           02203         CLRF    r0x04
000274 0E??           02204         MOVLW   UPPER(_mask)
000276 22??           02205         ADDWFC  r0x04, F
000278 C??? F???      02206         MOVFF   r0x02, TBLPTRL
00027C C??? F???      02207         MOVFF   r0x03, TBLPTRH
000280 C??? F???      02208         MOVFF   r0x04, TBLPTRU
000284 0009           02209         TBLRD*+ 
000286 CFF5 F000      02210         MOVFF   TABLAT, r0x02
00028A C??? F???      02211         MOVFF   r0x00, FSR0L
00028E C??? F???      02212         MOVFF   r0x01, FSR0H
000292 C??? F???      02213         MOVFF   r0x02, INDF0
                      02214 ; ;multiply lit val:0x05 by variable _SortServoTimings_t_1_32 and store in r0x00
000296 ????           02215         BANKSEL _SortServoTimings_t_1_32
                      02216 ;       .line   292; /home/vbasel/.icaro/v4/firmware/libraries/servos.c timings[t][pB]=0x00;
000298 51??           02217         MOVF    _SortServoTimings_t_1_32, W, B
00029A 0D05           02218         MULLW   0x05
00029C 50F4           02219         MOVF    PRODH, W
00029E 6E??           02220         MOVWF   r0x01
0002A0 CFF3 F000      02221         MOVFF   PRODL, r0x00
0002A4 0E??           02222         MOVLW   LOW(_timings)
0002A6 26??           02223         ADDWF   r0x00, F
0002A8 0E??           02224         MOVLW   HIGH(_timings)
0002AA 22??           02225         ADDWFC  r0x01, F
0002AC 4A??           02226         INFSNZ  r0x00, F
0002AE 2A??           02227         INCF    r0x01, F
0002B0 C??? F???      02228         MOVFF   r0x00, FSR0L
0002B4 C??? F???      02229         MOVFF   r0x01, FSR0H
0002B8 6AEF           02230         CLRF    INDF0
                      02231 ; ;multiply lit val:0x05 by variable _SortServoTimings_t_1_32 and store in r0x00
                      02232 ; removed redundant BANKSEL
                      02233 ;       .line   294; /home/vbasel/.icaro/v4/firmware/libraries/servos.c timings[t][pC]=0x00;
0002BA 51??           02234         MOVF    _SortServoTimings_t_1_32, W, B
0002BC 0D05           02235         MULLW   0x05
0002BE 50F4           02236         MOVF    PRODH, W
0002C0 6E??           02237         MOVWF   r0x01
0002C2 CFF3 F000      02238         MOVFF   PRODL, r0x00
0002C6 0E??           02239         MOVLW   LOW(_timings)
0002C8 26??           02240         ADDWF   r0x00, F
0002CA 0E??           02241         MOVLW   HIGH(_timings)
0002CC 22??           02242         ADDWFC  r0x01, F
0002CE 0E02           02243         MOVLW   0x02
0002D0 26??           02244         ADDWF   r0x00, F
0002D2 B0D8           02245         BTFSC   STATUS, 0
0002D4 2A??           02246         INCF    r0x01, F
0002D6 C??? F???      02247         MOVFF   r0x00, FSR0L
0002DA C??? F???      02248         MOVFF   r0x01, FSR0H
gpasm-1.4.2 #1169 (Aug  3 2017) /home/vbasel/   3-17-2018  14:24:43         PAGE 45


LOC    OBJECT CODE    LINE  SOURCE TEXT
  VALUE

0002DE 6AEF           02249         CLRF    INDF0
                      02250 ; ;multiply lit val:0x05 by variable _SortServoTimings_t_1_32 and store in r0x00
                      02251 ; removed redundant BANKSEL
                      02252 ;       .line   297; /home/vbasel/.icaro/v4/firmware/libraries/servos.c timings[t][pD]=0x00;
0002E0 51??           02253         MOVF    _SortServoTimings_t_1_32, W, B
0002E2 0D05           02254         MULLW   0x05
0002E4 50F4           02255         MOVF    PRODH, W
0002E6 6E??           02256         MOVWF   r0x01
0002E8 CFF3 F000      02257         MOVFF   PRODL, r0x00
0002EC 0E??           02258         MOVLW   LOW(_timings)
0002EE 26??           02259         ADDWF   r0x00, F
0002F0 0E??           02260         MOVLW   HIGH(_timings)
0002F2 22??           02261         ADDWFC  r0x01, F
0002F4 0E03           02262         MOVLW   0x03
0002F6 26??           02263         ADDWF   r0x00, F
0002F8 B0D8           02264         BTFSC   STATUS, 0
0002FA 2A??           02265         INCF    r0x01, F
0002FC C??? F???      02266         MOVFF   r0x00, FSR0L
000300 C??? F???      02267         MOVFF   r0x01, FSR0H
000304 6AEF           02268         CLRF    INDF0
                      02269 ; ;multiply lit val:0x05 by variable _SortServoTimings_t_1_32 and store in r0x00
                      02270 ; removed redundant BANKSEL
                      02271 ;       .line   300; /home/vbasel/.icaro/v4/firmware/libraries/servos.c timings[t][pE]=0x00;
000306 51??           02272         MOVF    _SortServoTimings_t_1_32, W, B
000308 0D05           02273         MULLW   0x05
00030A 50F4           02274         MOVF    PRODH, W
00030C 6E??           02275         MOVWF   r0x01
00030E CFF3 F000      02276         MOVFF   PRODL, r0x00
000312 0E??           02277         MOVLW   LOW(_timings)
000314 26??           02278         ADDWF   r0x00, F
000316 0E??           02279         MOVLW   HIGH(_timings)
000318 22??           02280         ADDWFC  r0x01, F
00031A 0E04           02281         MOVLW   0x04
00031C 26??           02282         ADDWF   r0x00, F
00031E B0D8           02283         BTFSC   STATUS, 0
000320 2A??           02284         INCF    r0x01, F
000322 C??? F???      02285         MOVFF   r0x00, FSR0L
000326 C??? F???      02286         MOVFF   r0x01, FSR0H
00032A 6AEF           02287         CLRF    INDF0
                      02288 ;       .line   302; /home/vbasel/.icaro/v4/firmware/libraries/servos.c numservos=1;
00032C 0E01           02289         MOVLW   0x01
00032E ????           02290         BANKSEL _SortServoTimings_numservos_1_32
000330 6F??           02291         MOVWF   _SortServoTimings_numservos_1_32, B
000332 EF?? F0??      02292         GOTO    _00418_DS_
000336                02293 _00364_DS_:
                      02294 ;       .line   304; /home/vbasel/.icaro/v4/firmware/libraries/servos.c else if (servovalues[s] == timev
                            alue[t]){
000336 0E??           02295         MOVLW   LOW(_servovalues)
000338 ????           02296         BANKSEL _SortServoTimings_s_1_32
00033A 25??           02297         ADDWF   _SortServoTimings_s_1_32, W, B
00033C 6E??           02298         MOVWF   r0x00
00033E 6A??           02299         CLRF    r0x01
000340 0E??           02300         MOVLW   HIGH(_servovalues)
gpasm-1.4.2 #1169 (Aug  3 2017) /home/vbasel/   3-17-2018  14:24:43         PAGE 46


LOC    OBJECT CODE    LINE  SOURCE TEXT
  VALUE

000342 22??           02301         ADDWFC  r0x01, F
000344 C??? F???      02302         MOVFF   r0x00, FSR0L
000348 C??? F???      02303         MOVFF   r0x01, FSR0H
00034C CFEF F000      02304         MOVFF   INDF0, r0x00
000350 0E??           02305         MOVLW   LOW(_timevalue)
000352 ????           02306         BANKSEL _SortServoTimings_t_1_32
000354 25??           02307         ADDWF   _SortServoTimings_t_1_32, W, B
000356 6E??           02308         MOVWF   r0x01
000358 6A??           02309         CLRF    r0x02
00035A 0E??           02310         MOVLW   HIGH(_timevalue)
00035C 22??           02311         ADDWFC  r0x02, F
00035E C??? F???      02312         MOVFF   r0x01, FSR0L
000362 C??? F???      02313         MOVFF   r0x02, FSR0H
000366 CFEF F000      02314         MOVFF   INDF0, r0x01
00036A 50??           02315         MOVF    r0x00, W
00036C 18??           02316         XORWF   r0x01, W
00036E E0??           02317         BZ      _00502_DS_
000370 EF?? F0??      02318         GOTO    _00418_DS_
                      02319 ; ;multiply lit val:0x05 by variable _SortServoTimings_t_1_32 and store in r0x00
000374                02320 _00502_DS_:
000374 ????           02321         BANKSEL _SortServoTimings_t_1_32
                      02322 ;       .line   305; /home/vbasel/.icaro/v4/firmware/libraries/servos.c timings[t][pA] |= mask[s];
000376 51??           02323         MOVF    _SortServoTimings_t_1_32, W, B
000378 0D05           02324         MULLW   0x05
00037A 50F4           02325         MOVF    PRODH, W
00037C 6E??           02326         MOVWF   r0x01
00037E CFF3 F000      02327         MOVFF   PRODL, r0x00
000382 0E??           02328         MOVLW   LOW(_timings)
000384 26??           02329         ADDWF   r0x00, F
000386 0E??           02330         MOVLW   HIGH(_timings)
000388 22??           02331         ADDWFC  r0x01, F
                      02332 ; ;multiply lit val:0x05 by variable _SortServoTimings_t_1_32 and store in r0x02
                      02333 ; removed redundant BANKSEL
00038A 51??           02334         MOVF    _SortServoTimings_t_1_32, W, B
00038C 0D05           02335         MULLW   0x05
00038E 50F4           02336         MOVF    PRODH, W
000390 6E??           02337         MOVWF   r0x03
000392 CFF3 F000      02338         MOVFF   PRODL, r0x02
000396 0E??           02339         MOVLW   LOW(_timings)
000398 26??           02340         ADDWF   r0x02, F
00039A 0E??           02341         MOVLW   HIGH(_timings)
00039C 22??           02342         ADDWFC  r0x03, F
00039E 0E??           02343         MOVLW   LOW(_mask)
0003A0 ????           02344         BANKSEL _SortServoTimings_s_1_32
0003A2 25??           02345         ADDWF   _SortServoTimings_s_1_32, W, B
0003A4 6E??           02346         MOVWF   r0x04
0003A6 6A??           02347         CLRF    r0x05
0003A8 0E??           02348         MOVLW   HIGH(_mask)
0003AA 22??           02349         ADDWFC  r0x05, F
0003AC 6A??           02350         CLRF    r0x06
0003AE 0E??           02351         MOVLW   UPPER(_mask)
0003B0 22??           02352         ADDWFC  r0x06, F
0003B2 C??? F???      02353         MOVFF   r0x04, TBLPTRL
gpasm-1.4.2 #1169 (Aug  3 2017) /home/vbasel/   3-17-2018  14:24:43         PAGE 47


LOC    OBJECT CODE    LINE  SOURCE TEXT
  VALUE

0003B6 C??? F???      02354         MOVFF   r0x05, TBLPTRH
0003BA C??? F???      02355         MOVFF   r0x06, TBLPTRU
0003BE 0009           02356         TBLRD*+ 
0003C0 CFF5 F000      02357         MOVFF   TABLAT, r0x04
0003C4 C??? F???      02358         MOVFF   r0x02, FSR0L
0003C8 C??? F???      02359         MOVFF   r0x03, FSR0H
0003CC CFEF F000      02360         MOVFF   INDF0, r0x02
0003D0 50??           02361         MOVF    r0x02, W
0003D2 12??           02362         IORWF   r0x04, F
0003D4 C??? F???      02363         MOVFF   r0x00, FSR0L
0003D8 C??? F???      02364         MOVFF   r0x01, FSR0H
0003DC C??? F???      02365         MOVFF   r0x04, INDF0
0003E0 ????           02366         BANKSEL _SortServoTimings_numservos_1_32
                      02367 ;       .line   306; /home/vbasel/.icaro/v4/firmware/libraries/servos.c numservos++;
0003E2 2B??           02368         INCF    _SortServoTimings_numservos_1_32, F, B
                      02369 ;       .line   308; /home/vbasel/.icaro/v4/firmware/libraries/servos.c break;                  
0003E4 EF?? F0??      02370         GOTO    _00418_DS_
0003E8                02371 _00369_DS_:
                      02372 ;       .line   311; /home/vbasel/.icaro/v4/firmware/libraries/servos.c if (mask[s] & mascaratotal[pB] &
                             activatedservos[pB]){
0003E8 0E??           02373         MOVLW   LOW(_mask)
0003EA ????           02374         BANKSEL _SortServoTimings_s_1_32
0003EC 25??           02375         ADDWF   _SortServoTimings_s_1_32, W, B
0003EE 6E??           02376         MOVWF   r0x00
0003F0 6A??           02377         CLRF    r0x01
0003F2 0E??           02378         MOVLW   HIGH(_mask)
0003F4 22??           02379         ADDWFC  r0x01, F
0003F6 6A??           02380         CLRF    r0x02
0003F8 0E??           02381         MOVLW   UPPER(_mask)
0003FA 22??           02382         ADDWFC  r0x02, F
0003FC C??? F???      02383         MOVFF   r0x00, TBLPTRL
000400 C??? F???      02384         MOVFF   r0x01, TBLPTRH
000404 C??? F???      02385         MOVFF   r0x02, TBLPTRU
000408 0009           02386         TBLRD*+ 
00040A CFF5 F000      02387         MOVFF   TABLAT, r0x00
00040E ????           02388         BANKSEL (_mascaratotal + 1)
000410 51??           02389         MOVF    (_mascaratotal + 1), W, B
000412 16??           02390         ANDWF   r0x00, F
000414 ????           02391         BANKSEL (_activatedservos + 1)
000416 51??           02392         MOVF    (_activatedservos + 1), W, B
000418 16??           02393         ANDWF   r0x00, F
00041A 50??           02394         MOVF    r0x00, W
00041C A4D8           02395         BTFSS   STATUS, 2
00041E EF?? F0??      02396         GOTO    _00418_DS_
                      02397 ;       .line   314; /home/vbasel/.icaro/v4/firmware/libraries/servos.c else if (servovalues[s] < timeva
                            lue[t]){
000422 0E??           02398         MOVLW   LOW(_servovalues)
000424 ????           02399         BANKSEL _SortServoTimings_s_1_32
000426 25??           02400         ADDWF   _SortServoTimings_s_1_32, W, B
000428 6E??           02401         MOVWF   r0x00
00042A 6A??           02402         CLRF    r0x01
00042C 0E??           02403         MOVLW   HIGH(_servovalues)
00042E 22??           02404         ADDWFC  r0x01, F
gpasm-1.4.2 #1169 (Aug  3 2017) /home/vbasel/   3-17-2018  14:24:43         PAGE 48


LOC    OBJECT CODE    LINE  SOURCE TEXT
  VALUE

000430 C??? F???      02405         MOVFF   r0x00, FSR0L
000434 C??? F???      02406         MOVFF   r0x01, FSR0H
000438 CFEF F000      02407         MOVFF   INDF0, r0x00
00043C 0E??           02408         MOVLW   LOW(_timevalue)
00043E ????           02409         BANKSEL _SortServoTimings_t_1_32
000440 25??           02410         ADDWF   _SortServoTimings_t_1_32, W, B
000442 6E??           02411         MOVWF   r0x01
000444 6A??           02412         CLRF    r0x02
000446 0E??           02413         MOVLW   HIGH(_timevalue)
000448 22??           02414         ADDWFC  r0x02, F
00044A C??? F???      02415         MOVFF   r0x01, FSR0L
00044E C??? F???      02416         MOVFF   r0x02, FSR0H
000452 CFEF F000      02417         MOVFF   INDF0, r0x01
000456 50??           02418         MOVF    r0x01, W
000458 5C??           02419         SUBWF   r0x00, W
00045A B0D8           02420         BTFSC   STATUS, 0
00045C D???           02421         BRA     _00373_DS_
                      02422 ;       .line   315; /home/vbasel/.icaro/v4/firmware/libraries/servos.c timevalue[t]=servovalues[s];
00045E 0E??           02423         MOVLW   LOW(_timevalue)
                      02424 ; removed redundant BANKSEL
000460 25??           02425         ADDWF   _SortServoTimings_t_1_32, W, B
000462 6E??           02426         MOVWF   r0x00
000464 6A??           02427         CLRF    r0x01
000466 0E??           02428         MOVLW   HIGH(_timevalue)
000468 22??           02429         ADDWFC  r0x01, F
00046A 0E??           02430         MOVLW   LOW(_servovalues)
00046C ????           02431         BANKSEL _SortServoTimings_s_1_32
00046E 25??           02432         ADDWF   _SortServoTimings_s_1_32, W, B
000470 6E??           02433         MOVWF   r0x02
000472 6A??           02434         CLRF    r0x03
000474 0E??           02435         MOVLW   HIGH(_servovalues)
000476 22??           02436         ADDWFC  r0x03, F
000478 C??? F???      02437         MOVFF   r0x02, FSR0L
00047C C??? F???      02438         MOVFF   r0x03, FSR0H
000480 CFEF F000      02439         MOVFF   INDF0, r0x02
000484 C??? F???      02440         MOVFF   r0x00, FSR0L
000488 C??? F???      02441         MOVFF   r0x01, FSR0H
00048C C??? F???      02442         MOVFF   r0x02, INDF0
                      02443 ; ;multiply lit val:0x05 by variable _SortServoTimings_t_1_32 and store in r0x00
000490 ????           02444         BANKSEL _SortServoTimings_t_1_32
                      02445 ;       .line   316; /home/vbasel/.icaro/v4/firmware/libraries/servos.c timings[t][pA]=0x00;
000492 51??           02446         MOVF    _SortServoTimings_t_1_32, W, B
000494 0D05           02447         MULLW   0x05
000496 50F4           02448         MOVF    PRODH, W
000498 6E??           02449         MOVWF   r0x01
00049A CFF3 F000      02450         MOVFF   PRODL, r0x00
00049E 0E??           02451         MOVLW   LOW(_timings)
0004A0 26??           02452         ADDWF   r0x00, F
0004A2 0E??           02453         MOVLW   HIGH(_timings)
0004A4 22??           02454         ADDWFC  r0x01, F
0004A6 C??? F???      02455         MOVFF   r0x00, FSR0L
0004AA C??? F???      02456         MOVFF   r0x01, FSR0H
0004AE 6AEF           02457         CLRF    INDF0
gpasm-1.4.2 #1169 (Aug  3 2017) /home/vbasel/   3-17-2018  14:24:43         PAGE 49


LOC    OBJECT CODE    LINE  SOURCE TEXT
  VALUE

                      02458 ; ;multiply lit val:0x05 by variable _SortServoTimings_t_1_32 and store in r0x00
                      02459 ; removed redundant BANKSEL
                      02460 ;       .line   317; /home/vbasel/.icaro/v4/firmware/libraries/servos.c timings[t][pB]=mask[s];
0004B0 51??           02461         MOVF    _SortServoTimings_t_1_32, W, B
0004B2 0D05           02462         MULLW   0x05
0004B4 50F4           02463         MOVF    PRODH, W
0004B6 6E??           02464         MOVWF   r0x01
0004B8 CFF3 F000      02465         MOVFF   PRODL, r0x00
0004BC 0E??           02466         MOVLW   LOW(_timings)
0004BE 26??           02467         ADDWF   r0x00, F
0004C0 0E??           02468         MOVLW   HIGH(_timings)
0004C2 22??           02469         ADDWFC  r0x01, F
0004C4 4A??           02470         INFSNZ  r0x00, F
0004C6 2A??           02471         INCF    r0x01, F
0004C8 0E??           02472         MOVLW   LOW(_mask)
0004CA ????           02473         BANKSEL _SortServoTimings_s_1_32
0004CC 25??           02474         ADDWF   _SortServoTimings_s_1_32, W, B
0004CE 6E??           02475         MOVWF   r0x02
0004D0 6A??           02476         CLRF    r0x03
0004D2 0E??           02477         MOVLW   HIGH(_mask)
0004D4 22??           02478         ADDWFC  r0x03, F
0004D6 6A??           02479         CLRF    r0x04
0004D8 0E??           02480         MOVLW   UPPER(_mask)
0004DA 22??           02481         ADDWFC  r0x04, F
0004DC C??? F???      02482         MOVFF   r0x02, TBLPTRL
0004E0 C??? F???      02483         MOVFF   r0x03, TBLPTRH
0004E4 C??? F???      02484         MOVFF   r0x04, TBLPTRU
0004E8 0009           02485         TBLRD*+ 
0004EA CFF5 F000      02486         MOVFF   TABLAT, r0x02
0004EE C??? F???      02487         MOVFF   r0x00, FSR0L
0004F2 C??? F???      02488         MOVFF   r0x01, FSR0H
0004F6 C??? F???      02489         MOVFF   r0x02, INDF0
                      02490 ; ;multiply lit val:0x05 by variable _SortServoTimings_t_1_32 and store in r0x00
0004FA ????           02491         BANKSEL _SortServoTimings_t_1_32
                      02492 ;       .line   319; /home/vbasel/.icaro/v4/firmware/libraries/servos.c timings[t][pC]=0x00;
0004FC 51??           02493         MOVF    _SortServoTimings_t_1_32, W, B
0004FE 0D05           02494         MULLW   0x05
000500 50F4           02495         MOVF    PRODH, W
000502 6E??           02496         MOVWF   r0x01
000504 CFF3 F000      02497         MOVFF   PRODL, r0x00
000508 0E??           02498         MOVLW   LOW(_timings)
00050A 26??           02499         ADDWF   r0x00, F
00050C 0E??           02500         MOVLW   HIGH(_timings)
00050E 22??           02501         ADDWFC  r0x01, F
000510 0E02           02502         MOVLW   0x02
000512 26??           02503         ADDWF   r0x00, F
000514 B0D8           02504         BTFSC   STATUS, 0
000516 2A??           02505         INCF    r0x01, F
000518 C??? F???      02506         MOVFF   r0x00, FSR0L
00051C C??? F???      02507         MOVFF   r0x01, FSR0H
000520 6AEF           02508         CLRF    INDF0
                      02509 ; ;multiply lit val:0x05 by variable _SortServoTimings_t_1_32 and store in r0x00
                      02510 ; removed redundant BANKSEL
gpasm-1.4.2 #1169 (Aug  3 2017) /home/vbasel/   3-17-2018  14:24:43         PAGE 50


LOC    OBJECT CODE    LINE  SOURCE TEXT
  VALUE

                      02511 ;       .line   322; /home/vbasel/.icaro/v4/firmware/libraries/servos.c timings[t][pD]=0x00;
000522 51??           02512         MOVF    _SortServoTimings_t_1_32, W, B
000524 0D05           02513         MULLW   0x05
000526 50F4           02514         MOVF    PRODH, W
000528 6E??           02515         MOVWF   r0x01
00052A CFF3 F000      02516         MOVFF   PRODL, r0x00
00052E 0E??           02517         MOVLW   LOW(_timings)
000530 26??           02518         ADDWF   r0x00, F
000532 0E??           02519         MOVLW   HIGH(_timings)
000534 22??           02520         ADDWFC  r0x01, F
000536 0E03           02521         MOVLW   0x03
000538 26??           02522         ADDWF   r0x00, F
00053A B0D8           02523         BTFSC   STATUS, 0
00053C 2A??           02524         INCF    r0x01, F
00053E C??? F???      02525         MOVFF   r0x00, FSR0L
000542 C??? F???      02526         MOVFF   r0x01, FSR0H
000546 6AEF           02527         CLRF    INDF0
                      02528 ; ;multiply lit val:0x05 by variable _SortServoTimings_t_1_32 and store in r0x00
                      02529 ; removed redundant BANKSEL
                      02530 ;       .line   325; /home/vbasel/.icaro/v4/firmware/libraries/servos.c timings[t][pE]=0x00;
000548 51??           02531         MOVF    _SortServoTimings_t_1_32, W, B
00054A 0D05           02532         MULLW   0x05
00054C 50F4           02533         MOVF    PRODH, W
00054E 6E??           02534         MOVWF   r0x01
000550 CFF3 F000      02535         MOVFF   PRODL, r0x00
000554 0E??           02536         MOVLW   LOW(_timings)
000556 26??           02537         ADDWF   r0x00, F
000558 0E??           02538         MOVLW   HIGH(_timings)
00055A 22??           02539         ADDWFC  r0x01, F
00055C 0E04           02540         MOVLW   0x04
00055E 26??           02541         ADDWF   r0x00, F
000560 B0D8           02542         BTFSC   STATUS, 0
000562 2A??           02543         INCF    r0x01, F
000564 C??? F???      02544         MOVFF   r0x00, FSR0L
000568 C??? F???      02545         MOVFF   r0x01, FSR0H
00056C 6AEF           02546         CLRF    INDF0
                      02547 ;       .line   327; /home/vbasel/.icaro/v4/firmware/libraries/servos.c numservos=1;
00056E 0E01           02548         MOVLW   0x01
000570 ????           02549         BANKSEL _SortServoTimings_numservos_1_32
000572 6F??           02550         MOVWF   _SortServoTimings_numservos_1_32, B
000574 EF?? F0??      02551         GOTO    _00418_DS_
000578                02552 _00373_DS_:
                      02553 ;       .line   329; /home/vbasel/.icaro/v4/firmware/libraries/servos.c else if (servovalues[s] == timev
                            alue[t]){
000578 0E??           02554         MOVLW   LOW(_servovalues)
00057A ????           02555         BANKSEL _SortServoTimings_s_1_32
00057C 25??           02556         ADDWF   _SortServoTimings_s_1_32, W, B
00057E 6E??           02557         MOVWF   r0x00
000580 6A??           02558         CLRF    r0x01
000582 0E??           02559         MOVLW   HIGH(_servovalues)
000584 22??           02560         ADDWFC  r0x01, F
000586 C??? F???      02561         MOVFF   r0x00, FSR0L
00058A C??? F???      02562         MOVFF   r0x01, FSR0H
gpasm-1.4.2 #1169 (Aug  3 2017) /home/vbasel/   3-17-2018  14:24:43         PAGE 51


LOC    OBJECT CODE    LINE  SOURCE TEXT
  VALUE

00058E CFEF F000      02563         MOVFF   INDF0, r0x00
000592 0E??           02564         MOVLW   LOW(_timevalue)
000594 ????           02565         BANKSEL _SortServoTimings_t_1_32
000596 25??           02566         ADDWF   _SortServoTimings_t_1_32, W, B
000598 6E??           02567         MOVWF   r0x01
00059A 6A??           02568         CLRF    r0x02
00059C 0E??           02569         MOVLW   HIGH(_timevalue)
00059E 22??           02570         ADDWFC  r0x02, F
0005A0 C??? F???      02571         MOVFF   r0x01, FSR0L
0005A4 C??? F???      02572         MOVFF   r0x02, FSR0H
0005A8 CFEF F000      02573         MOVFF   INDF0, r0x01
0005AC 50??           02574         MOVF    r0x00, W
0005AE 18??           02575         XORWF   r0x01, W
0005B0 E0??           02576         BZ      _00507_DS_
0005B2 EF?? F0??      02577         GOTO    _00418_DS_
                      02578 ; ;multiply lit val:0x05 by variable _SortServoTimings_t_1_32 and store in r0x00
0005B6                02579 _00507_DS_:
0005B6 ????           02580         BANKSEL _SortServoTimings_t_1_32
                      02581 ;       .line   330; /home/vbasel/.icaro/v4/firmware/libraries/servos.c timings[t][pB] |= mask[s];
0005B8 51??           02582         MOVF    _SortServoTimings_t_1_32, W, B
0005BA 0D05           02583         MULLW   0x05
0005BC 50F4           02584         MOVF    PRODH, W
0005BE 6E??           02585         MOVWF   r0x01
0005C0 CFF3 F000      02586         MOVFF   PRODL, r0x00
0005C4 0E??           02587         MOVLW   LOW(_timings)
0005C6 26??           02588         ADDWF   r0x00, F
0005C8 0E??           02589         MOVLW   HIGH(_timings)
0005CA 22??           02590         ADDWFC  r0x01, F
0005CC 4A??           02591         INFSNZ  r0x00, F
0005CE 2A??           02592         INCF    r0x01, F
                      02593 ; ;multiply lit val:0x05 by variable _SortServoTimings_t_1_32 and store in r0x02
                      02594 ; removed redundant BANKSEL
0005D0 51??           02595         MOVF    _SortServoTimings_t_1_32, W, B
0005D2 0D05           02596         MULLW   0x05
0005D4 50F4           02597         MOVF    PRODH, W
0005D6 6E??           02598         MOVWF   r0x03
0005D8 CFF3 F000      02599         MOVFF   PRODL, r0x02
0005DC 0E??           02600         MOVLW   LOW(_timings)
0005DE 26??           02601         ADDWF   r0x02, F
0005E0 0E??           02602         MOVLW   HIGH(_timings)
0005E2 22??           02603         ADDWFC  r0x03, F
0005E4 4A??           02604         INFSNZ  r0x02, F
0005E6 2A??           02605         INCF    r0x03, F
0005E8 0E??           02606         MOVLW   LOW(_mask)
0005EA ????           02607         BANKSEL _SortServoTimings_s_1_32
0005EC 25??           02608         ADDWF   _SortServoTimings_s_1_32, W, B
0005EE 6E??           02609         MOVWF   r0x04
0005F0 6A??           02610         CLRF    r0x05
0005F2 0E??           02611         MOVLW   HIGH(_mask)
0005F4 22??           02612         ADDWFC  r0x05, F
0005F6 6A??           02613         CLRF    r0x06
0005F8 0E??           02614         MOVLW   UPPER(_mask)
0005FA 22??           02615         ADDWFC  r0x06, F
gpasm-1.4.2 #1169 (Aug  3 2017) /home/vbasel/   3-17-2018  14:24:43         PAGE 52


LOC    OBJECT CODE    LINE  SOURCE TEXT
  VALUE

0005FC C??? F???      02616         MOVFF   r0x04, TBLPTRL
000600 C??? F???      02617         MOVFF   r0x05, TBLPTRH
000604 C??? F???      02618         MOVFF   r0x06, TBLPTRU
000608 0009           02619         TBLRD*+ 
00060A CFF5 F000      02620         MOVFF   TABLAT, r0x04
00060E C??? F???      02621         MOVFF   r0x02, FSR0L
000612 C??? F???      02622         MOVFF   r0x03, FSR0H
000616 CFEF F000      02623         MOVFF   INDF0, r0x02
00061A 50??           02624         MOVF    r0x02, W
00061C 12??           02625         IORWF   r0x04, F
00061E C??? F???      02626         MOVFF   r0x00, FSR0L
000622 C??? F???      02627         MOVFF   r0x01, FSR0H
000626 C??? F???      02628         MOVFF   r0x04, INDF0
00062A ????           02629         BANKSEL _SortServoTimings_numservos_1_32
                      02630 ;       .line   331; /home/vbasel/.icaro/v4/firmware/libraries/servos.c numservos++;
00062C 2B??           02631         INCF    _SortServoTimings_numservos_1_32, F, B
                      02632 ;       .line   333; /home/vbasel/.icaro/v4/firmware/libraries/servos.c break;
00062E EF?? F0??      02633         GOTO    _00418_DS_
000632                02634 _00378_DS_:
                      02635 ;       .line   337; /home/vbasel/.icaro/v4/firmware/libraries/servos.c if (mask[s] & mascaratotal[pC] &
                             activatedservos[pC]){
000632 0E??           02636         MOVLW   LOW(_mask)
000634 ????           02637         BANKSEL _SortServoTimings_s_1_32
000636 25??           02638         ADDWF   _SortServoTimings_s_1_32, W, B
000638 6E??           02639         MOVWF   r0x00
00063A 6A??           02640         CLRF    r0x01
00063C 0E??           02641         MOVLW   HIGH(_mask)
00063E 22??           02642         ADDWFC  r0x01, F
000640 6A??           02643         CLRF    r0x02
000642 0E??           02644         MOVLW   UPPER(_mask)
000644 22??           02645         ADDWFC  r0x02, F
000646 C??? F???      02646         MOVFF   r0x00, TBLPTRL
00064A C??? F???      02647         MOVFF   r0x01, TBLPTRH
00064E C??? F???      02648         MOVFF   r0x02, TBLPTRU
000652 0009           02649         TBLRD*+ 
000654 CFF5 F000      02650         MOVFF   TABLAT, r0x00
000658 ????           02651         BANKSEL (_mascaratotal + 2)
00065A 51??           02652         MOVF    (_mascaratotal + 2), W, B
00065C 16??           02653         ANDWF   r0x00, F
00065E ????           02654         BANKSEL (_activatedservos + 2)
000660 51??           02655         MOVF    (_activatedservos + 2), W, B
000662 16??           02656         ANDWF   r0x00, F
000664 50??           02657         MOVF    r0x00, W
000666 A4D8           02658         BTFSS   STATUS, 2
000668 EF?? F0??      02659         GOTO    _00418_DS_
                      02660 ;       .line   340; /home/vbasel/.icaro/v4/firmware/libraries/servos.c else if (servovalues[s] < timeva
                            lue[t]){
00066C 0E??           02661         MOVLW   LOW(_servovalues)
00066E ????           02662         BANKSEL _SortServoTimings_s_1_32
000670 25??           02663         ADDWF   _SortServoTimings_s_1_32, W, B
000672 6E??           02664         MOVWF   r0x00
000674 6A??           02665         CLRF    r0x01
000676 0E??           02666         MOVLW   HIGH(_servovalues)
gpasm-1.4.2 #1169 (Aug  3 2017) /home/vbasel/   3-17-2018  14:24:43         PAGE 53


LOC    OBJECT CODE    LINE  SOURCE TEXT
  VALUE

000678 22??           02667         ADDWFC  r0x01, F
00067A C??? F???      02668         MOVFF   r0x00, FSR0L
00067E C??? F???      02669         MOVFF   r0x01, FSR0H
000682 CFEF F000      02670         MOVFF   INDF0, r0x00
000686 0E??           02671         MOVLW   LOW(_timevalue)
000688 ????           02672         BANKSEL _SortServoTimings_t_1_32
00068A 25??           02673         ADDWF   _SortServoTimings_t_1_32, W, B
00068C 6E??           02674         MOVWF   r0x01
00068E 6A??           02675         CLRF    r0x02
000690 0E??           02676         MOVLW   HIGH(_timevalue)
000692 22??           02677         ADDWFC  r0x02, F
000694 C??? F???      02678         MOVFF   r0x01, FSR0L
000698 C??? F???      02679         MOVFF   r0x02, FSR0H
00069C CFEF F000      02680         MOVFF   INDF0, r0x01
0006A0 50??           02681         MOVF    r0x01, W
0006A2 5C??           02682         SUBWF   r0x00, W
0006A4 B0D8           02683         BTFSC   STATUS, 0
0006A6 D???           02684         BRA     _00382_DS_
                      02685 ;       .line   341; /home/vbasel/.icaro/v4/firmware/libraries/servos.c timevalue[t]=servovalues[s];
0006A8 0E??           02686         MOVLW   LOW(_timevalue)
                      02687 ; removed redundant BANKSEL
0006AA 25??           02688         ADDWF   _SortServoTimings_t_1_32, W, B
0006AC 6E??           02689         MOVWF   r0x00
0006AE 6A??           02690         CLRF    r0x01
0006B0 0E??           02691         MOVLW   HIGH(_timevalue)
0006B2 22??           02692         ADDWFC  r0x01, F
0006B4 0E??           02693         MOVLW   LOW(_servovalues)
0006B6 ????           02694         BANKSEL _SortServoTimings_s_1_32
0006B8 25??           02695         ADDWF   _SortServoTimings_s_1_32, W, B
0006BA 6E??           02696         MOVWF   r0x02
0006BC 6A??           02697         CLRF    r0x03
0006BE 0E??           02698         MOVLW   HIGH(_servovalues)
0006C0 22??           02699         ADDWFC  r0x03, F
0006C2 C??? F???      02700         MOVFF   r0x02, FSR0L
0006C6 C??? F???      02701         MOVFF   r0x03, FSR0H
0006CA CFEF F000      02702         MOVFF   INDF0, r0x02
0006CE C??? F???      02703         MOVFF   r0x00, FSR0L
0006D2 C??? F???      02704         MOVFF   r0x01, FSR0H
0006D6 C??? F???      02705         MOVFF   r0x02, INDF0
                      02706 ; ;multiply lit val:0x05 by variable _SortServoTimings_t_1_32 and store in r0x00
0006DA ????           02707         BANKSEL _SortServoTimings_t_1_32
                      02708 ;       .line   342; /home/vbasel/.icaro/v4/firmware/libraries/servos.c timings[t][pA]=0x00;
0006DC 51??           02709         MOVF    _SortServoTimings_t_1_32, W, B
0006DE 0D05           02710         MULLW   0x05
0006E0 50F4           02711         MOVF    PRODH, W
0006E2 6E??           02712         MOVWF   r0x01
0006E4 CFF3 F000      02713         MOVFF   PRODL, r0x00
0006E8 0E??           02714         MOVLW   LOW(_timings)
0006EA 26??           02715         ADDWF   r0x00, F
0006EC 0E??           02716         MOVLW   HIGH(_timings)
0006EE 22??           02717         ADDWFC  r0x01, F
0006F0 C??? F???      02718         MOVFF   r0x00, FSR0L
0006F4 C??? F???      02719         MOVFF   r0x01, FSR0H
gpasm-1.4.2 #1169 (Aug  3 2017) /home/vbasel/   3-17-2018  14:24:43         PAGE 54


LOC    OBJECT CODE    LINE  SOURCE TEXT
  VALUE

0006F8 6AEF           02720         CLRF    INDF0
                      02721 ; ;multiply lit val:0x05 by variable _SortServoTimings_t_1_32 and store in r0x00
                      02722 ; removed redundant BANKSEL
                      02723 ;       .line   343; /home/vbasel/.icaro/v4/firmware/libraries/servos.c timings[t][pB]=0x00;
0006FA 51??           02724         MOVF    _SortServoTimings_t_1_32, W, B
0006FC 0D05           02725         MULLW   0x05
0006FE 50F4           02726         MOVF    PRODH, W
000700 6E??           02727         MOVWF   r0x01
000702 CFF3 F000      02728         MOVFF   PRODL, r0x00
000706 0E??           02729         MOVLW   LOW(_timings)
000708 26??           02730         ADDWF   r0x00, F
00070A 0E??           02731         MOVLW   HIGH(_timings)
00070C 22??           02732         ADDWFC  r0x01, F
00070E 4A??           02733         INFSNZ  r0x00, F
000710 2A??           02734         INCF    r0x01, F
000712 C??? F???      02735         MOVFF   r0x00, FSR0L
000716 C??? F???      02736         MOVFF   r0x01, FSR0H
00071A 6AEF           02737         CLRF    INDF0
                      02738 ; ;multiply lit val:0x05 by variable _SortServoTimings_t_1_32 and store in r0x00
                      02739 ; removed redundant BANKSEL
                      02740 ;       .line   344; /home/vbasel/.icaro/v4/firmware/libraries/servos.c timings[t][pC]=mask[s];
00071C 51??           02741         MOVF    _SortServoTimings_t_1_32, W, B
00071E 0D05           02742         MULLW   0x05
000720 50F4           02743         MOVF    PRODH, W
000722 6E??           02744         MOVWF   r0x01
000724 CFF3 F000      02745         MOVFF   PRODL, r0x00
000728 0E??           02746         MOVLW   LOW(_timings)
00072A 26??           02747         ADDWF   r0x00, F
00072C 0E??           02748         MOVLW   HIGH(_timings)
00072E 22??           02749         ADDWFC  r0x01, F
000730 0E02           02750         MOVLW   0x02
000732 26??           02751         ADDWF   r0x00, F
000734 B0D8           02752         BTFSC   STATUS, 0
000736 2A??           02753         INCF    r0x01, F
000738 0E??           02754         MOVLW   LOW(_mask)
00073A ????           02755         BANKSEL _SortServoTimings_s_1_32
00073C 25??           02756         ADDWF   _SortServoTimings_s_1_32, W, B
00073E 6E??           02757         MOVWF   r0x02
000740 6A??           02758         CLRF    r0x03
000742 0E??           02759         MOVLW   HIGH(_mask)
000744 22??           02760         ADDWFC  r0x03, F
000746 6A??           02761         CLRF    r0x04
000748 0E??           02762         MOVLW   UPPER(_mask)
00074A 22??           02763         ADDWFC  r0x04, F
00074C C??? F???      02764         MOVFF   r0x02, TBLPTRL
000750 C??? F???      02765         MOVFF   r0x03, TBLPTRH
000754 C??? F???      02766         MOVFF   r0x04, TBLPTRU
000758 0009           02767         TBLRD*+ 
00075A CFF5 F000      02768         MOVFF   TABLAT, r0x02
00075E C??? F???      02769         MOVFF   r0x00, FSR0L
000762 C??? F???      02770         MOVFF   r0x01, FSR0H
000766 C??? F???      02771         MOVFF   r0x02, INDF0
                      02772 ; ;multiply lit val:0x05 by variable _SortServoTimings_t_1_32 and store in r0x00
gpasm-1.4.2 #1169 (Aug  3 2017) /home/vbasel/   3-17-2018  14:24:43         PAGE 55


LOC    OBJECT CODE    LINE  SOURCE TEXT
  VALUE

00076A ????           02773         BANKSEL _SortServoTimings_t_1_32
                      02774 ;       .line   346; /home/vbasel/.icaro/v4/firmware/libraries/servos.c timings[t][pD]=0x00;
00076C 51??           02775         MOVF    _SortServoTimings_t_1_32, W, B
00076E 0D05           02776         MULLW   0x05
000770 50F4           02777         MOVF    PRODH, W
000772 6E??           02778         MOVWF   r0x01
000774 CFF3 F000      02779         MOVFF   PRODL, r0x00
000778 0E??           02780         MOVLW   LOW(_timings)
00077A 26??           02781         ADDWF   r0x00, F
00077C 0E??           02782         MOVLW   HIGH(_timings)
00077E 22??           02783         ADDWFC  r0x01, F
000780 0E03           02784         MOVLW   0x03
000782 26??           02785         ADDWF   r0x00, F
000784 B0D8           02786         BTFSC   STATUS, 0
000786 2A??           02787         INCF    r0x01, F
000788 C??? F???      02788         MOVFF   r0x00, FSR0L
00078C C??? F???      02789         MOVFF   r0x01, FSR0H
000790 6AEF           02790         CLRF    INDF0
                      02791 ; ;multiply lit val:0x05 by variable _SortServoTimings_t_1_32 and store in r0x00
                      02792 ; removed redundant BANKSEL
                      02793 ;       .line   349; /home/vbasel/.icaro/v4/firmware/libraries/servos.c timings[t][pE]=0x00;
000792 51??           02794         MOVF    _SortServoTimings_t_1_32, W, B
000794 0D05           02795         MULLW   0x05
000796 50F4           02796         MOVF    PRODH, W
000798 6E??           02797         MOVWF   r0x01
00079A CFF3 F000      02798         MOVFF   PRODL, r0x00
00079E 0E??           02799         MOVLW   LOW(_timings)
0007A0 26??           02800         ADDWF   r0x00, F
0007A2 0E??           02801         MOVLW   HIGH(_timings)
0007A4 22??           02802         ADDWFC  r0x01, F
0007A6 0E04           02803         MOVLW   0x04
0007A8 26??           02804         ADDWF   r0x00, F
0007AA B0D8           02805         BTFSC   STATUS, 0
0007AC 2A??           02806         INCF    r0x01, F
0007AE C??? F???      02807         MOVFF   r0x00, FSR0L
0007B2 C??? F???      02808         MOVFF   r0x01, FSR0H
0007B6 6AEF           02809         CLRF    INDF0
                      02810 ;       .line   351; /home/vbasel/.icaro/v4/firmware/libraries/servos.c numservos=1;
0007B8 0E01           02811         MOVLW   0x01
0007BA ????           02812         BANKSEL _SortServoTimings_numservos_1_32
0007BC 6F??           02813         MOVWF   _SortServoTimings_numservos_1_32, B
0007BE EF?? F0??      02814         GOTO    _00418_DS_
0007C2                02815 _00382_DS_:
                      02816 ;       .line   353; /home/vbasel/.icaro/v4/firmware/libraries/servos.c else if (servovalues[s] == timev
                            alue[t]){
0007C2 0E??           02817         MOVLW   LOW(_servovalues)
0007C4 ????           02818         BANKSEL _SortServoTimings_s_1_32
0007C6 25??           02819         ADDWF   _SortServoTimings_s_1_32, W, B
0007C8 6E??           02820         MOVWF   r0x00
0007CA 6A??           02821         CLRF    r0x01
0007CC 0E??           02822         MOVLW   HIGH(_servovalues)
0007CE 22??           02823         ADDWFC  r0x01, F
0007D0 C??? F???      02824         MOVFF   r0x00, FSR0L
gpasm-1.4.2 #1169 (Aug  3 2017) /home/vbasel/   3-17-2018  14:24:43         PAGE 56


LOC    OBJECT CODE    LINE  SOURCE TEXT
  VALUE

0007D4 C??? F???      02825         MOVFF   r0x01, FSR0H
0007D8 CFEF F000      02826         MOVFF   INDF0, r0x00
0007DC 0E??           02827         MOVLW   LOW(_timevalue)
0007DE ????           02828         BANKSEL _SortServoTimings_t_1_32
0007E0 25??           02829         ADDWF   _SortServoTimings_t_1_32, W, B
0007E2 6E??           02830         MOVWF   r0x01
0007E4 6A??           02831         CLRF    r0x02
0007E6 0E??           02832         MOVLW   HIGH(_timevalue)
0007E8 22??           02833         ADDWFC  r0x02, F
0007EA C??? F???      02834         MOVFF   r0x01, FSR0L
0007EE C??? F???      02835         MOVFF   r0x02, FSR0H
0007F2 CFEF F000      02836         MOVFF   INDF0, r0x01
0007F6 50??           02837         MOVF    r0x00, W
0007F8 18??           02838         XORWF   r0x01, W
0007FA E0??           02839         BZ      _00512_DS_
0007FC EF?? F0??      02840         GOTO    _00418_DS_
                      02841 ; ;multiply lit val:0x05 by variable _SortServoTimings_t_1_32 and store in r0x00
000800                02842 _00512_DS_:
000800 ????           02843         BANKSEL _SortServoTimings_t_1_32
                      02844 ;       .line   354; /home/vbasel/.icaro/v4/firmware/libraries/servos.c timings[t][pC] |= mask[s];
000802 51??           02845         MOVF    _SortServoTimings_t_1_32, W, B
000804 0D05           02846         MULLW   0x05
000806 50F4           02847         MOVF    PRODH, W
000808 6E??           02848         MOVWF   r0x01
00080A CFF3 F000      02849         MOVFF   PRODL, r0x00
00080E 0E??           02850         MOVLW   LOW(_timings)
000810 26??           02851         ADDWF   r0x00, F
000812 0E??           02852         MOVLW   HIGH(_timings)
000814 22??           02853         ADDWFC  r0x01, F
000816 0E02           02854         MOVLW   0x02
000818 26??           02855         ADDWF   r0x00, F
00081A B0D8           02856         BTFSC   STATUS, 0
00081C 2A??           02857         INCF    r0x01, F
                      02858 ; ;multiply lit val:0x05 by variable _SortServoTimings_t_1_32 and store in r0x02
                      02859 ; removed redundant BANKSEL
00081E 51??           02860         MOVF    _SortServoTimings_t_1_32, W, B
000820 0D05           02861         MULLW   0x05
000822 50F4           02862         MOVF    PRODH, W
000824 6E??           02863         MOVWF   r0x03
000826 CFF3 F000      02864         MOVFF   PRODL, r0x02
00082A 0E??           02865         MOVLW   LOW(_timings)
00082C 26??           02866         ADDWF   r0x02, F
00082E 0E??           02867         MOVLW   HIGH(_timings)
000830 22??           02868         ADDWFC  r0x03, F
000832 0E02           02869         MOVLW   0x02
000834 26??           02870         ADDWF   r0x02, F
000836 B0D8           02871         BTFSC   STATUS, 0
000838 2A??           02872         INCF    r0x03, F
00083A 0E??           02873         MOVLW   LOW(_mask)
00083C ????           02874         BANKSEL _SortServoTimings_s_1_32
00083E 25??           02875         ADDWF   _SortServoTimings_s_1_32, W, B
000840 6E??           02876         MOVWF   r0x04
000842 6A??           02877         CLRF    r0x05
gpasm-1.4.2 #1169 (Aug  3 2017) /home/vbasel/   3-17-2018  14:24:43         PAGE 57


LOC    OBJECT CODE    LINE  SOURCE TEXT
  VALUE

000844 0E??           02878         MOVLW   HIGH(_mask)
000846 22??           02879         ADDWFC  r0x05, F
000848 6A??           02880         CLRF    r0x06
00084A 0E??           02881         MOVLW   UPPER(_mask)
00084C 22??           02882         ADDWFC  r0x06, F
00084E C??? F???      02883         MOVFF   r0x04, TBLPTRL
000852 C??? F???      02884         MOVFF   r0x05, TBLPTRH
000856 C??? F???      02885         MOVFF   r0x06, TBLPTRU
00085A 0009           02886         TBLRD*+ 
00085C CFF5 F000      02887         MOVFF   TABLAT, r0x04
000860 C??? F???      02888         MOVFF   r0x02, FSR0L
000864 C??? F???      02889         MOVFF   r0x03, FSR0H
000868 CFEF F000      02890         MOVFF   INDF0, r0x02
00086C 50??           02891         MOVF    r0x02, W
00086E 12??           02892         IORWF   r0x04, F
000870 C??? F???      02893         MOVFF   r0x00, FSR0L
000874 C??? F???      02894         MOVFF   r0x01, FSR0H
000878 C??? F???      02895         MOVFF   r0x04, INDF0
00087C ????           02896         BANKSEL _SortServoTimings_numservos_1_32
                      02897 ;       .line   355; /home/vbasel/.icaro/v4/firmware/libraries/servos.c numservos++;
00087E 2B??           02898         INCF    _SortServoTimings_numservos_1_32, F, B
                      02899 ;       .line   357; /home/vbasel/.icaro/v4/firmware/libraries/servos.c break;
000880 EF?? F0??      02900         GOTO    _00418_DS_
000884                02901 _00387_DS_:
                      02902 ;       .line   362; /home/vbasel/.icaro/v4/firmware/libraries/servos.c if (mask[s] & mascaratotal[pD] &
                             activatedservos[pD]){
000884 0E??           02903         MOVLW   LOW(_mask)
000886 ????           02904         BANKSEL _SortServoTimings_s_1_32
000888 25??           02905         ADDWF   _SortServoTimings_s_1_32, W, B
00088A 6E??           02906         MOVWF   r0x00
00088C 6A??           02907         CLRF    r0x01
00088E 0E??           02908         MOVLW   HIGH(_mask)
000890 22??           02909         ADDWFC  r0x01, F
000892 6A??           02910         CLRF    r0x02
000894 0E??           02911         MOVLW   UPPER(_mask)
000896 22??           02912         ADDWFC  r0x02, F
000898 C??? F???      02913         MOVFF   r0x00, TBLPTRL
00089C C??? F???      02914         MOVFF   r0x01, TBLPTRH
0008A0 C??? F???      02915         MOVFF   r0x02, TBLPTRU
0008A4 0009           02916         TBLRD*+ 
0008A6 CFF5 F000      02917         MOVFF   TABLAT, r0x00
0008AA ????           02918         BANKSEL (_mascaratotal + 3)
0008AC 51??           02919         MOVF    (_mascaratotal + 3), W, B
0008AE 16??           02920         ANDWF   r0x00, F
0008B0 ????           02921         BANKSEL (_activatedservos + 3)
0008B2 51??           02922         MOVF    (_activatedservos + 3), W, B
0008B4 16??           02923         ANDWF   r0x00, F
0008B6 50??           02924         MOVF    r0x00, W
0008B8 A4D8           02925         BTFSS   STATUS, 2
0008BA EF?? F0??      02926         GOTO    _00418_DS_
                      02927 ;       .line   365; /home/vbasel/.icaro/v4/firmware/libraries/servos.c else if (servovalues[s] < timeva
                            lue[t]){
0008BE 0E??           02928         MOVLW   LOW(_servovalues)
gpasm-1.4.2 #1169 (Aug  3 2017) /home/vbasel/   3-17-2018  14:24:43         PAGE 58


LOC    OBJECT CODE    LINE  SOURCE TEXT
  VALUE

0008C0 ????           02929         BANKSEL _SortServoTimings_s_1_32
0008C2 25??           02930         ADDWF   _SortServoTimings_s_1_32, W, B
0008C4 6E??           02931         MOVWF   r0x00
0008C6 6A??           02932         CLRF    r0x01
0008C8 0E??           02933         MOVLW   HIGH(_servovalues)
0008CA 22??           02934         ADDWFC  r0x01, F
0008CC C??? F???      02935         MOVFF   r0x00, FSR0L
0008D0 C??? F???      02936         MOVFF   r0x01, FSR0H
0008D4 CFEF F000      02937         MOVFF   INDF0, r0x00
0008D8 0E??           02938         MOVLW   LOW(_timevalue)
0008DA ????           02939         BANKSEL _SortServoTimings_t_1_32
0008DC 25??           02940         ADDWF   _SortServoTimings_t_1_32, W, B
0008DE 6E??           02941         MOVWF   r0x01
0008E0 6A??           02942         CLRF    r0x02
0008E2 0E??           02943         MOVLW   HIGH(_timevalue)
0008E4 22??           02944         ADDWFC  r0x02, F
0008E6 C??? F???      02945         MOVFF   r0x01, FSR0L
0008EA C??? F???      02946         MOVFF   r0x02, FSR0H
0008EE CFEF F000      02947         MOVFF   INDF0, r0x01
0008F2 50??           02948         MOVF    r0x01, W
0008F4 5C??           02949         SUBWF   r0x00, W
0008F6 B0D8           02950         BTFSC   STATUS, 0
0008F8 D???           02951         BRA     _00391_DS_
                      02952 ;       .line   366; /home/vbasel/.icaro/v4/firmware/libraries/servos.c timevalue[t]=servovalues[s];
0008FA 0E??           02953         MOVLW   LOW(_timevalue)
                      02954 ; removed redundant BANKSEL
0008FC 25??           02955         ADDWF   _SortServoTimings_t_1_32, W, B
0008FE 6E??           02956         MOVWF   r0x00
000900 6A??           02957         CLRF    r0x01
000902 0E??           02958         MOVLW   HIGH(_timevalue)
000904 22??           02959         ADDWFC  r0x01, F
000906 0E??           02960         MOVLW   LOW(_servovalues)
000908 ????           02961         BANKSEL _SortServoTimings_s_1_32
00090A 25??           02962         ADDWF   _SortServoTimings_s_1_32, W, B
00090C 6E??           02963         MOVWF   r0x02
00090E 6A??           02964         CLRF    r0x03
000910 0E??           02965         MOVLW   HIGH(_servovalues)
000912 22??           02966         ADDWFC  r0x03, F
000914 C??? F???      02967         MOVFF   r0x02, FSR0L
000918 C??? F???      02968         MOVFF   r0x03, FSR0H
00091C CFEF F000      02969         MOVFF   INDF0, r0x02
000920 C??? F???      02970         MOVFF   r0x00, FSR0L
000924 C??? F???      02971         MOVFF   r0x01, FSR0H
000928 C??? F???      02972         MOVFF   r0x02, INDF0
                      02973 ; ;multiply lit val:0x05 by variable _SortServoTimings_t_1_32 and store in r0x00
00092C ????           02974         BANKSEL _SortServoTimings_t_1_32
                      02975 ;       .line   367; /home/vbasel/.icaro/v4/firmware/libraries/servos.c timings[t][pA]=0x00;
00092E 51??           02976         MOVF    _SortServoTimings_t_1_32, W, B
000930 0D05           02977         MULLW   0x05
000932 50F4           02978         MOVF    PRODH, W
000934 6E??           02979         MOVWF   r0x01
000936 CFF3 F000      02980         MOVFF   PRODL, r0x00
00093A 0E??           02981         MOVLW   LOW(_timings)
gpasm-1.4.2 #1169 (Aug  3 2017) /home/vbasel/   3-17-2018  14:24:43         PAGE 59


LOC    OBJECT CODE    LINE  SOURCE TEXT
  VALUE

00093C 26??           02982         ADDWF   r0x00, F
00093E 0E??           02983         MOVLW   HIGH(_timings)
000940 22??           02984         ADDWFC  r0x01, F
000942 C??? F???      02985         MOVFF   r0x00, FSR0L
000946 C??? F???      02986         MOVFF   r0x01, FSR0H
00094A 6AEF           02987         CLRF    INDF0
                      02988 ; ;multiply lit val:0x05 by variable _SortServoTimings_t_1_32 and store in r0x00
                      02989 ; removed redundant BANKSEL
                      02990 ;       .line   368; /home/vbasel/.icaro/v4/firmware/libraries/servos.c timings[t][pB]=0x00;
00094C 51??           02991         MOVF    _SortServoTimings_t_1_32, W, B
00094E 0D05           02992         MULLW   0x05
000950 50F4           02993         MOVF    PRODH, W
000952 6E??           02994         MOVWF   r0x01
000954 CFF3 F000      02995         MOVFF   PRODL, r0x00
000958 0E??           02996         MOVLW   LOW(_timings)
00095A 26??           02997         ADDWF   r0x00, F
00095C 0E??           02998         MOVLW   HIGH(_timings)
00095E 22??           02999         ADDWFC  r0x01, F
000960 4A??           03000         INFSNZ  r0x00, F
000962 2A??           03001         INCF    r0x01, F
000964 C??? F???      03002         MOVFF   r0x00, FSR0L
000968 C??? F???      03003         MOVFF   r0x01, FSR0H
00096C 6AEF           03004         CLRF    INDF0
                      03005 ; ;multiply lit val:0x05 by variable _SortServoTimings_t_1_32 and store in r0x00
                      03006 ; removed redundant BANKSEL
                      03007 ;       .line   369; /home/vbasel/.icaro/v4/firmware/libraries/servos.c timings[t][pC]=0x00;
00096E 51??           03008         MOVF    _SortServoTimings_t_1_32, W, B
000970 0D05           03009         MULLW   0x05
000972 50F4           03010         MOVF    PRODH, W
000974 6E??           03011         MOVWF   r0x01
000976 CFF3 F000      03012         MOVFF   PRODL, r0x00
00097A 0E??           03013         MOVLW   LOW(_timings)
00097C 26??           03014         ADDWF   r0x00, F
00097E 0E??           03015         MOVLW   HIGH(_timings)
000980 22??           03016         ADDWFC  r0x01, F
000982 0E02           03017         MOVLW   0x02
000984 26??           03018         ADDWF   r0x00, F
000986 B0D8           03019         BTFSC   STATUS, 0
000988 2A??           03020         INCF    r0x01, F
00098A C??? F???      03021         MOVFF   r0x00, FSR0L
00098E C??? F???      03022         MOVFF   r0x01, FSR0H
000992 6AEF           03023         CLRF    INDF0
                      03024 ; ;multiply lit val:0x05 by variable _SortServoTimings_t_1_32 and store in r0x00
                      03025 ; removed redundant BANKSEL
                      03026 ;       .line   370; /home/vbasel/.icaro/v4/firmware/libraries/servos.c timings[t][pD]=mask[s];
000994 51??           03027         MOVF    _SortServoTimings_t_1_32, W, B
000996 0D05           03028         MULLW   0x05
000998 50F4           03029         MOVF    PRODH, W
00099A 6E??           03030         MOVWF   r0x01
00099C CFF3 F000      03031         MOVFF   PRODL, r0x00
0009A0 0E??           03032         MOVLW   LOW(_timings)
0009A2 26??           03033         ADDWF   r0x00, F
0009A4 0E??           03034         MOVLW   HIGH(_timings)
gpasm-1.4.2 #1169 (Aug  3 2017) /home/vbasel/   3-17-2018  14:24:43         PAGE 60


LOC    OBJECT CODE    LINE  SOURCE TEXT
  VALUE

0009A6 22??           03035         ADDWFC  r0x01, F
0009A8 0E03           03036         MOVLW   0x03
0009AA 26??           03037         ADDWF   r0x00, F
0009AC B0D8           03038         BTFSC   STATUS, 0
0009AE 2A??           03039         INCF    r0x01, F
0009B0 0E??           03040         MOVLW   LOW(_mask)
0009B2 ????           03041         BANKSEL _SortServoTimings_s_1_32
0009B4 25??           03042         ADDWF   _SortServoTimings_s_1_32, W, B
0009B6 6E??           03043         MOVWF   r0x02
0009B8 6A??           03044         CLRF    r0x03
0009BA 0E??           03045         MOVLW   HIGH(_mask)
0009BC 22??           03046         ADDWFC  r0x03, F
0009BE 6A??           03047         CLRF    r0x04
0009C0 0E??           03048         MOVLW   UPPER(_mask)
0009C2 22??           03049         ADDWFC  r0x04, F
0009C4 C??? F???      03050         MOVFF   r0x02, TBLPTRL
0009C8 C??? F???      03051         MOVFF   r0x03, TBLPTRH
0009CC C??? F???      03052         MOVFF   r0x04, TBLPTRU
0009D0 0009           03053         TBLRD*+ 
0009D2 CFF5 F000      03054         MOVFF   TABLAT, r0x02
0009D6 C??? F???      03055         MOVFF   r0x00, FSR0L
0009DA C??? F???      03056         MOVFF   r0x01, FSR0H
0009DE C??? F???      03057         MOVFF   r0x02, INDF0
                      03058 ; ;multiply lit val:0x05 by variable _SortServoTimings_t_1_32 and store in r0x00
0009E2 ????           03059         BANKSEL _SortServoTimings_t_1_32
                      03060 ;       .line   372; /home/vbasel/.icaro/v4/firmware/libraries/servos.c timings[t][pE]=0x00;
0009E4 51??           03061         MOVF    _SortServoTimings_t_1_32, W, B
0009E6 0D05           03062         MULLW   0x05
0009E8 50F4           03063         MOVF    PRODH, W
0009EA 6E??           03064         MOVWF   r0x01
0009EC CFF3 F000      03065         MOVFF   PRODL, r0x00
0009F0 0E??           03066         MOVLW   LOW(_timings)
0009F2 26??           03067         ADDWF   r0x00, F
0009F4 0E??           03068         MOVLW   HIGH(_timings)
0009F6 22??           03069         ADDWFC  r0x01, F
0009F8 0E04           03070         MOVLW   0x04
0009FA 26??           03071         ADDWF   r0x00, F
0009FC B0D8           03072         BTFSC   STATUS, 0
0009FE 2A??           03073         INCF    r0x01, F
000A00 C??? F???      03074         MOVFF   r0x00, FSR0L
000A04 C??? F???      03075         MOVFF   r0x01, FSR0H
000A08 6AEF           03076         CLRF    INDF0
                      03077 ;       .line   374; /home/vbasel/.icaro/v4/firmware/libraries/servos.c numservos=1;
000A0A 0E01           03078         MOVLW   0x01
000A0C ????           03079         BANKSEL _SortServoTimings_numservos_1_32
000A0E 6F??           03080         MOVWF   _SortServoTimings_numservos_1_32, B
000A10 D???           03081         BRA     _00418_DS_
000A12                03082 _00391_DS_:
                      03083 ;       .line   376; /home/vbasel/.icaro/v4/firmware/libraries/servos.c else if (servovalues[s] == timev
                            alue[t]){
000A12 0E??           03084         MOVLW   LOW(_servovalues)
000A14 ????           03085         BANKSEL _SortServoTimings_s_1_32
000A16 25??           03086         ADDWF   _SortServoTimings_s_1_32, W, B
gpasm-1.4.2 #1169 (Aug  3 2017) /home/vbasel/   3-17-2018  14:24:43         PAGE 61


LOC    OBJECT CODE    LINE  SOURCE TEXT
  VALUE

000A18 6E??           03087         MOVWF   r0x00
000A1A 6A??           03088         CLRF    r0x01
000A1C 0E??           03089         MOVLW   HIGH(_servovalues)
000A1E 22??           03090         ADDWFC  r0x01, F
000A20 C??? F???      03091         MOVFF   r0x00, FSR0L
000A24 C??? F???      03092         MOVFF   r0x01, FSR0H
000A28 CFEF F000      03093         MOVFF   INDF0, r0x00
000A2C 0E??           03094         MOVLW   LOW(_timevalue)
000A2E ????           03095         BANKSEL _SortServoTimings_t_1_32
000A30 25??           03096         ADDWF   _SortServoTimings_t_1_32, W, B
000A32 6E??           03097         MOVWF   r0x01
000A34 6A??           03098         CLRF    r0x02
000A36 0E??           03099         MOVLW   HIGH(_timevalue)
000A38 22??           03100         ADDWFC  r0x02, F
000A3A C??? F???      03101         MOVFF   r0x01, FSR0L
000A3E C??? F???      03102         MOVFF   r0x02, FSR0H
000A42 CFEF F000      03103         MOVFF   INDF0, r0x01
000A46 50??           03104         MOVF    r0x00, W
000A48 18??           03105         XORWF   r0x01, W
000A4A E0??           03106         BZ      _00517_DS_
000A4C D???           03107         BRA     _00418_DS_
                      03108 ; ;multiply lit val:0x05 by variable _SortServoTimings_t_1_32 and store in r0x00
000A4E                03109 _00517_DS_:
000A4E ????           03110         BANKSEL _SortServoTimings_t_1_32
                      03111 ;       .line   377; /home/vbasel/.icaro/v4/firmware/libraries/servos.c timings[t][pD] |= mask[s];
000A50 51??           03112         MOVF    _SortServoTimings_t_1_32, W, B
000A52 0D05           03113         MULLW   0x05
000A54 50F4           03114         MOVF    PRODH, W
000A56 6E??           03115         MOVWF   r0x01
000A58 CFF3 F000      03116         MOVFF   PRODL, r0x00
000A5C 0E??           03117         MOVLW   LOW(_timings)
000A5E 26??           03118         ADDWF   r0x00, F
000A60 0E??           03119         MOVLW   HIGH(_timings)
000A62 22??           03120         ADDWFC  r0x01, F
000A64 0E03           03121         MOVLW   0x03
000A66 26??           03122         ADDWF   r0x00, F
000A68 B0D8           03123         BTFSC   STATUS, 0
000A6A 2A??           03124         INCF    r0x01, F
                      03125 ; ;multiply lit val:0x05 by variable _SortServoTimings_t_1_32 and store in r0x02
                      03126 ; removed redundant BANKSEL
000A6C 51??           03127         MOVF    _SortServoTimings_t_1_32, W, B
000A6E 0D05           03128         MULLW   0x05
000A70 50F4           03129         MOVF    PRODH, W
000A72 6E??           03130         MOVWF   r0x03
000A74 CFF3 F000      03131         MOVFF   PRODL, r0x02
000A78 0E??           03132         MOVLW   LOW(_timings)
000A7A 26??           03133         ADDWF   r0x02, F
000A7C 0E??           03134         MOVLW   HIGH(_timings)
000A7E 22??           03135         ADDWFC  r0x03, F
000A80 0E03           03136         MOVLW   0x03
000A82 26??           03137         ADDWF   r0x02, F
000A84 B0D8           03138         BTFSC   STATUS, 0
000A86 2A??           03139         INCF    r0x03, F
gpasm-1.4.2 #1169 (Aug  3 2017) /home/vbasel/   3-17-2018  14:24:43         PAGE 62


LOC    OBJECT CODE    LINE  SOURCE TEXT
  VALUE

000A88 0E??           03140         MOVLW   LOW(_mask)
000A8A ????           03141         BANKSEL _SortServoTimings_s_1_32
000A8C 25??           03142         ADDWF   _SortServoTimings_s_1_32, W, B
000A8E 6E??           03143         MOVWF   r0x04
000A90 6A??           03144         CLRF    r0x05
000A92 0E??           03145         MOVLW   HIGH(_mask)
000A94 22??           03146         ADDWFC  r0x05, F
000A96 6A??           03147         CLRF    r0x06
000A98 0E??           03148         MOVLW   UPPER(_mask)
000A9A 22??           03149         ADDWFC  r0x06, F
000A9C C??? F???      03150         MOVFF   r0x04, TBLPTRL
000AA0 C??? F???      03151         MOVFF   r0x05, TBLPTRH
000AA4 C??? F???      03152         MOVFF   r0x06, TBLPTRU
000AA8 0009           03153         TBLRD*+ 
000AAA CFF5 F000      03154         MOVFF   TABLAT, r0x04
000AAE C??? F???      03155         MOVFF   r0x02, FSR0L
000AB2 C??? F???      03156         MOVFF   r0x03, FSR0H
000AB6 CFEF F000      03157         MOVFF   INDF0, r0x02
000ABA 50??           03158         MOVF    r0x02, W
000ABC 12??           03159         IORWF   r0x04, F
000ABE C??? F???      03160         MOVFF   r0x00, FSR0L
000AC2 C??? F???      03161         MOVFF   r0x01, FSR0H
000AC6 C??? F???      03162         MOVFF   r0x04, INDF0
000ACA ????           03163         BANKSEL _SortServoTimings_numservos_1_32
                      03164 ;       .line   378; /home/vbasel/.icaro/v4/firmware/libraries/servos.c numservos++;
000ACC 2B??           03165         INCF    _SortServoTimings_numservos_1_32, F, B
                      03166 ;       .line   380; /home/vbasel/.icaro/v4/firmware/libraries/servos.c break;
000ACE D???           03167         BRA     _00418_DS_
000AD0                03168 _00396_DS_:
                      03169 ;       .line   385; /home/vbasel/.icaro/v4/firmware/libraries/servos.c if (mask[s] & mascaratotal[pE] &
                             activatedservos[pE]){
000AD0 0E??           03170         MOVLW   LOW(_mask)
000AD2 ????           03171         BANKSEL _SortServoTimings_s_1_32
000AD4 25??           03172         ADDWF   _SortServoTimings_s_1_32, W, B
000AD6 6E??           03173         MOVWF   r0x00
000AD8 6A??           03174         CLRF    r0x01
000ADA 0E??           03175         MOVLW   HIGH(_mask)
000ADC 22??           03176         ADDWFC  r0x01, F
000ADE 6A??           03177         CLRF    r0x02
000AE0 0E??           03178         MOVLW   UPPER(_mask)
000AE2 22??           03179         ADDWFC  r0x02, F
000AE4 C??? F???      03180         MOVFF   r0x00, TBLPTRL
000AE8 C??? F???      03181         MOVFF   r0x01, TBLPTRH
000AEC C??? F???      03182         MOVFF   r0x02, TBLPTRU
000AF0 0009           03183         TBLRD*+ 
000AF2 CFF5 F000      03184         MOVFF   TABLAT, r0x00
000AF6 ????           03185         BANKSEL (_mascaratotal + 4)
000AF8 51??           03186         MOVF    (_mascaratotal + 4), W, B
000AFA 16??           03187         ANDWF   r0x00, F
000AFC ????           03188         BANKSEL (_activatedservos + 4)
000AFE 51??           03189         MOVF    (_activatedservos + 4), W, B
000B00 16??           03190         ANDWF   r0x00, F
000B02 50??           03191         MOVF    r0x00, W
gpasm-1.4.2 #1169 (Aug  3 2017) /home/vbasel/   3-17-2018  14:24:43         PAGE 63


LOC    OBJECT CODE    LINE  SOURCE TEXT
  VALUE

000B04 A4D8           03192         BTFSS   STATUS, 2
000B06 D???           03193         BRA     _00418_DS_
                      03194 ;       .line   388; /home/vbasel/.icaro/v4/firmware/libraries/servos.c else if (servovalues[s] < timeva
                            lue[t]){
000B08 0E??           03195         MOVLW   LOW(_servovalues)
000B0A ????           03196         BANKSEL _SortServoTimings_s_1_32
000B0C 25??           03197         ADDWF   _SortServoTimings_s_1_32, W, B
000B0E 6E??           03198         MOVWF   r0x00
000B10 6A??           03199         CLRF    r0x01
000B12 0E??           03200         MOVLW   HIGH(_servovalues)
000B14 22??           03201         ADDWFC  r0x01, F
000B16 C??? F???      03202         MOVFF   r0x00, FSR0L
000B1A C??? F???      03203         MOVFF   r0x01, FSR0H
000B1E CFEF F000      03204         MOVFF   INDF0, r0x00
000B22 0E??           03205         MOVLW   LOW(_timevalue)
000B24 ????           03206         BANKSEL _SortServoTimings_t_1_32
000B26 25??           03207         ADDWF   _SortServoTimings_t_1_32, W, B
000B28 6E??           03208         MOVWF   r0x01
000B2A 6A??           03209         CLRF    r0x02
000B2C 0E??           03210         MOVLW   HIGH(_timevalue)
000B2E 22??           03211         ADDWFC  r0x02, F
000B30 C??? F???      03212         MOVFF   r0x01, FSR0L
000B34 C??? F???      03213         MOVFF   r0x02, FSR0H
000B38 CFEF F000      03214         MOVFF   INDF0, r0x01
000B3C 50??           03215         MOVF    r0x01, W
000B3E 5C??           03216         SUBWF   r0x00, W
000B40 B0D8           03217         BTFSC   STATUS, 0
000B42 D???           03218         BRA     _00400_DS_
                      03219 ;       .line   389; /home/vbasel/.icaro/v4/firmware/libraries/servos.c timevalue[t]=servovalues[s];
000B44 0E??           03220         MOVLW   LOW(_timevalue)
                      03221 ; removed redundant BANKSEL
000B46 25??           03222         ADDWF   _SortServoTimings_t_1_32, W, B
000B48 6E??           03223         MOVWF   r0x00
000B4A 6A??           03224         CLRF    r0x01
000B4C 0E??           03225         MOVLW   HIGH(_timevalue)
000B4E 22??           03226         ADDWFC  r0x01, F
000B50 0E??           03227         MOVLW   LOW(_servovalues)
000B52 ????           03228         BANKSEL _SortServoTimings_s_1_32
000B54 25??           03229         ADDWF   _SortServoTimings_s_1_32, W, B
000B56 6E??           03230         MOVWF   r0x02
000B58 6A??           03231         CLRF    r0x03
000B5A 0E??           03232         MOVLW   HIGH(_servovalues)
000B5C 22??           03233         ADDWFC  r0x03, F
000B5E C??? F???      03234         MOVFF   r0x02, FSR0L
000B62 C??? F???      03235         MOVFF   r0x03, FSR0H
000B66 CFEF F000      03236         MOVFF   INDF0, r0x02
000B6A C??? F???      03237         MOVFF   r0x00, FSR0L
000B6E C??? F???      03238         MOVFF   r0x01, FSR0H
000B72 C??? F???      03239         MOVFF   r0x02, INDF0
                      03240 ; ;multiply lit val:0x05 by variable _SortServoTimings_t_1_32 and store in r0x00
000B76 ????           03241         BANKSEL _SortServoTimings_t_1_32
                      03242 ;       .line   390; /home/vbasel/.icaro/v4/firmware/libraries/servos.c timings[t][pA]=0x00;
000B78 51??           03243         MOVF    _SortServoTimings_t_1_32, W, B
gpasm-1.4.2 #1169 (Aug  3 2017) /home/vbasel/   3-17-2018  14:24:43         PAGE 64


LOC    OBJECT CODE    LINE  SOURCE TEXT
  VALUE

000B7A 0D05           03244         MULLW   0x05
000B7C 50F4           03245         MOVF    PRODH, W
000B7E 6E??           03246         MOVWF   r0x01
000B80 CFF3 F000      03247         MOVFF   PRODL, r0x00
000B84 0E??           03248         MOVLW   LOW(_timings)
000B86 26??           03249         ADDWF   r0x00, F
000B88 0E??           03250         MOVLW   HIGH(_timings)
000B8A 22??           03251         ADDWFC  r0x01, F
000B8C C??? F???      03252         MOVFF   r0x00, FSR0L
000B90 C??? F???      03253         MOVFF   r0x01, FSR0H
000B94 6AEF           03254         CLRF    INDF0
                      03255 ; ;multiply lit val:0x05 by variable _SortServoTimings_t_1_32 and store in r0x00
                      03256 ; removed redundant BANKSEL
                      03257 ;       .line   391; /home/vbasel/.icaro/v4/firmware/libraries/servos.c timings[t][pB]=0x00;
000B96 51??           03258         MOVF    _SortServoTimings_t_1_32, W, B
000B98 0D05           03259         MULLW   0x05
000B9A 50F4           03260         MOVF    PRODH, W
000B9C 6E??           03261         MOVWF   r0x01
000B9E CFF3 F000      03262         MOVFF   PRODL, r0x00
000BA2 0E??           03263         MOVLW   LOW(_timings)
000BA4 26??           03264         ADDWF   r0x00, F
000BA6 0E??           03265         MOVLW   HIGH(_timings)
000BA8 22??           03266         ADDWFC  r0x01, F
000BAA 4A??           03267         INFSNZ  r0x00, F
000BAC 2A??           03268         INCF    r0x01, F
000BAE C??? F???      03269         MOVFF   r0x00, FSR0L
000BB2 C??? F???      03270         MOVFF   r0x01, FSR0H
000BB6 6AEF           03271         CLRF    INDF0
                      03272 ; ;multiply lit val:0x05 by variable _SortServoTimings_t_1_32 and store in r0x00
                      03273 ; removed redundant BANKSEL
                      03274 ;       .line   392; /home/vbasel/.icaro/v4/firmware/libraries/servos.c timings[t][pC]=0x00;
000BB8 51??           03275         MOVF    _SortServoTimings_t_1_32, W, B
000BBA 0D05           03276         MULLW   0x05
000BBC 50F4           03277         MOVF    PRODH, W
000BBE 6E??           03278         MOVWF   r0x01
000BC0 CFF3 F000      03279         MOVFF   PRODL, r0x00
000BC4 0E??           03280         MOVLW   LOW(_timings)
000BC6 26??           03281         ADDWF   r0x00, F
000BC8 0E??           03282         MOVLW   HIGH(_timings)
000BCA 22??           03283         ADDWFC  r0x01, F
000BCC 0E02           03284         MOVLW   0x02
000BCE 26??           03285         ADDWF   r0x00, F
000BD0 B0D8           03286         BTFSC   STATUS, 0
000BD2 2A??           03287         INCF    r0x01, F
000BD4 C??? F???      03288         MOVFF   r0x00, FSR0L
000BD8 C??? F???      03289         MOVFF   r0x01, FSR0H
000BDC 6AEF           03290         CLRF    INDF0
                      03291 ; ;multiply lit val:0x05 by variable _SortServoTimings_t_1_32 and store in r0x00
                      03292 ; removed redundant BANKSEL
                      03293 ;       .line   393; /home/vbasel/.icaro/v4/firmware/libraries/servos.c timings[t][pD]=0x00;
000BDE 51??           03294         MOVF    _SortServoTimings_t_1_32, W, B
000BE0 0D05           03295         MULLW   0x05
000BE2 50F4           03296         MOVF    PRODH, W
gpasm-1.4.2 #1169 (Aug  3 2017) /home/vbasel/   3-17-2018  14:24:43         PAGE 65


LOC    OBJECT CODE    LINE  SOURCE TEXT
  VALUE

000BE4 6E??           03297         MOVWF   r0x01
000BE6 CFF3 F000      03298         MOVFF   PRODL, r0x00
000BEA 0E??           03299         MOVLW   LOW(_timings)
000BEC 26??           03300         ADDWF   r0x00, F
000BEE 0E??           03301         MOVLW   HIGH(_timings)
000BF0 22??           03302         ADDWFC  r0x01, F
000BF2 0E03           03303         MOVLW   0x03
000BF4 26??           03304         ADDWF   r0x00, F
000BF6 B0D8           03305         BTFSC   STATUS, 0
000BF8 2A??           03306         INCF    r0x01, F
000BFA C??? F???      03307         MOVFF   r0x00, FSR0L
000BFE C??? F???      03308         MOVFF   r0x01, FSR0H
000C02 6AEF           03309         CLRF    INDF0
                      03310 ; ;multiply lit val:0x05 by variable _SortServoTimings_t_1_32 and store in r0x00
                      03311 ; removed redundant BANKSEL
                      03312 ;       .line   394; /home/vbasel/.icaro/v4/firmware/libraries/servos.c timings[t][pE]=mask[s];
000C04 51??           03313         MOVF    _SortServoTimings_t_1_32, W, B
000C06 0D05           03314         MULLW   0x05
000C08 50F4           03315         MOVF    PRODH, W
000C0A 6E??           03316         MOVWF   r0x01
000C0C CFF3 F000      03317         MOVFF   PRODL, r0x00
000C10 0E??           03318         MOVLW   LOW(_timings)
000C12 26??           03319         ADDWF   r0x00, F
000C14 0E??           03320         MOVLW   HIGH(_timings)
000C16 22??           03321         ADDWFC  r0x01, F
000C18 0E04           03322         MOVLW   0x04
000C1A 26??           03323         ADDWF   r0x00, F
000C1C B0D8           03324         BTFSC   STATUS, 0
000C1E 2A??           03325         INCF    r0x01, F
000C20 0E??           03326         MOVLW   LOW(_mask)
000C22 ????           03327         BANKSEL _SortServoTimings_s_1_32
000C24 25??           03328         ADDWF   _SortServoTimings_s_1_32, W, B
000C26 6E??           03329         MOVWF   r0x02
000C28 6A??           03330         CLRF    r0x03
000C2A 0E??           03331         MOVLW   HIGH(_mask)
000C2C 22??           03332         ADDWFC  r0x03, F
000C2E 6A??           03333         CLRF    r0x04
000C30 0E??           03334         MOVLW   UPPER(_mask)
000C32 22??           03335         ADDWFC  r0x04, F
000C34 C??? F???      03336         MOVFF   r0x02, TBLPTRL
000C38 C??? F???      03337         MOVFF   r0x03, TBLPTRH
000C3C C??? F???      03338         MOVFF   r0x04, TBLPTRU
000C40 0009           03339         TBLRD*+ 
000C42 CFF5 F000      03340         MOVFF   TABLAT, r0x02
000C46 C??? F???      03341         MOVFF   r0x00, FSR0L
000C4A C??? F???      03342         MOVFF   r0x01, FSR0H
000C4E C??? F???      03343         MOVFF   r0x02, INDF0
                      03344 ;       .line   395; /home/vbasel/.icaro/v4/firmware/libraries/servos.c numservos=1;
000C52 0E01           03345         MOVLW   0x01
000C54 ????           03346         BANKSEL _SortServoTimings_numservos_1_32
000C56 6F??           03347         MOVWF   _SortServoTimings_numservos_1_32, B
000C58 D???           03348         BRA     _00418_DS_
000C5A                03349 _00400_DS_:
gpasm-1.4.2 #1169 (Aug  3 2017) /home/vbasel/   3-17-2018  14:24:43         PAGE 66


LOC    OBJECT CODE    LINE  SOURCE TEXT
  VALUE

                      03350 ;       .line   397; /home/vbasel/.icaro/v4/firmware/libraries/servos.c else if (servovalues[s] == timev
                            alue[t]){
000C5A 0E??           03351         MOVLW   LOW(_servovalues)
000C5C ????           03352         BANKSEL _SortServoTimings_s_1_32
000C5E 25??           03353         ADDWF   _SortServoTimings_s_1_32, W, B
000C60 6E??           03354         MOVWF   r0x00
000C62 6A??           03355         CLRF    r0x01
000C64 0E??           03356         MOVLW   HIGH(_servovalues)
000C66 22??           03357         ADDWFC  r0x01, F
000C68 C??? F???      03358         MOVFF   r0x00, FSR0L
000C6C C??? F???      03359         MOVFF   r0x01, FSR0H
000C70 CFEF F000      03360         MOVFF   INDF0, r0x00
000C74 0E??           03361         MOVLW   LOW(_timevalue)
000C76 ????           03362         BANKSEL _SortServoTimings_t_1_32
000C78 25??           03363         ADDWF   _SortServoTimings_t_1_32, W, B
000C7A 6E??           03364         MOVWF   r0x01
000C7C 6A??           03365         CLRF    r0x02
000C7E 0E??           03366         MOVLW   HIGH(_timevalue)
000C80 22??           03367         ADDWFC  r0x02, F
000C82 C??? F???      03368         MOVFF   r0x01, FSR0L
000C86 C??? F???      03369         MOVFF   r0x02, FSR0H
000C8A CFEF F000      03370         MOVFF   INDF0, r0x01
000C8E 50??           03371         MOVF    r0x00, W
000C90 18??           03372         XORWF   r0x01, W
000C92 E0??           03373         BZ      _00522_DS_
000C94 D???           03374         BRA     _00418_DS_
                      03375 ; ;multiply lit val:0x05 by variable _SortServoTimings_t_1_32 and store in r0x00
000C96                03376 _00522_DS_:
000C96 ????           03377         BANKSEL _SortServoTimings_t_1_32
                      03378 ;       .line   398; /home/vbasel/.icaro/v4/firmware/libraries/servos.c timings[t][pE] |= mask[s];
000C98 51??           03379         MOVF    _SortServoTimings_t_1_32, W, B
000C9A 0D05           03380         MULLW   0x05
000C9C 50F4           03381         MOVF    PRODH, W
000C9E 6E??           03382         MOVWF   r0x01
000CA0 CFF3 F000      03383         MOVFF   PRODL, r0x00
000CA4 0E??           03384         MOVLW   LOW(_timings)
000CA6 26??           03385         ADDWF   r0x00, F
000CA8 0E??           03386         MOVLW   HIGH(_timings)
000CAA 22??           03387         ADDWFC  r0x01, F
000CAC 0E04           03388         MOVLW   0x04
000CAE 26??           03389         ADDWF   r0x00, F
000CB0 B0D8           03390         BTFSC   STATUS, 0
000CB2 2A??           03391         INCF    r0x01, F
                      03392 ; ;multiply lit val:0x05 by variable _SortServoTimings_t_1_32 and store in r0x02
                      03393 ; removed redundant BANKSEL
000CB4 51??           03394         MOVF    _SortServoTimings_t_1_32, W, B
000CB6 0D05           03395         MULLW   0x05
000CB8 50F4           03396         MOVF    PRODH, W
000CBA 6E??           03397         MOVWF   r0x03
000CBC CFF3 F000      03398         MOVFF   PRODL, r0x02
000CC0 0E??           03399         MOVLW   LOW(_timings)
000CC2 26??           03400         ADDWF   r0x02, F
000CC4 0E??           03401         MOVLW   HIGH(_timings)
gpasm-1.4.2 #1169 (Aug  3 2017) /home/vbasel/   3-17-2018  14:24:43         PAGE 67


LOC    OBJECT CODE    LINE  SOURCE TEXT
  VALUE

000CC6 22??           03402         ADDWFC  r0x03, F
000CC8 0E04           03403         MOVLW   0x04
000CCA 26??           03404         ADDWF   r0x02, F
000CCC B0D8           03405         BTFSC   STATUS, 0
000CCE 2A??           03406         INCF    r0x03, F
000CD0 0E??           03407         MOVLW   LOW(_mask)
000CD2 ????           03408         BANKSEL _SortServoTimings_s_1_32
000CD4 25??           03409         ADDWF   _SortServoTimings_s_1_32, W, B
000CD6 6E??           03410         MOVWF   r0x04
000CD8 6A??           03411         CLRF    r0x05
000CDA 0E??           03412         MOVLW   HIGH(_mask)
000CDC 22??           03413         ADDWFC  r0x05, F
000CDE 6A??           03414         CLRF    r0x06
000CE0 0E??           03415         MOVLW   UPPER(_mask)
000CE2 22??           03416         ADDWFC  r0x06, F
000CE4 C??? F???      03417         MOVFF   r0x04, TBLPTRL
000CE8 C??? F???      03418         MOVFF   r0x05, TBLPTRH
000CEC C??? F???      03419         MOVFF   r0x06, TBLPTRU
000CF0 0009           03420         TBLRD*+ 
000CF2 CFF5 F000      03421         MOVFF   TABLAT, r0x04
000CF6 C??? F???      03422         MOVFF   r0x02, FSR0L
000CFA C??? F???      03423         MOVFF   r0x03, FSR0H
000CFE CFEF F000      03424         MOVFF   INDF0, r0x02
000D02 50??           03425         MOVF    r0x02, W
000D04 12??           03426         IORWF   r0x04, F
000D06 C??? F???      03427         MOVFF   r0x00, FSR0L
000D0A C??? F???      03428         MOVFF   r0x01, FSR0H
000D0E C??? F???      03429         MOVFF   r0x04, INDF0
000D12 ????           03430         BANKSEL _SortServoTimings_numservos_1_32
                      03431 ;       .line   399; /home/vbasel/.icaro/v4/firmware/libraries/servos.c numservos++;
000D14 2B??           03432         INCF    _SortServoTimings_numservos_1_32, F, B
000D16                03433 _00418_DS_:
000D16 ????           03434         BANKSEL _SortServoTimings_s_1_32
                      03435 ;       .line   280; /home/vbasel/.icaro/v4/firmware/libraries/servos.c for(s=0;s<TotalPICpins;s++)
000D18 2B??           03436         INCF    _SortServoTimings_s_1_32, F, B
000D1A EF?? F0??      03437         GOTO    _00417_DS_
                      03438 ; ;multiply lit val:0x05 by variable _SortServoTimings_t_1_32 and store in r0x00
000D1E                03439 _00406_DS_:
000D1E ????           03440         BANKSEL _SortServoTimings_t_1_32
                      03441 ;       .line   405; /home/vbasel/.icaro/v4/firmware/libraries/servos.c mascaratotal[pA] |= timings[t][p
                            A];
000D20 51??           03442         MOVF    _SortServoTimings_t_1_32, W, B
000D22 0D05           03443         MULLW   0x05
000D24 50F4           03444         MOVF    PRODH, W
000D26 6E??           03445         MOVWF   r0x01
000D28 CFF3 F000      03446         MOVFF   PRODL, r0x00
000D2C 0E??           03447         MOVLW   LOW(_timings)
000D2E 26??           03448         ADDWF   r0x00, F
000D30 0E??           03449         MOVLW   HIGH(_timings)
000D32 22??           03450         ADDWFC  r0x01, F
000D34 C??? F???      03451         MOVFF   r0x00, FSR0L
000D38 C??? F???      03452         MOVFF   r0x01, FSR0H
000D3C CFEF F000      03453         MOVFF   INDF0, r0x00
gpasm-1.4.2 #1169 (Aug  3 2017) /home/vbasel/   3-17-2018  14:24:43         PAGE 68


LOC    OBJECT CODE    LINE  SOURCE TEXT
  VALUE

000D40 ????           03454         BANKSEL _mascaratotal
000D42 51??           03455         MOVF    _mascaratotal, W, B
000D44 12??           03456         IORWF   r0x00, F
000D46 50??           03457         MOVF    r0x00, W
                      03458 ; removed redundant BANKSEL
000D48 6F??           03459         MOVWF   _mascaratotal, B
                      03460 ; ;multiply lit val:0x05 by variable _SortServoTimings_t_1_32 and store in r0x00
000D4A ????           03461         BANKSEL _SortServoTimings_t_1_32
                      03462 ;       .line   406; /home/vbasel/.icaro/v4/firmware/libraries/servos.c mascaratotal[pB] |= timings[t][p
                            B];
000D4C 51??           03463         MOVF    _SortServoTimings_t_1_32, W, B
000D4E 0D05           03464         MULLW   0x05
000D50 50F4           03465         MOVF    PRODH, W
000D52 6E??           03466         MOVWF   r0x01
000D54 CFF3 F000      03467         MOVFF   PRODL, r0x00
000D58 0E??           03468         MOVLW   LOW(_timings)
000D5A 26??           03469         ADDWF   r0x00, F
000D5C 0E??           03470         MOVLW   HIGH(_timings)
000D5E 22??           03471         ADDWFC  r0x01, F
000D60 4A??           03472         INFSNZ  r0x00, F
000D62 2A??           03473         INCF    r0x01, F
000D64 C??? F???      03474         MOVFF   r0x00, FSR0L
000D68 C??? F???      03475         MOVFF   r0x01, FSR0H
000D6C CFEF F000      03476         MOVFF   INDF0, r0x00
000D70 ????           03477         BANKSEL (_mascaratotal + 1)
000D72 51??           03478         MOVF    (_mascaratotal + 1), W, B
000D74 12??           03479         IORWF   r0x00, F
000D76 50??           03480         MOVF    r0x00, W
                      03481 ; removed redundant BANKSEL
000D78 6F??           03482         MOVWF   (_mascaratotal + 1), B
                      03483 ; ;multiply lit val:0x05 by variable _SortServoTimings_t_1_32 and store in r0x00
000D7A ????           03484         BANKSEL _SortServoTimings_t_1_32
                      03485 ;       .line   408; /home/vbasel/.icaro/v4/firmware/libraries/servos.c mascaratotal[pC] |= timings[t][p
                            C];
000D7C 51??           03486         MOVF    _SortServoTimings_t_1_32, W, B
000D7E 0D05           03487         MULLW   0x05
000D80 50F4           03488         MOVF    PRODH, W
000D82 6E??           03489         MOVWF   r0x01
000D84 CFF3 F000      03490         MOVFF   PRODL, r0x00
000D88 0E??           03491         MOVLW   LOW(_timings)
000D8A 26??           03492         ADDWF   r0x00, F
000D8C 0E??           03493         MOVLW   HIGH(_timings)
000D8E 22??           03494         ADDWFC  r0x01, F
000D90 0E02           03495         MOVLW   0x02
000D92 26??           03496         ADDWF   r0x00, F
000D94 B0D8           03497         BTFSC   STATUS, 0
000D96 2A??           03498         INCF    r0x01, F
000D98 C??? F???      03499         MOVFF   r0x00, FSR0L
000D9C C??? F???      03500         MOVFF   r0x01, FSR0H
000DA0 CFEF F000      03501         MOVFF   INDF0, r0x00
000DA4 ????           03502         BANKSEL (_mascaratotal + 2)
000DA6 51??           03503         MOVF    (_mascaratotal + 2), W, B
000DA8 12??           03504         IORWF   r0x00, F
gpasm-1.4.2 #1169 (Aug  3 2017) /home/vbasel/   3-17-2018  14:24:43         PAGE 69


LOC    OBJECT CODE    LINE  SOURCE TEXT
  VALUE

000DAA 50??           03505         MOVF    r0x00, W
                      03506 ; removed redundant BANKSEL
000DAC 6F??           03507         MOVWF   (_mascaratotal + 2), B
                      03508 ; ;multiply lit val:0x05 by variable _SortServoTimings_t_1_32 and store in r0x00
000DAE ????           03509         BANKSEL _SortServoTimings_t_1_32
                      03510 ;       .line   411; /home/vbasel/.icaro/v4/firmware/libraries/servos.c mascaratotal[pD] |= timings[t][p
                            D];
000DB0 51??           03511         MOVF    _SortServoTimings_t_1_32, W, B
000DB2 0D05           03512         MULLW   0x05
000DB4 50F4           03513         MOVF    PRODH, W
000DB6 6E??           03514         MOVWF   r0x01
000DB8 CFF3 F000      03515         MOVFF   PRODL, r0x00
000DBC 0E??           03516         MOVLW   LOW(_timings)
000DBE 26??           03517         ADDWF   r0x00, F
000DC0 0E??           03518         MOVLW   HIGH(_timings)
000DC2 22??           03519         ADDWFC  r0x01, F
000DC4 0E03           03520         MOVLW   0x03
000DC6 26??           03521         ADDWF   r0x00, F
000DC8 B0D8           03522         BTFSC   STATUS, 0
000DCA 2A??           03523         INCF    r0x01, F
000DCC C??? F???      03524         MOVFF   r0x00, FSR0L
000DD0 C??? F???      03525         MOVFF   r0x01, FSR0H
000DD4 CFEF F000      03526         MOVFF   INDF0, r0x00
000DD8 ????           03527         BANKSEL (_mascaratotal + 3)
000DDA 51??           03528         MOVF    (_mascaratotal + 3), W, B
000DDC 12??           03529         IORWF   r0x00, F
000DDE 50??           03530         MOVF    r0x00, W
                      03531 ; removed redundant BANKSEL
000DE0 6F??           03532         MOVWF   (_mascaratotal + 3), B
                      03533 ; ;multiply lit val:0x05 by variable _SortServoTimings_t_1_32 and store in r0x00
000DE2 ????           03534         BANKSEL _SortServoTimings_t_1_32
                      03535 ;       .line   414; /home/vbasel/.icaro/v4/firmware/libraries/servos.c mascaratotal[pE] |= timings[t][p
                            E];
000DE4 51??           03536         MOVF    _SortServoTimings_t_1_32, W, B
000DE6 0D05           03537         MULLW   0x05
000DE8 50F4           03538         MOVF    PRODH, W
000DEA 6E??           03539         MOVWF   r0x01
000DEC CFF3 F000      03540         MOVFF   PRODL, r0x00
000DF0 0E??           03541         MOVLW   LOW(_timings)
000DF2 26??           03542         ADDWF   r0x00, F
000DF4 0E??           03543         MOVLW   HIGH(_timings)
000DF6 22??           03544         ADDWFC  r0x01, F
000DF8 0E04           03545         MOVLW   0x04
000DFA 26??           03546         ADDWF   r0x00, F
000DFC B0D8           03547         BTFSC   STATUS, 0
000DFE 2A??           03548         INCF    r0x01, F
000E00 C??? F???      03549         MOVFF   r0x00, FSR0L
000E04 C??? F???      03550         MOVFF   r0x01, FSR0H
000E08 CFEF F000      03551         MOVFF   INDF0, r0x00
000E0C ????           03552         BANKSEL (_mascaratotal + 4)
000E0E 51??           03553         MOVF    (_mascaratotal + 4), W, B
000E10 12??           03554         IORWF   r0x00, F
000E12 50??           03555         MOVF    r0x00, W
gpasm-1.4.2 #1169 (Aug  3 2017) /home/vbasel/   3-17-2018  14:24:43         PAGE 70


LOC    OBJECT CODE    LINE  SOURCE TEXT
  VALUE

                      03556 ; removed redundant BANKSEL
000E14 6F??           03557         MOVWF   (_mascaratotal + 4), B
000E16 ????           03558         BANKSEL _SortServoTimings_numservos_1_32
                      03559 ;       .line   417; /home/vbasel/.icaro/v4/firmware/libraries/servos.c totalservos += numservos;
000E18 51??           03560         MOVF    _SortServoTimings_numservos_1_32, W, B
000E1A ????           03561         BANKSEL _SortServoTimings_totalservos_1_32
000E1C 27??           03562         ADDWF   _SortServoTimings_totalservos_1_32, F, B
000E1E ????           03563         BANKSEL _SortServoTimings_t_1_32
                      03564 ;       .line   418; /home/vbasel/.icaro/v4/firmware/libraries/servos.c t++;
000E20 2B??           03565         INCF    _SortServoTimings_t_1_32, F, B
000E22 EF?? F0??      03566         GOTO    _00407_DS_
000E26                03567 _00409_DS_:
000E26 ????           03568         BANKSEL _needreordering
                      03569 ;       .line   421; /home/vbasel/.icaro/v4/firmware/libraries/servos.c needreordering=0;  // This indic
                            ates that servo timings are sorted.
000E28 6B??           03570         CLRF    _needreordering, B
000E2A CFE4 F000      03571         MOVFF   PREINC1, r0x06
000E2E CFE4 F000      03572         MOVFF   PREINC1, r0x05
000E32 CFE4 F000      03573         MOVFF   PREINC1, r0x04
000E36 CFE4 F000      03574         MOVFF   PREINC1, r0x03
000E3A CFE4 F000      03575         MOVFF   PREINC1, r0x02
000E3E CFE4 F000      03576         MOVFF   PREINC1, r0x01
000E42 CFE4 F000      03577         MOVFF   PREINC1, r0x00
000E46 0012           03578         RETURN  
                      03579 
                      03580 ; ; Starting pCode block
                      03581 S_main__ServosPulseUp   code
000000                03582 _ServosPulseUp:
000000 ????           03583         BANKSEL _activatedservos
                      03584 ;       .line   232; /home/vbasel/.icaro/v4/firmware/libraries/servos.c PORTA = PORTA | activatedservos[
                            pA];
000002 51??           03585         MOVF    _activatedservos, W, B
000004 12??           03586         IORWF   _PORTA, F
                      03587 ; removed redundant BANKSEL
                      03588 ;       .line   233; /home/vbasel/.icaro/v4/firmware/libraries/servos.c PORTB = PORTB | activatedservos[
                            pB];
000006 51??           03589         MOVF    (_activatedservos + 1), W, B
000008 12??           03590         IORWF   _PORTB, F
                      03591 ; removed redundant BANKSEL
                      03592 ;       .line   235; /home/vbasel/.icaro/v4/firmware/libraries/servos.c PORTC = PORTC | activatedservos[
                            pC];
00000A 51??           03593         MOVF    (_activatedservos + 2), W, B
00000C 12??           03594         IORWF   _PORTC, F
                      03595 ; removed redundant BANKSEL
                      03596 ;       .line   238; /home/vbasel/.icaro/v4/firmware/libraries/servos.c PORTD = PORTD | activatedservos[
                            pD];
00000E 51??           03597         MOVF    (_activatedservos + 3), W, B
000010 12??           03598         IORWF   _PORTD, F
                      03599 ; removed redundant BANKSEL
                      03600 ;       .line   241; /home/vbasel/.icaro/v4/firmware/libraries/servos.c PORTE = PORTE | activatedservos[
                            pE];
000012 51??           03601         MOVF    (_activatedservos + 4), W, B
000014 12??           03602         IORWF   _PORTE, F
gpasm-1.4.2 #1169 (Aug  3 2017) /home/vbasel/   3-17-2018  14:24:43         PAGE 71


LOC    OBJECT CODE    LINE  SOURCE TEXT
  VALUE

000016 0012           03603         RETURN  
                      03604 
                      03605 ; ; Starting pCode block
                      03606 S_main__ServosPulseDown code
000000                03607 _ServosPulseDown:
                      03608 ;       .line   185; /home/vbasel/.icaro/v4/firmware/libraries/servos.c static void ServosPulseDown()
000000 CFD9 FFE5      03609         MOVFF   FSR2L, POSTDEC1
000004 CFE1 FFD9      03610         MOVFF   FSR1L, FSR2L
000008 C??? F???      03611         MOVFF   r0x00, POSTDEC1
00000C C??? F???      03612         MOVFF   r0x01, POSTDEC1
000010 ????           03613         BANKSEL _ServosPulseDown_timingindex_1_28
                      03614 ;       .line   187; /home/vbasel/.icaro/v4/firmware/libraries/servos.c volatile unsigned char timingind
                            ex = 0;
000012 6B??           03615         CLRF    _ServosPulseDown_timingindex_1_28, B
000014 ????           03616         BANKSEL _timedivision
                      03617 ;       .line   189; /home/vbasel/.icaro/v4/firmware/libraries/servos.c for(timedivision=0;timedivision 
                            < 251;timedivision++)
000016 6B??           03618         CLRF    _timedivision, B
000018                03619 _00331_DS_:
                      03620 ;       .line   191; /home/vbasel/.icaro/v4/firmware/libraries/servos.c if (timevalue[timingindex] == ti
                            medivision)
000018 0E??           03621         MOVLW   LOW(_timevalue)
00001A ????           03622         BANKSEL _ServosPulseDown_timingindex_1_28
00001C 25??           03623         ADDWF   _ServosPulseDown_timingindex_1_28, W, B
00001E 6E??           03624         MOVWF   r0x00
000020 6A??           03625         CLRF    r0x01
000022 0E??           03626         MOVLW   HIGH(_timevalue)
000024 22??           03627         ADDWFC  r0x01, F
000026 C??? F???      03628         MOVFF   r0x00, FSR0L
00002A C??? F???      03629         MOVFF   r0x01, FSR0H
00002E CFEF F000      03630         MOVFF   INDF0, r0x00
000032 50??           03631         MOVF    r0x00, W
000034 ????           03632         BANKSEL _timedivision
000036 19??           03633         XORWF   _timedivision, W, B
000038 E0??           03634         BZ      _00342_DS_
00003A D???           03635         BRA     _00329_DS_
                      03636 ; ;multiply lit val:0x05 by variable _ServosPulseDown_timingindex_1_28 and store in r0x00
00003C                03637 _00342_DS_:
00003C ????           03638         BANKSEL _ServosPulseDown_timingindex_1_28
                      03639 ;       .line   193; /home/vbasel/.icaro/v4/firmware/libraries/servos.c PORTA = PORTA ^ timings[timingin
                            dex][pA];
00003E 51??           03640         MOVF    _ServosPulseDown_timingindex_1_28, W, B
000040 0D05           03641         MULLW   0x05
000042 50F4           03642         MOVF    PRODH, W
000044 6E??           03643         MOVWF   r0x01
000046 CFF3 F000      03644         MOVFF   PRODL, r0x00
00004A 0E??           03645         MOVLW   LOW(_timings)
00004C 26??           03646         ADDWF   r0x00, F
00004E 0E??           03647         MOVLW   HIGH(_timings)
000050 22??           03648         ADDWFC  r0x01, F
000052 C??? F???      03649         MOVFF   r0x00, FSR0L
000056 C??? F???      03650         MOVFF   r0x01, FSR0H
00005A CFEF F000      03651         MOVFF   INDF0, r0x00
gpasm-1.4.2 #1169 (Aug  3 2017) /home/vbasel/   3-17-2018  14:24:43         PAGE 72


LOC    OBJECT CODE    LINE  SOURCE TEXT
  VALUE

00005E 50??           03652         MOVF    r0x00, W
000060 1A??           03653         XORWF   _PORTA, F
                      03654 ; ;multiply lit val:0x05 by variable _ServosPulseDown_timingindex_1_28 and store in r0x00
                      03655 ; removed redundant BANKSEL
                      03656 ;       .line   194; /home/vbasel/.icaro/v4/firmware/libraries/servos.c PORTB = PORTB ^ timings[timingin
                            dex][pB];
000062 51??           03657         MOVF    _ServosPulseDown_timingindex_1_28, W, B
000064 0D05           03658         MULLW   0x05
000066 50F4           03659         MOVF    PRODH, W
000068 6E??           03660         MOVWF   r0x01
00006A CFF3 F000      03661         MOVFF   PRODL, r0x00
00006E 0E??           03662         MOVLW   LOW(_timings)
000070 26??           03663         ADDWF   r0x00, F
000072 0E??           03664         MOVLW   HIGH(_timings)
000074 22??           03665         ADDWFC  r0x01, F
000076 4A??           03666         INFSNZ  r0x00, F
000078 2A??           03667         INCF    r0x01, F
00007A C??? F???      03668         MOVFF   r0x00, FSR0L
00007E C??? F???      03669         MOVFF   r0x01, FSR0H
000082 CFEF F000      03670         MOVFF   INDF0, r0x00
000086 50??           03671         MOVF    r0x00, W
000088 1A??           03672         XORWF   _PORTB, F
                      03673 ; ;multiply lit val:0x05 by variable _ServosPulseDown_timingindex_1_28 and store in r0x00
                      03674 ; removed redundant BANKSEL
                      03675 ;       .line   196; /home/vbasel/.icaro/v4/firmware/libraries/servos.c PORTC = PORTC ^ timings[timingin
                            dex][pC];
00008A 51??           03676         MOVF    _ServosPulseDown_timingindex_1_28, W, B
00008C 0D05           03677         MULLW   0x05
00008E 50F4           03678         MOVF    PRODH, W
000090 6E??           03679         MOVWF   r0x01
000092 CFF3 F000      03680         MOVFF   PRODL, r0x00
000096 0E??           03681         MOVLW   LOW(_timings)
000098 26??           03682         ADDWF   r0x00, F
00009A 0E??           03683         MOVLW   HIGH(_timings)
00009C 22??           03684         ADDWFC  r0x01, F
00009E 0E02           03685         MOVLW   0x02
0000A0 26??           03686         ADDWF   r0x00, F
0000A2 B0D8           03687         BTFSC   STATUS, 0
0000A4 2A??           03688         INCF    r0x01, F
0000A6 C??? F???      03689         MOVFF   r0x00, FSR0L
0000AA C??? F???      03690         MOVFF   r0x01, FSR0H
0000AE CFEF F000      03691         MOVFF   INDF0, r0x00
0000B2 50??           03692         MOVF    r0x00, W
0000B4 1A??           03693         XORWF   _PORTC, F
                      03694 ; ;multiply lit val:0x05 by variable _ServosPulseDown_timingindex_1_28 and store in r0x00
                      03695 ; removed redundant BANKSEL
                      03696 ;       .line   199; /home/vbasel/.icaro/v4/firmware/libraries/servos.c PORTD = PORTD ^ timings[timingin
                            dex][pD];
0000B6 51??           03697         MOVF    _ServosPulseDown_timingindex_1_28, W, B
0000B8 0D05           03698         MULLW   0x05
0000BA 50F4           03699         MOVF    PRODH, W
0000BC 6E??           03700         MOVWF   r0x01
0000BE CFF3 F000      03701         MOVFF   PRODL, r0x00
gpasm-1.4.2 #1169 (Aug  3 2017) /home/vbasel/   3-17-2018  14:24:43         PAGE 73


LOC    OBJECT CODE    LINE  SOURCE TEXT
  VALUE

0000C2 0E??           03702         MOVLW   LOW(_timings)
0000C4 26??           03703         ADDWF   r0x00, F
0000C6 0E??           03704         MOVLW   HIGH(_timings)
0000C8 22??           03705         ADDWFC  r0x01, F
0000CA 0E03           03706         MOVLW   0x03
0000CC 26??           03707         ADDWF   r0x00, F
0000CE B0D8           03708         BTFSC   STATUS, 0
0000D0 2A??           03709         INCF    r0x01, F
0000D2 C??? F???      03710         MOVFF   r0x00, FSR0L
0000D6 C??? F???      03711         MOVFF   r0x01, FSR0H
0000DA CFEF F000      03712         MOVFF   INDF0, r0x00
0000DE 50??           03713         MOVF    r0x00, W
0000E0 1A??           03714         XORWF   _PORTD, F
                      03715 ; ;multiply lit val:0x05 by variable _ServosPulseDown_timingindex_1_28 and store in r0x00
                      03716 ; removed redundant BANKSEL
                      03717 ;       .line   202; /home/vbasel/.icaro/v4/firmware/libraries/servos.c PORTE = PORTE ^ timings[timingin
                            dex][pE];
0000E2 51??           03718         MOVF    _ServosPulseDown_timingindex_1_28, W, B
0000E4 0D05           03719         MULLW   0x05
0000E6 50F4           03720         MOVF    PRODH, W
0000E8 6E??           03721         MOVWF   r0x01
0000EA CFF3 F000      03722         MOVFF   PRODL, r0x00
0000EE 0E??           03723         MOVLW   LOW(_timings)
0000F0 26??           03724         ADDWF   r0x00, F
0000F2 0E??           03725         MOVLW   HIGH(_timings)
0000F4 22??           03726         ADDWFC  r0x01, F
0000F6 0E04           03727         MOVLW   0x04
0000F8 26??           03728         ADDWF   r0x00, F
0000FA B0D8           03729         BTFSC   STATUS, 0
0000FC 2A??           03730         INCF    r0x01, F
0000FE C??? F???      03731         MOVFF   r0x00, FSR0L
000102 C??? F???      03732         MOVFF   r0x01, FSR0H
000106 CFEF F000      03733         MOVFF   INDF0, r0x00
00010A 50??           03734         MOVF    r0x00, W
00010C 1A??           03735         XORWF   _PORTE, F
                      03736 ; removed redundant BANKSEL
                      03737 ;       .line   204; /home/vbasel/.icaro/v4/firmware/libraries/servos.c timingindex++;
00010E 2B??           03738         INCF    _ServosPulseDown_timingindex_1_28, F, B
000110                03739 _00329_DS_:
000110 0E07           03740         movlw   7
000112 6E??           03741         movwf   _loopvar
000114                03742 bucle:
000114 0000           03743         NOP
000116 0000           03744         NOP
000118 0000           03745         NOP
00011A 0000           03746         NOP
00011C 0000           03747         NOP
00011E 0000           03748         NOP
000120 0000           03749         NOP
000122 0000           03750         NOP
000124 0000           03751         NOP
000126 0000           03752         NOP
000128 0000           03753         NOP
gpasm-1.4.2 #1169 (Aug  3 2017) /home/vbasel/   3-17-2018  14:24:43         PAGE 74


LOC    OBJECT CODE    LINE  SOURCE TEXT
  VALUE

00012A 2E??           03754         decfsz  _loopvar,1
00012C EF?? F0??      03755         goto    bucle
                      03756         
000130 ????           03757         BANKSEL _timedivision
                      03758 ;       .line   189; /home/vbasel/.icaro/v4/firmware/libraries/servos.c for(timedivision=0;timedivision 
                            < 251;timedivision++)
000132 2B??           03759         INCF    _timedivision, F, B
000134 0EFB           03760         MOVLW   0xfb
                      03761 ; removed redundant BANKSEL
000136 5D??           03762         SUBWF   _timedivision, W, B
000138 A0D8           03763         BTFSS   STATUS, 0
00013A D???           03764         BRA     _00331_DS_
00013C CFE4 F000      03765         MOVFF   PREINC1, r0x01
000140 CFE4 F000      03766         MOVFF   PREINC1, r0x00
000144 CFE4 FFD9      03767         MOVFF   PREINC1, FSR2L
000148 0012           03768         RETURN  
                      03769 
                      03770 ; ; Starting pCode block
                      03771 S_main__servos_init     code
000000                03772 _servos_init:
                      03773 ;       .line   152; /home/vbasel/.icaro/v4/firmware/libraries/servos.c void servos_init()
000000 C??? F???      03774         MOVFF   r0x00, POSTDEC1
000004 C??? F???      03775         MOVFF   r0x01, POSTDEC1
000008 C??? F???      03776         MOVFF   r0x02, POSTDEC1
                      03777 ;       .line   157; /home/vbasel/.icaro/v4/firmware/libraries/servos.c for(a=0;a<TotalPICpins;a++)
00000C 6A??           03778         CLRF    r0x00
00000E                03779 _00302_DS_:
                      03780 ;       .line   159; /home/vbasel/.icaro/v4/firmware/libraries/servos.c servovalues[a]=255;  //Filling u
                            p the servovalues table to 255.
00000E 0E??           03781         MOVLW   LOW(_servovalues)
000010 24??           03782         ADDWF   r0x00, W
000012 6E??           03783         MOVWF   r0x01
000014 6A??           03784         CLRF    r0x02
000016 0E??           03785         MOVLW   HIGH(_servovalues)
000018 22??           03786         ADDWFC  r0x02, F
00001A C??? F???      03787         MOVFF   r0x01, FSR0L
00001E C??? F???      03788         MOVFF   r0x02, FSR0H
000022 68EF           03789         SETF    INDF0
                      03790 ;       .line   160; /home/vbasel/.icaro/v4/firmware/libraries/servos.c maxminpos[0][a]= DefaultSERVOMIN
                            ; // Setting min servo position to 1000 usec.
000024 0E??           03791         MOVLW   LOW(_maxminpos)
000026 24??           03792         ADDWF   r0x00, W
000028 6E??           03793         MOVWF   r0x01
00002A 6A??           03794         CLRF    r0x02
00002C 0E??           03795         MOVLW   HIGH(_maxminpos)
00002E 22??           03796         ADDWFC  r0x02, F
000030 C??? F???      03797         MOVFF   r0x01, FSR0L
000034 C??? F???      03798         MOVFF   r0x02, FSR0H
000038 0E40           03799         MOVLW   0x40
00003A 6EEF           03800         MOVWF   INDF0
                      03801 ;       .line   161; /home/vbasel/.icaro/v4/firmware/libraries/servos.c maxminpos[1][a]= DefaultSERVOMAX
                            ; // Setting max servo position to 2000 usec.
00003C 0E??           03802         MOVLW   LOW(_maxminpos + 30)
gpasm-1.4.2 #1169 (Aug  3 2017) /home/vbasel/   3-17-2018  14:24:43         PAGE 75


LOC    OBJECT CODE    LINE  SOURCE TEXT
  VALUE

00003E 24??           03803         ADDWF   r0x00, W
000040 6E??           03804         MOVWF   r0x01
000042 6A??           03805         CLRF    r0x02
000044 0E??           03806         MOVLW   HIGH(_maxminpos + 30)
000046 22??           03807         ADDWFC  r0x02, F
000048 C??? F???      03808         MOVFF   r0x01, FSR0L
00004C C??? F???      03809         MOVFF   r0x02, FSR0H
000050 0EC0           03810         MOVLW   0xc0
000052 6EEF           03811         MOVWF   INDF0
                      03812 ;       .line   157; /home/vbasel/.icaro/v4/firmware/libraries/servos.c for(a=0;a<TotalPICpins;a++)
000054 2A??           03813         INCF    r0x00, F
000056 0E1E           03814         MOVLW   0x1e
000058 5C??           03815         SUBWF   r0x00, W
00005A E3??           03816         BNC     _00302_DS_
                      03817 ;       .line   165; /home/vbasel/.icaro/v4/firmware/libraries/servos.c for(a=0;a<TotalPICports;a++)
00005C 6A??           03818         CLRF    r0x00
00005E                03819 _00304_DS_:
                      03820 ;       .line   166; /home/vbasel/.icaro/v4/firmware/libraries/servos.c activatedservos[a]=0x00;  // Set
                            ting all pins as deactivated as servo.
00005E 0E??           03821         MOVLW   LOW(_activatedservos)
000060 24??           03822         ADDWF   r0x00, W
000062 6E??           03823         MOVWF   r0x01
000064 6A??           03824         CLRF    r0x02
000066 0E??           03825         MOVLW   HIGH(_activatedservos)
000068 22??           03826         ADDWFC  r0x02, F
00006A C??? F???      03827         MOVFF   r0x01, FSR0L
00006E C??? F???      03828         MOVFF   r0x02, FSR0H
000072 6AEF           03829         CLRF    INDF0
                      03830 ;       .line   165; /home/vbasel/.icaro/v4/firmware/libraries/servos.c for(a=0;a<TotalPICports;a++)
000074 2A??           03831         INCF    r0x00, F
000076 0E05           03832         MOVLW   0x05
000078 5C??           03833         SUBWF   r0x00, W
00007A E3??           03834         BNC     _00304_DS_
                      03835 ;       .line   168; /home/vbasel/.icaro/v4/firmware/libraries/servos.c INTCONbits.GIEH    = 0; // Disab
                            le global HP interrupts
00007C 9E??           03836         BCF     _INTCONbits, 7
                      03837 ;       .line   169; /home/vbasel/.icaro/v4/firmware/libraries/servos.c INTCONbits.GIEL    = 0; // Disab
                            le global LP interrupts
00007E 9C??           03838         BCF     _INTCONbits, 6
                      03839 ;       .line   171; /home/vbasel/.icaro/v4/firmware/libraries/servos.c T1CON=0x01;                     
                            //timer 1 prescaler 1 source is internal oscillator
000080 0E01           03840         MOVLW   0x01
000082 6E??           03841         MOVWF   _T1CON
                      03842 ;       .line   172; /home/vbasel/.icaro/v4/firmware/libraries/servos.c TMR1H=0xFF;                     
                            // First value on timer to start up...
000084 0EFF           03843         MOVLW   0xff
000086 68??           03844         SETF    _TMR1H
                      03845 ;       .line   173; /home/vbasel/.icaro/v4/firmware/libraries/servos.c TMR1L=0x00;                     
                            // ...now the first interrupt will be generated by timer after 9 ms.
000088 6A??           03846         CLRF    _TMR1L
                      03847 ;       .line   174; /home/vbasel/.icaro/v4/firmware/libraries/servos.c IPR1bits.TMR1IP = 1;    // INT_H
                            IGH_PRIORITY
00008A 80??           03848         BSF     _IPR1bits, 0
gpasm-1.4.2 #1169 (Aug  3 2017) /home/vbasel/   3-17-2018  14:24:43         PAGE 76


LOC    OBJECT CODE    LINE  SOURCE TEXT
  VALUE

                      03849 ;       .line   175; /home/vbasel/.icaro/v4/firmware/libraries/servos.c PIR1bits.TMR1IF = 0;    // Setti
                            ng flag to 0
00008C 90??           03850         BCF     _PIR1bits, 0
                      03851 ;       .line   176; /home/vbasel/.icaro/v4/firmware/libraries/servos.c PIE1bits.TMR1IE = 1;    // INT_E
                            NABLE
00008E 80??           03852         BSF     _PIE1bits, 0
                      03853 ;       .line   177; /home/vbasel/.icaro/v4/firmware/libraries/servos.c T1CONbits.TMR1ON   = 1; // Start
                            ing TMR1
000090 80??           03854         BSF     _T1CONbits, 0
                      03855 ;       .line   179; /home/vbasel/.icaro/v4/firmware/libraries/servos.c INTCONbits.GIEH    = 1; // Enabl
                            e global HP interrupts
000092 8E??           03856         BSF     _INTCONbits, 7
                      03857 ;       .line   180; /home/vbasel/.icaro/v4/firmware/libraries/servos.c INTCONbits.GIEL    = 1; // Enabl
                            e global LP interrupts
000094 8C??           03858         BSF     _INTCONbits, 6
000096 CFE4 F000      03859         MOVFF   PREINC1, r0x02
00009A CFE4 F000      03860         MOVFF   PREINC1, r0x01
00009E CFE4 F000      03861         MOVFF   PREINC1, r0x00
0000A2 0012           03862         RETURN  
                      03863 
                      03864 ; ; Starting pCode block
                      03865 S_main__toggle  code
000000                03866 _toggle:
                      03867 ;       .line   47; /home/vbasel/.icaro/v4/firmware/core/digitalt.c     void toggle(u8 pin)
000000 CFD9 FFE5      03868         MOVFF   FSR2L, POSTDEC1
000004 CFE1 FFD9      03869         MOVFF   FSR1L, FSR2L
000008 C??? F???      03870         MOVFF   r0x00, POSTDEC1
00000C C??? F???      03871         MOVFF   r0x01, POSTDEC1
000010 0E02           03872         MOVLW   0x02
000012 CFDB F000      03873         MOVFF   PLUSW2, r0x00
                      03874 ;       .line   50; /home/vbasel/.icaro/v4/firmware/core/digitalt.c     state = digitalread(pin);
000016 50??           03875         MOVF    r0x00, W
000018 6EE5           03876         MOVWF   POSTDEC1
00001A EC?? F0??      03877         CALL    _digitalread
00001E 6E??           03878         MOVWF   r0x01
000020 52E6           03879         MOVF    POSTINC1, F
                      03880 ;       .line   51; /home/vbasel/.icaro/v4/firmware/core/digitalt.c     digitalwrite(pin, state^1);
000022 70??           03881         BTG     r0x01, 0
000024 50??           03882         MOVF    r0x01, W
000026 6EE5           03883         MOVWF   POSTDEC1
000028 50??           03884         MOVF    r0x00, W
00002A 6EE5           03885         MOVWF   POSTDEC1
00002C EC?? F0??      03886         CALL    _digitalwrite
000030 52E6           03887         MOVF    POSTINC1, F
000032 52E6           03888         MOVF    POSTINC1, F
000034 CFE4 F000      03889         MOVFF   PREINC1, r0x01
000038 CFE4 F000      03890         MOVFF   PREINC1, r0x00
00003C CFE4 FFD9      03891         MOVFF   PREINC1, FSR2L
000040 0012           03892         RETURN  
                      03893 
                      03894 ; ; Starting pCode block
                      03895 S_main__digitalread     code
000000                03896 _digitalread:
gpasm-1.4.2 #1169 (Aug  3 2017) /home/vbasel/   3-17-2018  14:24:43         PAGE 77


LOC    OBJECT CODE    LINE  SOURCE TEXT
  VALUE

                      03897 ;       .line   48; /home/vbasel/.icaro/v4/firmware/core/digitalr.c     u8 digitalread(u8 pin)
000000 CFD9 FFE5      03898         MOVFF   FSR2L, POSTDEC1
000004 CFE1 FFD9      03899         MOVFF   FSR1L, FSR2L
000008 C??? F???      03900         MOVFF   r0x00, POSTDEC1
00000C C??? F???      03901         MOVFF   r0x01, POSTDEC1
000010 C??? F???      03902         MOVFF   r0x02, POSTDEC1
000014 C??? F???      03903         MOVFF   r0x03, POSTDEC1
000018 0E02           03904         MOVLW   0x02
00001A CFDB F000      03905         MOVFF   PLUSW2, r0x00
                      03906 ;       .line   54; /home/vbasel/.icaro/v4/firmware/core/digitalr.c     switch (port[pin])
00001E 0E??           03907         MOVLW   LOW(_port)
000020 24??           03908         ADDWF   r0x00, W
000022 6E??           03909         MOVWF   r0x01
000024 6A??           03910         CLRF    r0x02
000026 0E??           03911         MOVLW   HIGH(_port)
000028 22??           03912         ADDWFC  r0x02, F
00002A 6A??           03913         CLRF    r0x03
00002C 0E??           03914         MOVLW   UPPER(_port)
00002E 22??           03915         ADDWFC  r0x03, F
000030 C??? F???      03916         MOVFF   r0x01, TBLPTRL
000034 C??? F???      03917         MOVFF   r0x02, TBLPTRH
000038 C??? F???      03918         MOVFF   r0x03, TBLPTRU
00003C 0009           03919         TBLRD*+ 
00003E CFF5 F000      03920         MOVFF   TABLAT, r0x01
000042 0E05           03921         MOVLW   0x05
000044 5C??           03922         SUBWF   r0x01, W
000046 B0D8           03923         BTFSC   STATUS, 0
000048 D???           03924         BRA     _00258_DS_
00004A 6AFA           03925         CLRF    PCLATH
00004C 6AFB           03926         CLRF    PCLATU
00004E 34??           03927         RLCF    r0x01, W
000050 36FA           03928         RLCF    PCLATH, F
000052 34E8           03929         RLCF    WREG, W
000054 36FA           03930         RLCF    PCLATH, F
000056 0BFC           03931         ANDLW   0xfc
000058 0F??           03932         ADDLW   LOW(_00290_DS_)
00005A 6EE5           03933         MOVWF   POSTDEC1
00005C 0E??           03934         MOVLW   HIGH(_00290_DS_)
00005E 22FA           03935         ADDWFC  PCLATH, F
000060 0E??           03936         MOVLW   UPPER(_00290_DS_)
000062 22FB           03937         ADDWFC  PCLATU, F
000064 50E4           03938         MOVF    PREINC1, W
000066 6EF9           03939         MOVWF   PCL
000068                03940 _00290_DS_:
000068 EF?? F0??      03941         GOTO    _00253_DS_
00006C EF?? F0??      03942         GOTO    _00254_DS_
000070 EF?? F0??      03943         GOTO    _00255_DS_
000074 EF?? F0??      03944         GOTO    _00256_DS_
000078 EF?? F0??      03945         GOTO    _00257_DS_
00007C                03946 _00253_DS_:
                      03947 ;       .line   57; /home/vbasel/.icaro/v4/firmware/core/digitalr.c     return ((PORTA & mask[pin])!=0);
00007C 0E??           03948         MOVLW   LOW(_mask)
00007E 24??           03949         ADDWF   r0x00, W
gpasm-1.4.2 #1169 (Aug  3 2017) /home/vbasel/   3-17-2018  14:24:43         PAGE 78


LOC    OBJECT CODE    LINE  SOURCE TEXT
  VALUE

000080 6E??           03950         MOVWF   r0x01
000082 6A??           03951         CLRF    r0x02
000084 0E??           03952         MOVLW   HIGH(_mask)
000086 22??           03953         ADDWFC  r0x02, F
000088 6A??           03954         CLRF    r0x03
00008A 0E??           03955         MOVLW   UPPER(_mask)
00008C 22??           03956         ADDWFC  r0x03, F
00008E C??? F???      03957         MOVFF   r0x01, TBLPTRL
000092 C??? F???      03958         MOVFF   r0x02, TBLPTRH
000096 C??? F???      03959         MOVFF   r0x03, TBLPTRU
00009A 0009           03960         TBLRD*+ 
00009C CFF5 F000      03961         MOVFF   TABLAT, r0x01
0000A0 50??           03962         MOVF    _PORTA, W
0000A2 16??           03963         ANDWF   r0x01, F
0000A4 50??           03964         MOVF    r0x01, W
0000A6 E0??           03965         BZ      _00261_DS_
0000A8 0E01           03966         MOVLW   0x01
0000AA 6E??           03967         MOVWF   r0x01
0000AC D???           03968         BRA     _00262_DS_
0000AE                03969 _00261_DS_:
0000AE 6A??           03970         CLRF    r0x01
0000B0                03971 _00262_DS_:
0000B0 50??           03972         MOVF    r0x01, W
0000B2 D???           03973         BRA     _00259_DS_
0000B4                03974 _00254_DS_:
                      03975 ;       .line   60; /home/vbasel/.icaro/v4/firmware/core/digitalr.c     return ((PORTB & mask[pin])!=0);
0000B4 0E??           03976         MOVLW   LOW(_mask)
0000B6 24??           03977         ADDWF   r0x00, W
0000B8 6E??           03978         MOVWF   r0x01
0000BA 6A??           03979         CLRF    r0x02
0000BC 0E??           03980         MOVLW   HIGH(_mask)
0000BE 22??           03981         ADDWFC  r0x02, F
0000C0 6A??           03982         CLRF    r0x03
0000C2 0E??           03983         MOVLW   UPPER(_mask)
0000C4 22??           03984         ADDWFC  r0x03, F
0000C6 C??? F???      03985         MOVFF   r0x01, TBLPTRL
0000CA C??? F???      03986         MOVFF   r0x02, TBLPTRH
0000CE C??? F???      03987         MOVFF   r0x03, TBLPTRU
0000D2 0009           03988         TBLRD*+ 
0000D4 CFF5 F000      03989         MOVFF   TABLAT, r0x01
0000D8 50??           03990         MOVF    _PORTB, W
0000DA 16??           03991         ANDWF   r0x01, F
0000DC 50??           03992         MOVF    r0x01, W
0000DE E0??           03993         BZ      _00263_DS_
0000E0 0E01           03994         MOVLW   0x01
0000E2 6E??           03995         MOVWF   r0x01
0000E4 D???           03996         BRA     _00264_DS_
0000E6                03997 _00263_DS_:
0000E6 6A??           03998         CLRF    r0x01
0000E8                03999 _00264_DS_:
0000E8 50??           04000         MOVF    r0x01, W
0000EA D???           04001         BRA     _00259_DS_
0000EC                04002 _00255_DS_:
gpasm-1.4.2 #1169 (Aug  3 2017) /home/vbasel/   3-17-2018  14:24:43         PAGE 79


LOC    OBJECT CODE    LINE  SOURCE TEXT
  VALUE

                      04003 ;       .line   63; /home/vbasel/.icaro/v4/firmware/core/digitalr.c     return ((PORTC & mask[pin])!=0);
0000EC 0E??           04004         MOVLW   LOW(_mask)
0000EE 24??           04005         ADDWF   r0x00, W
0000F0 6E??           04006         MOVWF   r0x01
0000F2 6A??           04007         CLRF    r0x02
0000F4 0E??           04008         MOVLW   HIGH(_mask)
0000F6 22??           04009         ADDWFC  r0x02, F
0000F8 6A??           04010         CLRF    r0x03
0000FA 0E??           04011         MOVLW   UPPER(_mask)
0000FC 22??           04012         ADDWFC  r0x03, F
0000FE C??? F???      04013         MOVFF   r0x01, TBLPTRL
000102 C??? F???      04014         MOVFF   r0x02, TBLPTRH
000106 C??? F???      04015         MOVFF   r0x03, TBLPTRU
00010A 0009           04016         TBLRD*+ 
00010C CFF5 F000      04017         MOVFF   TABLAT, r0x01
000110 50??           04018         MOVF    _PORTC, W
000112 16??           04019         ANDWF   r0x01, F
000114 50??           04020         MOVF    r0x01, W
000116 E0??           04021         BZ      _00265_DS_
000118 0E01           04022         MOVLW   0x01
00011A 6E??           04023         MOVWF   r0x01
00011C D???           04024         BRA     _00266_DS_
00011E                04025 _00265_DS_:
00011E 6A??           04026         CLRF    r0x01
000120                04027 _00266_DS_:
000120 50??           04028         MOVF    r0x01, W
000122 D???           04029         BRA     _00259_DS_
000124                04030 _00256_DS_:
                      04031 ;       .line   70; /home/vbasel/.icaro/v4/firmware/core/digitalr.c     return ((PORTD & mask[pin])!=0);
000124 0E??           04032         MOVLW   LOW(_mask)
000126 24??           04033         ADDWF   r0x00, W
000128 6E??           04034         MOVWF   r0x01
00012A 6A??           04035         CLRF    r0x02
00012C 0E??           04036         MOVLW   HIGH(_mask)
00012E 22??           04037         ADDWFC  r0x02, F
000130 6A??           04038         CLRF    r0x03
000132 0E??           04039         MOVLW   UPPER(_mask)
000134 22??           04040         ADDWFC  r0x03, F
000136 C??? F???      04041         MOVFF   r0x01, TBLPTRL
00013A C??? F???      04042         MOVFF   r0x02, TBLPTRH
00013E C??? F???      04043         MOVFF   r0x03, TBLPTRU
000142 0009           04044         TBLRD*+ 
000144 CFF5 F000      04045         MOVFF   TABLAT, r0x01
000148 50??           04046         MOVF    _PORTD, W
00014A 16??           04047         ANDWF   r0x01, F
00014C 50??           04048         MOVF    r0x01, W
00014E E0??           04049         BZ      _00267_DS_
000150 0E01           04050         MOVLW   0x01
000152 6E??           04051         MOVWF   r0x01
000154 D???           04052         BRA     _00268_DS_
000156                04053 _00267_DS_:
000156 6A??           04054         CLRF    r0x01
000158                04055 _00268_DS_:
gpasm-1.4.2 #1169 (Aug  3 2017) /home/vbasel/   3-17-2018  14:24:43         PAGE 80


LOC    OBJECT CODE    LINE  SOURCE TEXT
  VALUE

000158 50??           04056         MOVF    r0x01, W
00015A D???           04057         BRA     _00259_DS_
00015C                04058 _00257_DS_:
                      04059 ;       .line   73; /home/vbasel/.icaro/v4/firmware/core/digitalr.c     return ((PORTE & mask[pin])!=0);
00015C 6A??           04060         CLRF    r0x01
00015E 6A??           04061         CLRF    r0x02
000160 0E??           04062         MOVLW   LOW(_mask)
000162 26??           04063         ADDWF   r0x00, F
000164 0E??           04064         MOVLW   HIGH(_mask)
000166 22??           04065         ADDWFC  r0x01, F
000168 0E??           04066         MOVLW   UPPER(_mask)
00016A 22??           04067         ADDWFC  r0x02, F
00016C C??? F???      04068         MOVFF   r0x00, TBLPTRL
000170 C??? F???      04069         MOVFF   r0x01, TBLPTRH
000174 C??? F???      04070         MOVFF   r0x02, TBLPTRU
000178 0009           04071         TBLRD*+ 
00017A CFF5 F000      04072         MOVFF   TABLAT, r0x00
00017E 50??           04073         MOVF    _PORTE, W
000180 16??           04074         ANDWF   r0x00, F
000182 50??           04075         MOVF    r0x00, W
000184 E0??           04076         BZ      _00269_DS_
000186 0E01           04077         MOVLW   0x01
000188 6E??           04078         MOVWF   r0x00
00018A D???           04079         BRA     _00270_DS_
00018C                04080 _00269_DS_:
00018C 6A??           04081         CLRF    r0x00
00018E                04082 _00270_DS_:
00018E 50??           04083         MOVF    r0x00, W
000190 D???           04084         BRA     _00259_DS_
000192                04085 _00258_DS_:
                      04086 ;       .line   77; /home/vbasel/.icaro/v4/firmware/core/digitalr.c     return 0;
000192 6AE8           04087         CLRF    WREG
000194                04088 _00259_DS_:
000194 CFE4 F000      04089         MOVFF   PREINC1, r0x03
000198 CFE4 F000      04090         MOVFF   PREINC1, r0x02
00019C CFE4 F000      04091         MOVFF   PREINC1, r0x01
0001A0 CFE4 F000      04092         MOVFF   PREINC1, r0x00
0001A4 CFE4 FFD9      04093         MOVFF   PREINC1, FSR2L
0001A8 0012           04094         RETURN  
                      04095 
                      04096 ; ; Starting pCode block
                      04097 S_main__digitalwrite    code
000000                04098 _digitalwrite:
                      04099 ;       .line   48; /home/vbasel/.icaro/v4/firmware/core/digitalw.c     void digitalwrite(u8 pin, u8 sta
                            te)
000000 CFD9 FFE5      04100         MOVFF   FSR2L, POSTDEC1
000004 CFE1 FFD9      04101         MOVFF   FSR1L, FSR2L
000008 C??? F???      04102         MOVFF   r0x00, POSTDEC1
00000C C??? F???      04103         MOVFF   r0x01, POSTDEC1
000010 C??? F???      04104         MOVFF   r0x02, POSTDEC1
000014 C??? F???      04105         MOVFF   r0x03, POSTDEC1
000018 C??? F???      04106         MOVFF   r0x04, POSTDEC1
00001C 0E02           04107         MOVLW   0x02
gpasm-1.4.2 #1169 (Aug  3 2017) /home/vbasel/   3-17-2018  14:24:43         PAGE 81


LOC    OBJECT CODE    LINE  SOURCE TEXT
  VALUE

00001E CFDB F000      04108         MOVFF   PLUSW2, r0x00
000022 0E03           04109         MOVLW   0x03
000024 CFDB F000      04110         MOVFF   PLUSW2, r0x01
                      04111 ;       .line   54; /home/vbasel/.icaro/v4/firmware/core/digitalw.c     switch (port[pin])
000028 0E??           04112         MOVLW   LOW(_port)
00002A 24??           04113         ADDWF   r0x00, W
00002C 6E??           04114         MOVWF   r0x02
00002E 6A??           04115         CLRF    r0x03
000030 0E??           04116         MOVLW   HIGH(_port)
000032 22??           04117         ADDWFC  r0x03, F
000034 6A??           04118         CLRF    r0x04
000036 0E??           04119         MOVLW   UPPER(_port)
000038 22??           04120         ADDWFC  r0x04, F
00003A C??? F???      04121         MOVFF   r0x02, TBLPTRL
00003E C??? F???      04122         MOVFF   r0x03, TBLPTRH
000042 C??? F???      04123         MOVFF   r0x04, TBLPTRU
000046 0009           04124         TBLRD*+ 
000048 CFF5 F000      04125         MOVFF   TABLAT, r0x02
00004C 0E05           04126         MOVLW   0x05
00004E 5C??           04127         SUBWF   r0x02, W
000050 B0D8           04128         BTFSC   STATUS, 0
000052 D???           04129         BRA     _00227_DS_
000054 6AFA           04130         CLRF    PCLATH
000056 6AFB           04131         CLRF    PCLATU
000058 34??           04132         RLCF    r0x02, W
00005A 36FA           04133         RLCF    PCLATH, F
00005C 34E8           04134         RLCF    WREG, W
00005E 36FA           04135         RLCF    PCLATH, F
000060 0BFC           04136         ANDLW   0xfc
000062 0F??           04137         ADDLW   LOW(_00248_DS_)
000064 6EE5           04138         MOVWF   POSTDEC1
000066 0E??           04139         MOVLW   HIGH(_00248_DS_)
000068 22FA           04140         ADDWFC  PCLATH, F
00006A 0E??           04141         MOVLW   UPPER(_00248_DS_)
00006C 22FB           04142         ADDWFC  PCLATU, F
00006E 50E4           04143         MOVF    PREINC1, W
000070 6EF9           04144         MOVWF   PCL
000072                04145 _00248_DS_:
000072 EF?? F0??      04146         GOTO    _00206_DS_
000076 EF?? F0??      04147         GOTO    _00210_DS_
00007A EF?? F0??      04148         GOTO    _00214_DS_
00007E EF?? F0??      04149         GOTO    _00218_DS_
000082 EF?? F0??      04150         GOTO    _00222_DS_
000086                04151 _00206_DS_:
                      04152 ;       .line   57; /home/vbasel/.icaro/v4/firmware/core/digitalw.c     if (state) LATA=LATA | mask[pin]
                            ;
000086 50??           04153         MOVF    r0x01, W
000088 E0??           04154         BZ      _00208_DS_
00008A 0E??           04155         MOVLW   LOW(_mask)
00008C 24??           04156         ADDWF   r0x00, W
00008E 6E??           04157         MOVWF   r0x02
000090 6A??           04158         CLRF    r0x03
000092 0E??           04159         MOVLW   HIGH(_mask)
gpasm-1.4.2 #1169 (Aug  3 2017) /home/vbasel/   3-17-2018  14:24:43         PAGE 82


LOC    OBJECT CODE    LINE  SOURCE TEXT
  VALUE

000094 22??           04160         ADDWFC  r0x03, F
000096 6A??           04161         CLRF    r0x04
000098 0E??           04162         MOVLW   UPPER(_mask)
00009A 22??           04163         ADDWFC  r0x04, F
00009C C??? F???      04164         MOVFF   r0x02, TBLPTRL
0000A0 C??? F???      04165         MOVFF   r0x03, TBLPTRH
0000A4 C??? F???      04166         MOVFF   r0x04, TBLPTRU
0000A8 0009           04167         TBLRD*+ 
0000AA CFF5 F000      04168         MOVFF   TABLAT, r0x02
0000AE 50??           04169         MOVF    r0x02, W
0000B0 12??           04170         IORWF   _LATA, F
0000B2 D???           04171         BRA     _00227_DS_
0000B4                04172 _00208_DS_:
                      04173 ;       .line   58; /home/vbasel/.icaro/v4/firmware/core/digitalw.c     else LATA=LATA & (255-mask[pin])
                            ;
0000B4 0E??           04174         MOVLW   LOW(_mask)
0000B6 24??           04175         ADDWF   r0x00, W
0000B8 6E??           04176         MOVWF   r0x02
0000BA 6A??           04177         CLRF    r0x03
0000BC 0E??           04178         MOVLW   HIGH(_mask)
0000BE 22??           04179         ADDWFC  r0x03, F
0000C0 6A??           04180         CLRF    r0x04
0000C2 0E??           04181         MOVLW   UPPER(_mask)
0000C4 22??           04182         ADDWFC  r0x04, F
0000C6 C??? F???      04183         MOVFF   r0x02, TBLPTRL
0000CA C??? F???      04184         MOVFF   r0x03, TBLPTRH
0000CE C??? F???      04185         MOVFF   r0x04, TBLPTRU
0000D2 0009           04186         TBLRD*+ 
0000D4 CFF5 F000      04187         MOVFF   TABLAT, r0x02
0000D8 50??           04188         MOVF    r0x02, W
0000DA 08FF           04189         SUBLW   0xff
                      04190 ; #     MOVWF   r0x02
                      04191 ; #     MOVF    r0x02, W
0000DC 16??           04192         ANDWF   _LATA, F
                      04193 ;       .line   59; /home/vbasel/.icaro/v4/firmware/core/digitalw.c     break;
0000DE D???           04194         BRA     _00227_DS_
0000E0                04195 _00210_DS_:
                      04196 ;       .line   61; /home/vbasel/.icaro/v4/firmware/core/digitalw.c     if (state) LATB=LATB | mask[pin]
                            ; 
0000E0 50??           04197         MOVF    r0x01, W
0000E2 E0??           04198         BZ      _00212_DS_
0000E4 0E??           04199         MOVLW   LOW(_mask)
0000E6 24??           04200         ADDWF   r0x00, W
0000E8 6E??           04201         MOVWF   r0x02
0000EA 6A??           04202         CLRF    r0x03
0000EC 0E??           04203         MOVLW   HIGH(_mask)
0000EE 22??           04204         ADDWFC  r0x03, F
0000F0 6A??           04205         CLRF    r0x04
0000F2 0E??           04206         MOVLW   UPPER(_mask)
0000F4 22??           04207         ADDWFC  r0x04, F
0000F6 C??? F???      04208         MOVFF   r0x02, TBLPTRL
0000FA C??? F???      04209         MOVFF   r0x03, TBLPTRH
0000FE C??? F???      04210         MOVFF   r0x04, TBLPTRU
gpasm-1.4.2 #1169 (Aug  3 2017) /home/vbasel/   3-17-2018  14:24:43         PAGE 83


LOC    OBJECT CODE    LINE  SOURCE TEXT
  VALUE

000102 0009           04211         TBLRD*+ 
000104 CFF5 F000      04212         MOVFF   TABLAT, r0x02
000108 50??           04213         MOVF    r0x02, W
00010A 12??           04214         IORWF   _LATB, F
00010C D???           04215         BRA     _00227_DS_
00010E                04216 _00212_DS_:
                      04217 ;       .line   62; /home/vbasel/.icaro/v4/firmware/core/digitalw.c     else LATB=LATB & (255-mask[pin])
                            ;
00010E 0E??           04218         MOVLW   LOW(_mask)
000110 24??           04219         ADDWF   r0x00, W
000112 6E??           04220         MOVWF   r0x02
000114 6A??           04221         CLRF    r0x03
000116 0E??           04222         MOVLW   HIGH(_mask)
000118 22??           04223         ADDWFC  r0x03, F
00011A 6A??           04224         CLRF    r0x04
00011C 0E??           04225         MOVLW   UPPER(_mask)
00011E 22??           04226         ADDWFC  r0x04, F
000120 C??? F???      04227         MOVFF   r0x02, TBLPTRL
000124 C??? F???      04228         MOVFF   r0x03, TBLPTRH
000128 C??? F???      04229         MOVFF   r0x04, TBLPTRU
00012C 0009           04230         TBLRD*+ 
00012E CFF5 F000      04231         MOVFF   TABLAT, r0x02
000132 50??           04232         MOVF    r0x02, W
000134 08FF           04233         SUBLW   0xff
                      04234 ; #     MOVWF   r0x02
                      04235 ; #     MOVF    r0x02, W
000136 16??           04236         ANDWF   _LATB, F
                      04237 ;       .line   63; /home/vbasel/.icaro/v4/firmware/core/digitalw.c     break;
000138 D???           04238         BRA     _00227_DS_
00013A                04239 _00214_DS_:
                      04240 ;       .line   65; /home/vbasel/.icaro/v4/firmware/core/digitalw.c     if (state) LATC=LATC | mask[pin]
                            ;
00013A 50??           04241         MOVF    r0x01, W
00013C E0??           04242         BZ      _00216_DS_
00013E 0E??           04243         MOVLW   LOW(_mask)
000140 24??           04244         ADDWF   r0x00, W
000142 6E??           04245         MOVWF   r0x02
000144 6A??           04246         CLRF    r0x03
000146 0E??           04247         MOVLW   HIGH(_mask)
000148 22??           04248         ADDWFC  r0x03, F
00014A 6A??           04249         CLRF    r0x04
00014C 0E??           04250         MOVLW   UPPER(_mask)
00014E 22??           04251         ADDWFC  r0x04, F
000150 C??? F???      04252         MOVFF   r0x02, TBLPTRL
000154 C??? F???      04253         MOVFF   r0x03, TBLPTRH
000158 C??? F???      04254         MOVFF   r0x04, TBLPTRU
00015C 0009           04255         TBLRD*+ 
00015E CFF5 F000      04256         MOVFF   TABLAT, r0x02
000162 50??           04257         MOVF    r0x02, W
000164 12??           04258         IORWF   _LATC, F
000166 D???           04259         BRA     _00227_DS_
000168                04260 _00216_DS_:
                      04261 ;       .line   66; /home/vbasel/.icaro/v4/firmware/core/digitalw.c     else LATC=LATC & (255-mask[pin])
gpasm-1.4.2 #1169 (Aug  3 2017) /home/vbasel/   3-17-2018  14:24:43         PAGE 84


LOC    OBJECT CODE    LINE  SOURCE TEXT
  VALUE

                            ;
000168 0E??           04262         MOVLW   LOW(_mask)
00016A 24??           04263         ADDWF   r0x00, W
00016C 6E??           04264         MOVWF   r0x02
00016E 6A??           04265         CLRF    r0x03
000170 0E??           04266         MOVLW   HIGH(_mask)
000172 22??           04267         ADDWFC  r0x03, F
000174 6A??           04268         CLRF    r0x04
000176 0E??           04269         MOVLW   UPPER(_mask)
000178 22??           04270         ADDWFC  r0x04, F
00017A C??? F???      04271         MOVFF   r0x02, TBLPTRL
00017E C??? F???      04272         MOVFF   r0x03, TBLPTRH
000182 C??? F???      04273         MOVFF   r0x04, TBLPTRU
000186 0009           04274         TBLRD*+ 
000188 CFF5 F000      04275         MOVFF   TABLAT, r0x02
00018C 50??           04276         MOVF    r0x02, W
00018E 08FF           04277         SUBLW   0xff
                      04278 ; #     MOVWF   r0x02
                      04279 ; #     MOVF    r0x02, W
000190 16??           04280         ANDWF   _LATC, F
                      04281 ;       .line   67; /home/vbasel/.icaro/v4/firmware/core/digitalw.c     break;
000192 D???           04282         BRA     _00227_DS_
000194                04283 _00218_DS_:
                      04284 ;       .line   72; /home/vbasel/.icaro/v4/firmware/core/digitalw.c     if (state) LATD=LATD | mask[pin]
                            ; 
000194 50??           04285         MOVF    r0x01, W
000196 E0??           04286         BZ      _00220_DS_
000198 0E??           04287         MOVLW   LOW(_mask)
00019A 24??           04288         ADDWF   r0x00, W
00019C 6E??           04289         MOVWF   r0x02
00019E 6A??           04290         CLRF    r0x03
0001A0 0E??           04291         MOVLW   HIGH(_mask)
0001A2 22??           04292         ADDWFC  r0x03, F
0001A4 6A??           04293         CLRF    r0x04
0001A6 0E??           04294         MOVLW   UPPER(_mask)
0001A8 22??           04295         ADDWFC  r0x04, F
0001AA C??? F???      04296         MOVFF   r0x02, TBLPTRL
0001AE C??? F???      04297         MOVFF   r0x03, TBLPTRH
0001B2 C??? F???      04298         MOVFF   r0x04, TBLPTRU
0001B6 0009           04299         TBLRD*+ 
0001B8 CFF5 F000      04300         MOVFF   TABLAT, r0x02
0001BC 50??           04301         MOVF    r0x02, W
0001BE 12??           04302         IORWF   _LATD, F
0001C0 D???           04303         BRA     _00227_DS_
0001C2                04304 _00220_DS_:
                      04305 ;       .line   73; /home/vbasel/.icaro/v4/firmware/core/digitalw.c     else LATD=LATD & (255-mask[pin])
                            ;
0001C2 0E??           04306         MOVLW   LOW(_mask)
0001C4 24??           04307         ADDWF   r0x00, W
0001C6 6E??           04308         MOVWF   r0x02
0001C8 6A??           04309         CLRF    r0x03
0001CA 0E??           04310         MOVLW   HIGH(_mask)
0001CC 22??           04311         ADDWFC  r0x03, F
gpasm-1.4.2 #1169 (Aug  3 2017) /home/vbasel/   3-17-2018  14:24:43         PAGE 85


LOC    OBJECT CODE    LINE  SOURCE TEXT
  VALUE

0001CE 6A??           04312         CLRF    r0x04
0001D0 0E??           04313         MOVLW   UPPER(_mask)
0001D2 22??           04314         ADDWFC  r0x04, F
0001D4 C??? F???      04315         MOVFF   r0x02, TBLPTRL
0001D8 C??? F???      04316         MOVFF   r0x03, TBLPTRH
0001DC C??? F???      04317         MOVFF   r0x04, TBLPTRU
0001E0 0009           04318         TBLRD*+ 
0001E2 CFF5 F000      04319         MOVFF   TABLAT, r0x02
0001E6 50??           04320         MOVF    r0x02, W
0001E8 08FF           04321         SUBLW   0xff
                      04322 ; #     MOVWF   r0x02
                      04323 ; #     MOVF    r0x02, W
0001EA 16??           04324         ANDWF   _LATD, F
                      04325 ;       .line   74; /home/vbasel/.icaro/v4/firmware/core/digitalw.c     break;
0001EC D???           04326         BRA     _00227_DS_
0001EE                04327 _00222_DS_:
                      04328 ;       .line   76; /home/vbasel/.icaro/v4/firmware/core/digitalw.c     if (state) LATE=LATE | mask[pin]
                            ; 
0001EE 50??           04329         MOVF    r0x01, W
0001F0 E0??           04330         BZ      _00224_DS_
0001F2 0E??           04331         MOVLW   LOW(_mask)
0001F4 24??           04332         ADDWF   r0x00, W
0001F6 6E??           04333         MOVWF   r0x01
0001F8 6A??           04334         CLRF    r0x02
0001FA 0E??           04335         MOVLW   HIGH(_mask)
0001FC 22??           04336         ADDWFC  r0x02, F
0001FE 6A??           04337         CLRF    r0x03
000200 0E??           04338         MOVLW   UPPER(_mask)
000202 22??           04339         ADDWFC  r0x03, F
000204 C??? F???      04340         MOVFF   r0x01, TBLPTRL
000208 C??? F???      04341         MOVFF   r0x02, TBLPTRH
00020C C??? F???      04342         MOVFF   r0x03, TBLPTRU
000210 0009           04343         TBLRD*+ 
000212 CFF5 F000      04344         MOVFF   TABLAT, r0x01
000216 50??           04345         MOVF    r0x01, W
000218 12??           04346         IORWF   _LATE, F
00021A D???           04347         BRA     _00227_DS_
00021C                04348 _00224_DS_:
                      04349 ;       .line   77; /home/vbasel/.icaro/v4/firmware/core/digitalw.c     else LATE=LATE & (255-mask[pin])
                            ;
00021C 6A??           04350         CLRF    r0x01
00021E 6A??           04351         CLRF    r0x02
000220 0E??           04352         MOVLW   LOW(_mask)
000222 26??           04353         ADDWF   r0x00, F
000224 0E??           04354         MOVLW   HIGH(_mask)
000226 22??           04355         ADDWFC  r0x01, F
000228 0E??           04356         MOVLW   UPPER(_mask)
00022A 22??           04357         ADDWFC  r0x02, F
00022C C??? F???      04358         MOVFF   r0x00, TBLPTRL
000230 C??? F???      04359         MOVFF   r0x01, TBLPTRH
000234 C??? F???      04360         MOVFF   r0x02, TBLPTRU
000238 0009           04361         TBLRD*+ 
00023A CFF5 F000      04362         MOVFF   TABLAT, r0x00
gpasm-1.4.2 #1169 (Aug  3 2017) /home/vbasel/   3-17-2018  14:24:43         PAGE 86


LOC    OBJECT CODE    LINE  SOURCE TEXT
  VALUE

00023E 50??           04363         MOVF    r0x00, W
000240 08FF           04364         SUBLW   0xff
                      04365 ; #     MOVWF   r0x00
                      04366 ; #     MOVF    r0x00, W
000242 16??           04367         ANDWF   _LATE, F
000244                04368 _00227_DS_:
                      04369 ;       .line   80; /home/vbasel/.icaro/v4/firmware/core/digitalw.c     }
000244 CFE4 F000      04370         MOVFF   PREINC1, r0x04
000248 CFE4 F000      04371         MOVFF   PREINC1, r0x03
00024C CFE4 F000      04372         MOVFF   PREINC1, r0x02
000250 CFE4 F000      04373         MOVFF   PREINC1, r0x01
000254 CFE4 F000      04374         MOVFF   PREINC1, r0x00
000258 CFE4 FFD9      04375         MOVFF   PREINC1, FSR2L
00025C 0012           04376         RETURN  
                      04377 
                      04378 ; ; Starting pCode block
                      04379 S_main__pinmode code
000000                04380 _pinmode:
                      04381 ;       .line   44; /home/vbasel/.icaro/v4/firmware/core/digitalp.c     void pinmode(u8 pin, u8 state)
000000 CFD9 FFE5      04382         MOVFF   FSR2L, POSTDEC1
000004 CFE1 FFD9      04383         MOVFF   FSR1L, FSR2L
000008 C??? F???      04384         MOVFF   r0x00, POSTDEC1
00000C C??? F???      04385         MOVFF   r0x01, POSTDEC1
000010 C??? F???      04386         MOVFF   r0x02, POSTDEC1
000014 C??? F???      04387         MOVFF   r0x03, POSTDEC1
000018 C??? F???      04388         MOVFF   r0x04, POSTDEC1
00001C 0E02           04389         MOVLW   0x02
00001E CFDB F000      04390         MOVFF   PLUSW2, r0x00
000022 0E03           04391         MOVLW   0x03
000024 CFDB F000      04392         MOVFF   PLUSW2, r0x01
                      04393 ;       .line   46; /home/vbasel/.icaro/v4/firmware/core/digitalp.c     switch (port[pin])
000028 0E??           04394         MOVLW   LOW(_port)
00002A 24??           04395         ADDWF   r0x00, W
00002C 6E??           04396         MOVWF   r0x02
00002E 6A??           04397         CLRF    r0x03
000030 0E??           04398         MOVLW   HIGH(_port)
000032 22??           04399         ADDWFC  r0x03, F
000034 6A??           04400         CLRF    r0x04
000036 0E??           04401         MOVLW   UPPER(_port)
000038 22??           04402         ADDWFC  r0x04, F
00003A C??? F???      04403         MOVFF   r0x02, TBLPTRL
00003E C??? F???      04404         MOVFF   r0x03, TBLPTRH
000042 C??? F???      04405         MOVFF   r0x04, TBLPTRU
000046 0009           04406         TBLRD*+ 
000048 CFF5 F000      04407         MOVFF   TABLAT, r0x02
00004C 0E05           04408         MOVLW   0x05
00004E 5C??           04409         SUBWF   r0x02, W
000050 B0D8           04410         BTFSC   STATUS, 0
000052 D???           04411         BRA     _00180_DS_
000054 6AFA           04412         CLRF    PCLATH
000056 6AFB           04413         CLRF    PCLATU
000058 34??           04414         RLCF    r0x02, W
00005A 36FA           04415         RLCF    PCLATH, F
gpasm-1.4.2 #1169 (Aug  3 2017) /home/vbasel/   3-17-2018  14:24:43         PAGE 87


LOC    OBJECT CODE    LINE  SOURCE TEXT
  VALUE

00005C 34E8           04416         RLCF    WREG, W
00005E 36FA           04417         RLCF    PCLATH, F
000060 0BFC           04418         ANDLW   0xfc
000062 0F??           04419         ADDLW   LOW(_00201_DS_)
000064 6EE5           04420         MOVWF   POSTDEC1
000066 0E??           04421         MOVLW   HIGH(_00201_DS_)
000068 22FA           04422         ADDWFC  PCLATH, F
00006A 0E??           04423         MOVLW   UPPER(_00201_DS_)
00006C 22FB           04424         ADDWFC  PCLATU, F
00006E 50E4           04425         MOVF    PREINC1, W
000070 6EF9           04426         MOVWF   PCL
000072                04427 _00201_DS_:
000072 EF?? F0??      04428         GOTO    _00159_DS_
000076 EF?? F0??      04429         GOTO    _00163_DS_
00007A EF?? F0??      04430         GOTO    _00167_DS_
00007E EF?? F0??      04431         GOTO    _00171_DS_
000082 EF?? F0??      04432         GOTO    _00175_DS_
000086                04433 _00159_DS_:
                      04434 ;       .line   49; /home/vbasel/.icaro/v4/firmware/core/digitalp.c     if (state) TRISA=TRISA | mask[pi
                            n];
000086 50??           04435         MOVF    r0x01, W
000088 E0??           04436         BZ      _00161_DS_
00008A 0E??           04437         MOVLW   LOW(_mask)
00008C 24??           04438         ADDWF   r0x00, W
00008E 6E??           04439         MOVWF   r0x02
000090 6A??           04440         CLRF    r0x03
000092 0E??           04441         MOVLW   HIGH(_mask)
000094 22??           04442         ADDWFC  r0x03, F
000096 6A??           04443         CLRF    r0x04
000098 0E??           04444         MOVLW   UPPER(_mask)
00009A 22??           04445         ADDWFC  r0x04, F
00009C C??? F???      04446         MOVFF   r0x02, TBLPTRL
0000A0 C??? F???      04447         MOVFF   r0x03, TBLPTRH
0000A4 C??? F???      04448         MOVFF   r0x04, TBLPTRU
0000A8 0009           04449         TBLRD*+ 
0000AA CFF5 F000      04450         MOVFF   TABLAT, r0x02
0000AE 50??           04451         MOVF    r0x02, W
0000B0 12??           04452         IORWF   _TRISA, F
0000B2 D???           04453         BRA     _00180_DS_
0000B4                04454 _00161_DS_:
                      04455 ;       .line   50; /home/vbasel/.icaro/v4/firmware/core/digitalp.c     else TRISA=TRISA & (255-mask[pin
                            ]);
0000B4 0E??           04456         MOVLW   LOW(_mask)
0000B6 24??           04457         ADDWF   r0x00, W
0000B8 6E??           04458         MOVWF   r0x02
0000BA 6A??           04459         CLRF    r0x03
0000BC 0E??           04460         MOVLW   HIGH(_mask)
0000BE 22??           04461         ADDWFC  r0x03, F
0000C0 6A??           04462         CLRF    r0x04
0000C2 0E??           04463         MOVLW   UPPER(_mask)
0000C4 22??           04464         ADDWFC  r0x04, F
0000C6 C??? F???      04465         MOVFF   r0x02, TBLPTRL
0000CA C??? F???      04466         MOVFF   r0x03, TBLPTRH
gpasm-1.4.2 #1169 (Aug  3 2017) /home/vbasel/   3-17-2018  14:24:43         PAGE 88


LOC    OBJECT CODE    LINE  SOURCE TEXT
  VALUE

0000CE C??? F???      04467         MOVFF   r0x04, TBLPTRU
0000D2 0009           04468         TBLRD*+ 
0000D4 CFF5 F000      04469         MOVFF   TABLAT, r0x02
0000D8 50??           04470         MOVF    r0x02, W
0000DA 08FF           04471         SUBLW   0xff
                      04472 ; #     MOVWF   r0x02
                      04473 ; #     MOVF    r0x02, W
0000DC 16??           04474         ANDWF   _TRISA, F
                      04475 ;       .line   51; /home/vbasel/.icaro/v4/firmware/core/digitalp.c     break;
0000DE D???           04476         BRA     _00180_DS_
0000E0                04477 _00163_DS_:
                      04478 ;       .line   53; /home/vbasel/.icaro/v4/firmware/core/digitalp.c     if (state) TRISB=TRISB | mask[pi
                            n];
0000E0 50??           04479         MOVF    r0x01, W
0000E2 E0??           04480         BZ      _00165_DS_
0000E4 0E??           04481         MOVLW   LOW(_mask)
0000E6 24??           04482         ADDWF   r0x00, W
0000E8 6E??           04483         MOVWF   r0x02
0000EA 6A??           04484         CLRF    r0x03
0000EC 0E??           04485         MOVLW   HIGH(_mask)
0000EE 22??           04486         ADDWFC  r0x03, F
0000F0 6A??           04487         CLRF    r0x04
0000F2 0E??           04488         MOVLW   UPPER(_mask)
0000F4 22??           04489         ADDWFC  r0x04, F
0000F6 C??? F???      04490         MOVFF   r0x02, TBLPTRL
0000FA C??? F???      04491         MOVFF   r0x03, TBLPTRH
0000FE C??? F???      04492         MOVFF   r0x04, TBLPTRU
000102 0009           04493         TBLRD*+ 
000104 CFF5 F000      04494         MOVFF   TABLAT, r0x02
000108 50??           04495         MOVF    r0x02, W
00010A 12??           04496         IORWF   _TRISB, F
00010C D???           04497         BRA     _00180_DS_
00010E                04498 _00165_DS_:
                      04499 ;       .line   54; /home/vbasel/.icaro/v4/firmware/core/digitalp.c     else TRISB=TRISB & (255-mask[pin
                            ]);
00010E 0E??           04500         MOVLW   LOW(_mask)
000110 24??           04501         ADDWF   r0x00, W
000112 6E??           04502         MOVWF   r0x02
000114 6A??           04503         CLRF    r0x03
000116 0E??           04504         MOVLW   HIGH(_mask)
000118 22??           04505         ADDWFC  r0x03, F
00011A 6A??           04506         CLRF    r0x04
00011C 0E??           04507         MOVLW   UPPER(_mask)
00011E 22??           04508         ADDWFC  r0x04, F
000120 C??? F???      04509         MOVFF   r0x02, TBLPTRL
000124 C??? F???      04510         MOVFF   r0x03, TBLPTRH
000128 C??? F???      04511         MOVFF   r0x04, TBLPTRU
00012C 0009           04512         TBLRD*+ 
00012E CFF5 F000      04513         MOVFF   TABLAT, r0x02
000132 50??           04514         MOVF    r0x02, W
000134 08FF           04515         SUBLW   0xff
                      04516 ; #     MOVWF   r0x02
                      04517 ; #     MOVF    r0x02, W
gpasm-1.4.2 #1169 (Aug  3 2017) /home/vbasel/   3-17-2018  14:24:43         PAGE 89


LOC    OBJECT CODE    LINE  SOURCE TEXT
  VALUE

000136 16??           04518         ANDWF   _TRISB, F
                      04519 ;       .line   55; /home/vbasel/.icaro/v4/firmware/core/digitalp.c     break;
000138 D???           04520         BRA     _00180_DS_
00013A                04521 _00167_DS_:
                      04522 ;       .line   57; /home/vbasel/.icaro/v4/firmware/core/digitalp.c     if (state) TRISC=TRISC | mask[pi
                            n];
00013A 50??           04523         MOVF    r0x01, W
00013C E0??           04524         BZ      _00169_DS_
00013E 0E??           04525         MOVLW   LOW(_mask)
000140 24??           04526         ADDWF   r0x00, W
000142 6E??           04527         MOVWF   r0x02
000144 6A??           04528         CLRF    r0x03
000146 0E??           04529         MOVLW   HIGH(_mask)
000148 22??           04530         ADDWFC  r0x03, F
00014A 6A??           04531         CLRF    r0x04
00014C 0E??           04532         MOVLW   UPPER(_mask)
00014E 22??           04533         ADDWFC  r0x04, F
000150 C??? F???      04534         MOVFF   r0x02, TBLPTRL
000154 C??? F???      04535         MOVFF   r0x03, TBLPTRH
000158 C??? F???      04536         MOVFF   r0x04, TBLPTRU
00015C 0009           04537         TBLRD*+ 
00015E CFF5 F000      04538         MOVFF   TABLAT, r0x02
000162 50??           04539         MOVF    r0x02, W
000164 12??           04540         IORWF   _TRISC, F
000166 D???           04541         BRA     _00180_DS_
000168                04542 _00169_DS_:
                      04543 ;       .line   58; /home/vbasel/.icaro/v4/firmware/core/digitalp.c     else TRISC=TRISC & (255-mask[pin
                            ]);
000168 0E??           04544         MOVLW   LOW(_mask)
00016A 24??           04545         ADDWF   r0x00, W
00016C 6E??           04546         MOVWF   r0x02
00016E 6A??           04547         CLRF    r0x03
000170 0E??           04548         MOVLW   HIGH(_mask)
000172 22??           04549         ADDWFC  r0x03, F
000174 6A??           04550         CLRF    r0x04
000176 0E??           04551         MOVLW   UPPER(_mask)
000178 22??           04552         ADDWFC  r0x04, F
00017A C??? F???      04553         MOVFF   r0x02, TBLPTRL
00017E C??? F???      04554         MOVFF   r0x03, TBLPTRH
000182 C??? F???      04555         MOVFF   r0x04, TBLPTRU
000186 0009           04556         TBLRD*+ 
000188 CFF5 F000      04557         MOVFF   TABLAT, r0x02
00018C 50??           04558         MOVF    r0x02, W
00018E 08FF           04559         SUBLW   0xff
                      04560 ; #     MOVWF   r0x02
                      04561 ; #     MOVF    r0x02, W
000190 16??           04562         ANDWF   _TRISC, F
                      04563 ;       .line   59; /home/vbasel/.icaro/v4/firmware/core/digitalp.c     break;
000192 D???           04564         BRA     _00180_DS_
000194                04565 _00171_DS_:
                      04566 ;       .line   64; /home/vbasel/.icaro/v4/firmware/core/digitalp.c     if (state) TRISD=TRISD | mask[pi
                            n];
000194 50??           04567         MOVF    r0x01, W
gpasm-1.4.2 #1169 (Aug  3 2017) /home/vbasel/   3-17-2018  14:24:43         PAGE 90


LOC    OBJECT CODE    LINE  SOURCE TEXT
  VALUE

000196 E0??           04568         BZ      _00173_DS_
000198 0E??           04569         MOVLW   LOW(_mask)
00019A 24??           04570         ADDWF   r0x00, W
00019C 6E??           04571         MOVWF   r0x02
00019E 6A??           04572         CLRF    r0x03
0001A0 0E??           04573         MOVLW   HIGH(_mask)
0001A2 22??           04574         ADDWFC  r0x03, F
0001A4 6A??           04575         CLRF    r0x04
0001A6 0E??           04576         MOVLW   UPPER(_mask)
0001A8 22??           04577         ADDWFC  r0x04, F
0001AA C??? F???      04578         MOVFF   r0x02, TBLPTRL
0001AE C??? F???      04579         MOVFF   r0x03, TBLPTRH
0001B2 C??? F???      04580         MOVFF   r0x04, TBLPTRU
0001B6 0009           04581         TBLRD*+ 
0001B8 CFF5 F000      04582         MOVFF   TABLAT, r0x02
0001BC 50??           04583         MOVF    r0x02, W
0001BE 12??           04584         IORWF   _TRISD, F
0001C0 D???           04585         BRA     _00180_DS_
0001C2                04586 _00173_DS_:
                      04587 ;       .line   65; /home/vbasel/.icaro/v4/firmware/core/digitalp.c     else TRISD=TRISD & (255-mask[pin
                            ]);
0001C2 0E??           04588         MOVLW   LOW(_mask)
0001C4 24??           04589         ADDWF   r0x00, W
0001C6 6E??           04590         MOVWF   r0x02
0001C8 6A??           04591         CLRF    r0x03
0001CA 0E??           04592         MOVLW   HIGH(_mask)
0001CC 22??           04593         ADDWFC  r0x03, F
0001CE 6A??           04594         CLRF    r0x04
0001D0 0E??           04595         MOVLW   UPPER(_mask)
0001D2 22??           04596         ADDWFC  r0x04, F
0001D4 C??? F???      04597         MOVFF   r0x02, TBLPTRL
0001D8 C??? F???      04598         MOVFF   r0x03, TBLPTRH
0001DC C??? F???      04599         MOVFF   r0x04, TBLPTRU
0001E0 0009           04600         TBLRD*+ 
0001E2 CFF5 F000      04601         MOVFF   TABLAT, r0x02
0001E6 50??           04602         MOVF    r0x02, W
0001E8 08FF           04603         SUBLW   0xff
                      04604 ; #     MOVWF   r0x02
                      04605 ; #     MOVF    r0x02, W
0001EA 16??           04606         ANDWF   _TRISD, F
                      04607 ;       .line   66; /home/vbasel/.icaro/v4/firmware/core/digitalp.c     break;
0001EC D???           04608         BRA     _00180_DS_
0001EE                04609 _00175_DS_:
                      04610 ;       .line   68; /home/vbasel/.icaro/v4/firmware/core/digitalp.c     if (state) TRISE=TRISE | mask[pi
                            n];
0001EE 50??           04611         MOVF    r0x01, W
0001F0 E0??           04612         BZ      _00177_DS_
0001F2 0E??           04613         MOVLW   LOW(_mask)
0001F4 24??           04614         ADDWF   r0x00, W
0001F6 6E??           04615         MOVWF   r0x01
0001F8 6A??           04616         CLRF    r0x02
0001FA 0E??           04617         MOVLW   HIGH(_mask)
0001FC 22??           04618         ADDWFC  r0x02, F
gpasm-1.4.2 #1169 (Aug  3 2017) /home/vbasel/   3-17-2018  14:24:43         PAGE 91


LOC    OBJECT CODE    LINE  SOURCE TEXT
  VALUE

0001FE 6A??           04619         CLRF    r0x03
000200 0E??           04620         MOVLW   UPPER(_mask)
000202 22??           04621         ADDWFC  r0x03, F
000204 C??? F???      04622         MOVFF   r0x01, TBLPTRL
000208 C??? F???      04623         MOVFF   r0x02, TBLPTRH
00020C C??? F???      04624         MOVFF   r0x03, TBLPTRU
000210 0009           04625         TBLRD*+ 
000212 CFF5 F000      04626         MOVFF   TABLAT, r0x01
000216 50??           04627         MOVF    r0x01, W
000218 12??           04628         IORWF   _TRISE, F
00021A D???           04629         BRA     _00180_DS_
00021C                04630 _00177_DS_:
                      04631 ;       .line   69; /home/vbasel/.icaro/v4/firmware/core/digitalp.c     else TRISE=TRISE & (255-mask[pin
                            ]);
00021C 6A??           04632         CLRF    r0x01
00021E 6A??           04633         CLRF    r0x02
000220 0E??           04634         MOVLW   LOW(_mask)
000222 26??           04635         ADDWF   r0x00, F
000224 0E??           04636         MOVLW   HIGH(_mask)
000226 22??           04637         ADDWFC  r0x01, F
000228 0E??           04638         MOVLW   UPPER(_mask)
00022A 22??           04639         ADDWFC  r0x02, F
00022C C??? F???      04640         MOVFF   r0x00, TBLPTRL
000230 C??? F???      04641         MOVFF   r0x01, TBLPTRH
000234 C??? F???      04642         MOVFF   r0x02, TBLPTRU
000238 0009           04643         TBLRD*+ 
00023A CFF5 F000      04644         MOVFF   TABLAT, r0x00
00023E 50??           04645         MOVF    r0x00, W
000240 08FF           04646         SUBLW   0xff
                      04647 ; #     MOVWF   r0x00
                      04648 ; #     MOVF    r0x00, W
000242 16??           04649         ANDWF   _TRISE, F
000244                04650 _00180_DS_:
                      04651 ;       .line   72; /home/vbasel/.icaro/v4/firmware/core/digitalp.c     }
000244 CFE4 F000      04652         MOVFF   PREINC1, r0x04
000248 CFE4 F000      04653         MOVFF   PREINC1, r0x03
00024C CFE4 F000      04654         MOVFF   PREINC1, r0x02
000250 CFE4 F000      04655         MOVFF   PREINC1, r0x01
000254 CFE4 F000      04656         MOVFF   PREINC1, r0x00
000258 CFE4 FFD9      04657         MOVFF   PREINC1, FSR2L
00025C 0012           04658         RETURN  
                      04659 
                      04660 ; ; Starting pCode block
                      04661 S_main__Delayms code
000000                04662 _Delayms:
                      04663 ;       .line   93; /home/vbasel/.icaro/v4/firmware/core/delayms.c      void Delayms(u16 milliseconds)
000000 CFD9 FFE5      04664         MOVFF   FSR2L, POSTDEC1
000004 CFE1 FFD9      04665         MOVFF   FSR1L, FSR2L
000008 C??? F???      04666         MOVFF   r0x00, POSTDEC1
00000C C??? F???      04667         MOVFF   r0x01, POSTDEC1
000010 C??? F???      04668         MOVFF   r0x02, POSTDEC1
000014 C??? F???      04669         MOVFF   r0x03, POSTDEC1
000018 C??? F???      04670         MOVFF   r0x04, POSTDEC1
gpasm-1.4.2 #1169 (Aug  3 2017) /home/vbasel/   3-17-2018  14:24:43         PAGE 92


LOC    OBJECT CODE    LINE  SOURCE TEXT
  VALUE

00001C C??? F???      04671         MOVFF   r0x05, POSTDEC1
000020 0E02           04672         MOVLW   0x02
000022 CFDB F000      04673         MOVFF   PLUSW2, r0x00
000026 0E03           04674         MOVLW   0x03
000028 CFDB F000      04675         MOVFF   PLUSW2, r0x01
                      04676 ;       .line   100; /home/vbasel/.icaro/v4/firmware/core/delayms.c     u16 n100tcy = System_getPeripher
                            alFrequency() / 100000;
00002C EC?? F0??      04677         CALL    _System_getCpuFrequency
000030 6E??           04678         MOVWF   r0x02
000032 CFF3 F000      04679         MOVFF   PRODL, r0x03
000036 CFF4 F000      04680         MOVFF   PRODH, r0x04
00003A CFE9 F000      04681         MOVFF   FSR0L, r0x05
00003E 90D8           04682         BCF     STATUS, 0
000040 32??           04683         RRCF    r0x05, F
000042 32??           04684         RRCF    r0x04, F
000044 32??           04685         RRCF    r0x03, F
000046 32??           04686         RRCF    r0x02, F
000048 90D8           04687         BCF     STATUS, 0
00004A 32??           04688         RRCF    r0x05, F
00004C 32??           04689         RRCF    r0x04, F
00004E 32??           04690         RRCF    r0x03, F
000050 32??           04691         RRCF    r0x02, F
000052 6AE5           04692         CLRF    POSTDEC1
000054 0E01           04693         MOVLW   0x01
000056 6EE5           04694         MOVWF   POSTDEC1
000058 0E86           04695         MOVLW   0x86
00005A 6EE5           04696         MOVWF   POSTDEC1
00005C 0EA0           04697         MOVLW   0xa0
00005E 6EE5           04698         MOVWF   POSTDEC1
000060 50??           04699         MOVF    r0x05, W
000062 6EE5           04700         MOVWF   POSTDEC1
000064 50??           04701         MOVF    r0x04, W
000066 6EE5           04702         MOVWF   POSTDEC1
000068 50??           04703         MOVF    r0x03, W
00006A 6EE5           04704         MOVWF   POSTDEC1
00006C 50??           04705         MOVF    r0x02, W
00006E 6EE5           04706         MOVWF   POSTDEC1
000070 EC?? F0??      04707         CALL    __divulong
000074 6E??           04708         MOVWF   r0x02
000076 0E08           04709         MOVLW   0x08
000078 26E1           04710         ADDWF   FSR1L, F
00007A                04711 _00151_DS_:
                      04712 ;       .line   101; /home/vbasel/.icaro/v4/firmware/core/delayms.c     while (milliseconds--)
00007A C??? F???      04713         MOVFF   r0x00, r0x04
00007E C??? F???      04714         MOVFF   r0x01, r0x05
000082 0EFF           04715         MOVLW   0xff
000084 26??           04716         ADDWF   r0x00, F
000086 22??           04717         ADDWFC  r0x01, F
000088 50??           04718         MOVF    r0x04, W
00008A 10??           04719         IORWF   r0x05, W
00008C E0??           04720         BZ      _00154_DS_
                      04721 ;       .line   102; /home/vbasel/.icaro/v4/firmware/core/delayms.c     delay100tcy(n100tcy-3);
00008E 50??           04722         MOVF    r0x02, W
gpasm-1.4.2 #1169 (Aug  3 2017) /home/vbasel/   3-17-2018  14:24:43         PAGE 93


LOC    OBJECT CODE    LINE  SOURCE TEXT
  VALUE

000090 6E??           04723         MOVWF   r0x04
000092 0EFD           04724         MOVLW   0xfd
000094 26??           04725         ADDWF   r0x04, F
000096 50??           04726         MOVF    r0x04, W
000098 EC?? F0??      04727         CALL    _delay100tcy
00009C D???           04728         BRA     _00151_DS_
00009E                04729 _00154_DS_:
00009E CFE4 F000      04730         MOVFF   PREINC1, r0x05
0000A2 CFE4 F000      04731         MOVFF   PREINC1, r0x04
0000A6 CFE4 F000      04732         MOVFF   PREINC1, r0x03
0000AA CFE4 F000      04733         MOVFF   PREINC1, r0x02
0000AE CFE4 F000      04734         MOVFF   PREINC1, r0x01
0000B2 CFE4 F000      04735         MOVFF   PREINC1, r0x00
0000B6 CFE4 FFD9      04736         MOVFF   PREINC1, FSR2L
0000BA 0012           04737         RETURN  
                      04738 
                      04739 ; ; Starting pCode block
                      04740 S_main__System_getCpuFrequency  code
000000                04741 _System_getCpuFrequency:
                      04742 ;       .line   227; /home/vbasel/.icaro/v4/firmware/core/oscillator.c  u32 System_getCpuFrequency() 
000000 C??? F???      04743         MOVFF   r0x00, POSTDEC1
000004 C??? F???      04744         MOVFF   r0x01, POSTDEC1
000008 C??? F???      04745         MOVFF   r0x02, POSTDEC1
00000C C??? F???      04746         MOVFF   r0x03, POSTDEC1
000010 C??? F???      04747         MOVFF   r0x04, POSTDEC1
000014 C??? F???      04748         MOVFF   r0x05, POSTDEC1
                      04749 ;       .line   242; /home/vbasel/.icaro/v4/firmware/core/oscillator.c  if (OSCCONbits.SCS == 0)
000018 50??           04750         MOVF    _OSCCONbits, W
00001A 0B03           04751         ANDLW   0x03
00001C 6E??           04752         MOVWF   r0x00
00001E 50??           04753         MOVF    r0x00, W
000020 A4D8           04754         BTFSS   STATUS, 2
000022 D???           04755         BRA     _00116_DS_
                      04756 ;       .line   268; /home/vbasel/.icaro/v4/firmware/core/oscillator.c  CPUDIV  = ( System_readFlashMemo
                            ry(__CONFIG1L) & 0b00011000 ) >> 3;
000024 6AE5           04757         CLRF    POSTDEC1
000026 0E30           04758         MOVLW   0x30
000028 6EE5           04759         MOVWF   POSTDEC1
00002A 0E00           04760         MOVLW   0x00
00002C 6AE5           04761         CLRF    POSTDEC1
00002E 6AE5           04762         CLRF    POSTDEC1
000030 EC?? F0??      04763         CALL    _System_readFlashMemory
000034 6E??           04764         MOVWF   r0x00
000036 0E04           04765         MOVLW   0x04
000038 26E1           04766         ADDWF   FSR1L, F
00003A 0E18           04767         MOVLW   0x18
00003C 16??           04768         ANDWF   r0x00, F
00003E 6A??           04769         CLRF    r0x01
000040 90D8           04770         BCF     STATUS, 0
000042 32??           04771         RRCF    r0x01, F
000044 32??           04772         RRCF    r0x00, F
000046 90D8           04773         BCF     STATUS, 0
000048 32??           04774         RRCF    r0x01, F
gpasm-1.4.2 #1169 (Aug  3 2017) /home/vbasel/   3-17-2018  14:24:43         PAGE 94


LOC    OBJECT CODE    LINE  SOURCE TEXT
  VALUE

00004A 32??           04775         RRCF    r0x00, F
00004C 90D8           04776         BCF     STATUS, 0
00004E 32??           04777         RRCF    r0x01, F
000050 32??           04778         RRCF    r0x00, F
                      04779 ;       .line   269; /home/vbasel/.icaro/v4/firmware/core/oscillator.c  CPUDIV_XTAL = cpudiv_xtal[CPUDIV
                            ];
000052 0E??           04780         MOVLW   LOW(_cpudiv_xtal)
000054 24??           04781         ADDWF   r0x00, W
000056 6E??           04782         MOVWF   r0x01
000058 6A??           04783         CLRF    r0x02
00005A 0E??           04784         MOVLW   HIGH(_cpudiv_xtal)
00005C 22??           04785         ADDWFC  r0x02, F
00005E 6A??           04786         CLRF    r0x03
000060 0E??           04787         MOVLW   UPPER(_cpudiv_xtal)
000062 22??           04788         ADDWFC  r0x03, F
000064 C??? F???      04789         MOVFF   r0x01, TBLPTRL
000068 C??? F???      04790         MOVFF   r0x02, TBLPTRH
00006C C??? F???      04791         MOVFF   r0x03, TBLPTRU
000070 0009           04792         TBLRD*+ 
000072 CFF5 F000      04793         MOVFF   TABLAT, r0x01
                      04794 ;       .line   270; /home/vbasel/.icaro/v4/firmware/core/oscillator.c  fosc  = System_readFlashMemory(_
                            _CONFIG1H) & 0b00001111;
000076 6AE5           04795         CLRF    POSTDEC1
000078 0E30           04796         MOVLW   0x30
00007A 6EE5           04797         MOVWF   POSTDEC1
00007C 6AE5           04798         CLRF    POSTDEC1
00007E 0E01           04799         MOVLW   0x01
000080 6EE5           04800         MOVWF   POSTDEC1
000082 EC?? F0??      04801         CALL    _System_readFlashMemory
000086 6E??           04802         MOVWF   r0x02
000088 0E04           04803         MOVLW   0x04
00008A 26E1           04804         ADDWF   FSR1L, F
00008C 0E0F           04805         MOVLW   0x0f
00008E 16??           04806         ANDWF   r0x02, F
                      04807 ;       .line   284; /home/vbasel/.icaro/v4/firmware/core/oscillator.c  CPUDIV = cpudiv[CPUDIV];
000090 0E??           04808         MOVLW   LOW(_cpudiv)
000092 24??           04809         ADDWF   r0x00, W
000094 6E??           04810         MOVWF   r0x03
000096 6A??           04811         CLRF    r0x04
000098 0E??           04812         MOVLW   HIGH(_cpudiv)
00009A 22??           04813         ADDWFC  r0x04, F
00009C 6A??           04814         CLRF    r0x05
00009E 0E??           04815         MOVLW   UPPER(_cpudiv)
0000A0 22??           04816         ADDWFC  r0x05, F
0000A2 C??? F???      04817         MOVFF   r0x03, TBLPTRL
0000A6 C??? F???      04818         MOVFF   r0x04, TBLPTRH
0000AA C??? F???      04819         MOVFF   r0x05, TBLPTRU
0000AE 0009           04820         TBLRD*+ 
0000B0 CFF5 F000      04821         MOVFF   TABLAT, r0x00
                      04822 ;       .line   292; /home/vbasel/.icaro/v4/firmware/core/oscillator.c  fosc >>=1;
0000B4 90D8           04823         BCF     STATUS, 0
0000B6 32??           04824         RRCF    r0x02, F
                      04825 ;       .line   293; /home/vbasel/.icaro/v4/firmware/core/oscillator.c  if( (fosc==0) || (fosc==2) || (f
gpasm-1.4.2 #1169 (Aug  3 2017) /home/vbasel/   3-17-2018  14:24:43         PAGE 95


LOC    OBJECT CODE    LINE  SOURCE TEXT
  VALUE

                            osc==6) )
0000B8 50??           04826         MOVF    r0x02, W
0000BA E0??           04827         BZ      _00110_DS_
0000BC 50??           04828         MOVF    r0x02, W
0000BE 0A02           04829         XORLW   0x02
0000C0 E0??           04830         BZ      _00110_DS_
0000C2 50??           04831         MOVF    r0x02, W
0000C4 0A06           04832         XORLW   0x06
0000C6 E1??           04833         BNZ     _00111_DS_
0000C8                04834 _00110_DS_:
                      04835 ;       .line   295; /home/vbasel/.icaro/v4/firmware/core/oscillator.c  return CRYSTAL / CPUDIV_XTAL;
0000C8 6AE5           04836         CLRF    POSTDEC1
0000CA 6AE5           04837         CLRF    POSTDEC1
0000CC 6AE5           04838         CLRF    POSTDEC1
0000CE 50??           04839         MOVF    r0x01, W
0000D0 6EE5           04840         MOVWF   POSTDEC1
0000D2 6AE5           04841         CLRF    POSTDEC1
0000D4 0E7A           04842         MOVLW   0x7a
0000D6 6EE5           04843         MOVWF   POSTDEC1
0000D8 0E12           04844         MOVLW   0x12
0000DA 6EE5           04845         MOVWF   POSTDEC1
0000DC 0E00           04846         MOVLW   0x00
0000DE 6AE5           04847         CLRF    POSTDEC1
0000E0 EC?? F0??      04848         CALL    __divslong
0000E4 6E??           04849         MOVWF   r0x01
0000E6 CFF3 F000      04850         MOVFF   PRODL, r0x02
0000EA CFF4 F000      04851         MOVFF   PRODH, r0x03
0000EE CFE9 F000      04852         MOVFF   FSR0L, r0x04
0000F2 0E08           04853         MOVLW   0x08
0000F4 26E1           04854         ADDWF   FSR1L, F
0000F6 C??? F???      04855         MOVFF   r0x04, FSR0L
0000FA C??? F???      04856         MOVFF   r0x03, PRODH
0000FE C??? F???      04857         MOVFF   r0x02, PRODL
000102 50??           04858         MOVF    r0x01, W
000104 D???           04859         BRA     _00121_DS_
000106                04860 _00111_DS_:
                      04861 ;       .line   299; /home/vbasel/.icaro/v4/firmware/core/oscillator.c  return 96000000UL / CPUDIV;
000106 6AE5           04862         CLRF    POSTDEC1
000108 6AE5           04863         CLRF    POSTDEC1
00010A 6AE5           04864         CLRF    POSTDEC1
00010C 50??           04865         MOVF    r0x00, W
00010E 6EE5           04866         MOVWF   POSTDEC1
000110 0E05           04867         MOVLW   0x05
000112 6EE5           04868         MOVWF   POSTDEC1
000114 0EB8           04869         MOVLW   0xb8
000116 6EE5           04870         MOVWF   POSTDEC1
000118 0ED8           04871         MOVLW   0xd8
00011A 6EE5           04872         MOVWF   POSTDEC1
00011C 0E00           04873         MOVLW   0x00
00011E 6AE5           04874         CLRF    POSTDEC1
000120 EC?? F0??      04875         CALL    __divulong
000124 6E??           04876         MOVWF   r0x00
000126 CFF3 F000      04877         MOVFF   PRODL, r0x01
gpasm-1.4.2 #1169 (Aug  3 2017) /home/vbasel/   3-17-2018  14:24:43         PAGE 96


LOC    OBJECT CODE    LINE  SOURCE TEXT
  VALUE

00012A CFF4 F000      04878         MOVFF   PRODH, r0x02
00012E CFE9 F000      04879         MOVFF   FSR0L, r0x03
000132 0E08           04880         MOVLW   0x08
000134 26E1           04881         ADDWF   FSR1L, F
000136 C??? F???      04882         MOVFF   r0x03, FSR0L
00013A C??? F???      04883         MOVFF   r0x02, PRODH
00013E C??? F???      04884         MOVFF   r0x01, PRODL
000142 50??           04885         MOVF    r0x00, W
000144 D???           04886         BRA     _00121_DS_
000146                04887 _00116_DS_:
                      04888 ;       .line   312; /home/vbasel/.icaro/v4/firmware/core/oscillator.c  if (OSCCONbits.SCS == 1)
000146 50??           04889         MOVF    _OSCCONbits, W
000148 0B03           04890         ANDLW   0x03
                      04891 ; #     MOVWF   r0x00
                      04892 ; #     MOVF    r0x00, W
00014A 0A01           04893         XORLW   0x01
00014C E1??           04894         BNZ     _00118_DS_
                      04895 ;       .line   313; /home/vbasel/.icaro/v4/firmware/core/oscillator.c  return 32768;
00014E 6AE9           04896         CLRF    FSR0L
000150 6AF4           04897         CLRF    PRODH
000152 0E80           04898         MOVLW   0x80
000154 6EF3           04899         MOVWF   PRODL
000156 6AE8           04900         CLRF    WREG
000158 D???           04901         BRA     _00121_DS_
00015A                04902 _00118_DS_:
                      04903 ;       .line   316; /home/vbasel/.icaro/v4/firmware/core/oscillator.c  if (OSCCONbits.SCS >= 2)
00015A 50??           04904         MOVF    _OSCCONbits, W
00015C 0B03           04905         ANDLW   0x03
                      04906 ; #     MOVWF   r0x00
                      04907 ; #     MOVF    r0x00, W
00015E 0F80           04908         ADDLW   0x80
000160 0F7E           04909         ADDLW   0x7e
000162 E3??           04910         BNC     _00120_DS_
                      04911 ;       .line   317; /home/vbasel/.icaro/v4/firmware/core/oscillator.c  return ircf[OSCCONbits.IRCF];
000164 50??           04912         MOVF    _OSCCONbits, W
000166 38E8           04913         SWAPF   WREG, W
000168 0B07           04914         ANDLW   0x07
00016A 6AE5           04915         CLRF    POSTDEC1
00016C 6EE5           04916         MOVWF   POSTDEC1
00016E 6AE5           04917         CLRF    POSTDEC1
000170 0E04           04918         MOVLW   0x04
000172 6EE5           04919         MOVWF   POSTDEC1
000174 EC?? F0??      04920         CALL    __mulint
000178 6E??           04921         MOVWF   r0x00
00017A CFF3 F000      04922         MOVFF   PRODL, r0x01
00017E 0E04           04923         MOVLW   0x04
000180 26E1           04924         ADDWF   FSR1L, F
000182 6A??           04925         CLRF    r0x02
000184 0E??           04926         MOVLW   LOW(_ircf)
000186 26??           04927         ADDWF   r0x00, F
000188 0E??           04928         MOVLW   HIGH(_ircf)
00018A 22??           04929         ADDWFC  r0x01, F
00018C 0E??           04930         MOVLW   UPPER(_ircf)
gpasm-1.4.2 #1169 (Aug  3 2017) /home/vbasel/   3-17-2018  14:24:43         PAGE 97


LOC    OBJECT CODE    LINE  SOURCE TEXT
  VALUE

00018E 22??           04931         ADDWFC  r0x02, F
000190 C??? F???      04932         MOVFF   r0x00, TBLPTRL
000194 C??? F???      04933         MOVFF   r0x01, TBLPTRH
000198 C??? F???      04934         MOVFF   r0x02, TBLPTRU
00019C 0009           04935         TBLRD*+ 
00019E CFF5 F000      04936         MOVFF   TABLAT, r0x00
0001A2 0009           04937         TBLRD*+ 
0001A4 CFF5 F000      04938         MOVFF   TABLAT, r0x01
0001A8 0009           04939         TBLRD*+ 
0001AA CFF5 F000      04940         MOVFF   TABLAT, r0x02
0001AE 0009           04941         TBLRD*+ 
0001B0 CFF5 F000      04942         MOVFF   TABLAT, r0x03
0001B4 C??? F???      04943         MOVFF   r0x03, FSR0L
0001B8 C??? F???      04944         MOVFF   r0x02, PRODH
0001BC C??? F???      04945         MOVFF   r0x01, PRODL
0001C0 50??           04946         MOVF    r0x00, W
0001C2 D???           04947         BRA     _00121_DS_
0001C4                04948 _00120_DS_:
                      04949 ;       .line   319; /home/vbasel/.icaro/v4/firmware/core/oscillator.c  return 0;
0001C4 6AE9           04950         CLRF    FSR0L
0001C6 6AF4           04951         CLRF    PRODH
0001C8 6AF3           04952         CLRF    PRODL
0001CA 6AE8           04953         CLRF    WREG
0001CC                04954 _00121_DS_:
0001CC CFE4 F000      04955         MOVFF   PREINC1, r0x05
0001D0 CFE4 F000      04956         MOVFF   PREINC1, r0x04
0001D4 CFE4 F000      04957         MOVFF   PREINC1, r0x03
0001D8 CFE4 F000      04958         MOVFF   PREINC1, r0x02
0001DC CFE4 F000      04959         MOVFF   PREINC1, r0x01
0001E0 CFE4 F000      04960         MOVFF   PREINC1, r0x00
0001E4 0012           04961         RETURN  
                      04962 
                      04963 ; ; Starting pCode block
                      04964 S_main__System_readFlashMemory  code
000000                04965 _System_readFlashMemory:
                      04966 ;       .line   190; /home/vbasel/.icaro/v4/firmware/core/oscillator.c  u16 System_readFlashMemory(u32 a
                            ddress)
000000 CFD9 FFE5      04967         MOVFF   FSR2L, POSTDEC1
000004 CFE1 FFD9      04968         MOVFF   FSR1L, FSR2L
000008 C??? F???      04969         MOVFF   r0x00, POSTDEC1
00000C C??? F???      04970         MOVFF   r0x01, POSTDEC1
000010 C??? F???      04971         MOVFF   r0x02, POSTDEC1
000014 C??? F???      04972         MOVFF   r0x03, POSTDEC1
000018 C??? F???      04973         MOVFF   r0x04, POSTDEC1
00001C C??? F???      04974         MOVFF   r0x05, POSTDEC1
000020 C??? F???      04975         MOVFF   r0x06, POSTDEC1
000024 C??? F???      04976         MOVFF   r0x07, POSTDEC1
000028 0E02           04977         MOVLW   0x02
00002A CFDB F000      04978         MOVFF   PLUSW2, r0x00
00002E 0E03           04979         MOVLW   0x03
000030 CFDB F000      04980         MOVFF   PLUSW2, r0x01
000034 0E04           04981         MOVLW   0x04
000036 CFDB F000      04982         MOVFF   PLUSW2, r0x02
gpasm-1.4.2 #1169 (Aug  3 2017) /home/vbasel/   3-17-2018  14:24:43         PAGE 98


LOC    OBJECT CODE    LINE  SOURCE TEXT
  VALUE

00003A 0E05           04983         MOVLW   0x05
00003C CFDB F000      04984         MOVFF   PLUSW2, r0x03
                      04985 ;       .line   194; /home/vbasel/.icaro/v4/firmware/core/oscillator.c  TBLPTRU = address >> 16;
000040 50??           04986         MOVF    r0x02, W
000042 6E??           04987         MOVWF   r0x04
000044 50??           04988         MOVF    r0x03, W
000046 6E??           04989         MOVWF   r0x05
000048 6A??           04990         CLRF    r0x06
00004A 6A??           04991         CLRF    r0x07
00004C 50??           04992         MOVF    r0x04, W
00004E 6E??           04993         MOVWF   _TBLPTRU
                      04994 ;       .line   195; /home/vbasel/.icaro/v4/firmware/core/oscillator.c  TBLPTRH = address >> 8;
000050 50??           04995         MOVF    r0x01, W
000052 6E??           04996         MOVWF   r0x04
000054 50??           04997         MOVF    r0x02, W
000056 6E??           04998         MOVWF   r0x05
000058 50??           04999         MOVF    r0x03, W
00005A 6E??           05000         MOVWF   r0x06
00005C 6A??           05001         CLRF    r0x07
00005E 50??           05002         MOVF    r0x04, W
000060 6E??           05003         MOVWF   _TBLPTRH
                      05004 ;       .line   196; /home/vbasel/.icaro/v4/firmware/core/oscillator.c  TBLPTRL = address;
000062 50??           05005         MOVF    r0x00, W
000064 6E??           05006         MOVWF   _TBLPTRL
000066 0009           05007         tblrd*+
                      05008 ;       .line   198; /home/vbasel/.icaro/v4/firmware/core/oscillator.c  l8 = TABLAT;
000068 C??? F???      05009         MOVFF   _TABLAT, r0x00
00006C 0009           05010         tblrd*+
                      05011 ;       .line   200; /home/vbasel/.icaro/v4/firmware/core/oscillator.c  h8 = TABLAT;
00006E C??? F???      05012         MOVFF   _TABLAT, r0x01
                      05013 ;       .line   202; /home/vbasel/.icaro/v4/firmware/core/oscillator.c  return ((h8 << 8) + l8);
000072 6A??           05014         CLRF    r0x02
000074 50??           05015         MOVF    r0x01, W
000076 6E??           05016         MOVWF   r0x04
000078 6A??           05017         CLRF    r0x03
00007A 6A??           05018         CLRF    r0x05
00007C 50??           05019         MOVF    r0x00, W
00007E 26??           05020         ADDWF   r0x03, F
000080 50??           05021         MOVF    r0x05, W
000082 22??           05022         ADDWFC  r0x04, F
000084 C??? F???      05023         MOVFF   r0x04, PRODL
000088 50??           05024         MOVF    r0x03, W
00008A CFE4 F000      05025         MOVFF   PREINC1, r0x07
00008E CFE4 F000      05026         MOVFF   PREINC1, r0x06
000092 CFE4 F000      05027         MOVFF   PREINC1, r0x05
000096 CFE4 F000      05028         MOVFF   PREINC1, r0x04
00009A CFE4 F000      05029         MOVFF   PREINC1, r0x03
00009E CFE4 F000      05030         MOVFF   PREINC1, r0x02
0000A2 CFE4 F000      05031         MOVFF   PREINC1, r0x01
0000A6 CFE4 F000      05032         MOVFF   PREINC1, r0x00
0000AA CFE4 FFD9      05033         MOVFF   PREINC1, FSR2L
0000AE 0012           05034         RETURN  
                      05035 
gpasm-1.4.2 #1169 (Aug  3 2017) /home/vbasel/   3-17-2018  14:24:43         PAGE 99


LOC    OBJECT CODE    LINE  SOURCE TEXT
  VALUE

                      05036 ; ; Starting pCode block for Ival
                      05037         code
000000                05038 _cpudiv:
000000 0302 0604      05039         DB      0x02, 0x03, 0x04, 0x06
                      05040 ; ; Starting pCode block for Ival
000004                05041 _cpudiv_xtal:
000004 0201 0403      05042         DB      0x01, 0x02, 0x03, 0x04
                      05043 ; ; Starting pCode block for Ival
000008                05044 _ircf:
000008 7A12 0000 E848 05045         DB      0x12, 0x7a, 0x00, 0x00, 0x48, 0xe8, 0x01, 0x00, 0x90, 0xd0, 0x03, 0x00
       0001 D090 0003 
000014 A120 0007 4240 05046         DB      0x20, 0xa1, 0x07, 0x00, 0x40, 0x42, 0x0f, 0x00, 0x80, 0x84, 0x1e, 0x00
       000F 8480 001E 
000020 0900 003D 1200 05047         DB      0x00, 0x09, 0x3d, 0x00, 0x00, 0x12, 0x7a, 0x00
       007A           
                      05048 ; ; Starting pCode block for Ival
000028                05049 _mask:
000028 0201 0804 2010 05050         DB      0x01, 0x02, 0x04, 0x08, 0x10, 0x20, 0x40, 0x80, 0x40, 0x80, 0x01, 0x02
       8040 8040 0201 
000034 0104 0402 2008 05051         DB      0x04, 0x01, 0x02, 0x04, 0x08, 0x20, 0x01, 0x02, 0x04, 0x01, 0x02, 0x04
       0201 0104 0402 
000040 1008 4020 1080 05052         DB      0x08, 0x10, 0x20, 0x40, 0x80, 0x10
                      05053 ; ; Starting pCode block for Ival
000046                05054 _port:
000046 0101 0101 0101 05055         DB      0x01, 0x01, 0x01, 0x01, 0x01, 0x01, 0x01, 0x01, 0x02, 0x02, 0x02, 0x02
       0101 0202 0202 
000052 0002 0000 0000 05056         DB      0x02, 0x00, 0x00, 0x00, 0x00, 0x00, 0x04, 0x04, 0x04, 0x03, 0x03, 0x03
       0404 0304 0303 
00005E 0303 0303 0003 05057         DB      0x03, 0x03, 0x03, 0x03, 0x03, 0x00
                      05058 
                      05059 
                      05060 ; Statistics:
                      05061 ; code size:     9594 (0x257a) bytes ( 7.32%)
                      05062 ;                4797 (0x12bd) words
                      05063 ; udata size:     291 (0x0123) bytes (16.24%)
                      05064 ; access size:      8 (0x0008) bytes
                      05065 
                      05066 
                      05067         end
gpasm-1.4.2 #1169 (Aug  3 2017) /home/vbasel/   3-17-2018  14:24:43         PAGE 100


SYMBOL TABLE
  LABEL                             VALUE

BSR                               00000FE0
FSR0H                             00000FEA
FSR0L                             00000FE9
FSR1L                             00000FE1
FSR2L                             00000FD9
INDF0                             00000FEF
PCL                               00000FF9
PCLATH                            00000FFA
PCLATU                            00000FFB
PLUSW2                            00000FDB
POSTDEC1                          00000FE5
POSTINC1                          00000FE6
PREINC1                           00000FE4
PRODH                             00000FF4
PRODL                             00000FF3
STATUS                            00000FD8
TABLAT                            00000FF5
TBLPTRH                           00000FF7
TBLPTRL                           00000FF6
TBLPTRU                           00000FF8
WREG                              00000FE8
_00110_DS_                        000000C8
_00111_DS_                        00000106
_00116_DS_                        00000146
_00118_DS_                        0000015A
_00120_DS_                        000001C4
_00121_DS_                        000001CC
_00151_DS_                        0000007A
_00154_DS_                        0000009E
_00159_DS_                        00000086
_00161_DS_                        000000B4
_00163_DS_                        000000E0
_00165_DS_                        0000010E
_00167_DS_                        0000013A
_00169_DS_                        00000168
_00171_DS_                        00000194
_00173_DS_                        000001C2
_00175_DS_                        000001EE
_00177_DS_                        0000021C
_00180_DS_                        00000244
_00201_DS_                        00000072
_00206_DS_                        00000086
_00208_DS_                        000000B4
_00210_DS_                        000000E0
_00212_DS_                        0000010E
_00214_DS_                        0000013A
_00216_DS_                        00000168
_00218_DS_                        00000194
_00220_DS_                        000001C2
_00222_DS_                        000001EE
_00224_DS_                        0000021C
_00227_DS_                        00000244
_00248_DS_                        00000072
gpasm-1.4.2 #1169 (Aug  3 2017) /home/vbasel/   3-17-2018  14:24:43         PAGE 101


SYMBOL TABLE
  LABEL                             VALUE 

_00253_DS_                        0000007C
_00254_DS_                        000000B4
_00255_DS_                        000000EC
_00256_DS_                        00000124
_00257_DS_                        0000015C
_00258_DS_                        00000192
_00259_DS_                        00000194
_00261_DS_                        000000AE
_00262_DS_                        000000B0
_00263_DS_                        000000E6
_00264_DS_                        000000E8
_00265_DS_                        0000011E
_00266_DS_                        00000120
_00267_DS_                        00000156
_00268_DS_                        00000158
_00269_DS_                        0000018C
_00270_DS_                        0000018E
_00290_DS_                        00000068
_00302_DS_                        0000000E
_00304_DS_                        0000005E
_00329_DS_                        00000110
_00331_DS_                        00000018
_00342_DS_                        0000003C
_00358_DS_                        000000F6
_00359_DS_                        0000011C
_00360_DS_                        000001A6
_00364_DS_                        00000336
_00369_DS_                        000003E8
_00373_DS_                        00000578
_00378_DS_                        00000632
_00382_DS_                        000007C2
_00387_DS_                        00000884
_00391_DS_                        00000A12
_00396_DS_                        00000AD0
_00400_DS_                        00000C5A
_00406_DS_                        00000D1E
_00407_DS_                        00000124
_00409_DS_                        00000E26
_00411_DS_                        00000020
_00414_DS_                        000000FA
_00417_DS_                        0000013A
_00418_DS_                        00000D16
_00498_DS_                        00000192
_00502_DS_                        00000374
_00507_DS_                        000005B6
_00512_DS_                        00000800
_00517_DS_                        00000A4E
_00522_DS_                        00000C96
_00529_DS_                        00000088
_00530_DS_                        000000D0
_00531_DS_                        00000118
_00532_DS_                        00000160
_00533_DS_                        000001A8
gpasm-1.4.2 #1169 (Aug  3 2017) /home/vbasel/   3-17-2018  14:24:43         PAGE 102


SYMBOL TABLE
  LABEL                             VALUE 

_00535_DS_                        000001EC
_00545_DS_                        00000074
_00552_DS_                        00000084
_00553_DS_                        000000B4
_00554_DS_                        000000E4
_00555_DS_                        00000114
_00556_DS_                        00000144
_00558_DS_                        00000170
_00568_DS_                        00000070
_00575_DS_                        00000042
_00586_DS_                        00000020
_00587_DS_                        00000038
_00600_DS_                        00000046
_00602_DS_                        0000005C
_00603_DS_                        0000008C
_00615_DS_                        0000003C
_00616_DS_                        00000052
_00624_DS_                        00000046
_00626_DS_                        0000005C
_00627_DS_                        0000008C
_00639_DS_                        0000003C
_00640_DS_                        00000052
_00648_DS_                        00000020
_00649_DS_                        00000040
_00652_DS_                        00000042
_00667_DS_                        0000001E
_00684_DS_                        0000003A
_00685_DS_                        00000048
_00688_DS_                        00000060
_00693_DS_                        00000050
_00731_DS_                        0000005E
_00732_DS_                        00000080
_00761_DS_                        00000028
_00763_DS_                        0000003A
_00772_DS_                        00000032
_00777_DS_                        00000008
_00780_DS_                        0000004A
_00782_DS_                        0000006C
_00788_DS_                        00000046
_00810_DS_                        00000032
_00812_DS_                        00000036
_00832_DS_                        0000000A
_00836_DS_                        0000000E
_00838_DS_                        00000022
_ADCON0                           00000000
_ADCON0bits                       00000000
_ADCON1                           00000000
_ADCON1bits                       00000000
_ADCON2                           00000000
_ADCON2bits                       00000000
_ADRESH                           00000000
_ADRESL                           00000000
_BAUDCON                          00000000
gpasm-1.4.2 #1169 (Aug  3 2017) /home/vbasel/   3-17-2018  14:24:43         PAGE 103


SYMBOL TABLE
  LABEL                             VALUE 

_BAUDCONbits                      00000000
_BSR                              00000000
_BSRbits                          00000000
_CCP1CON                          00000000
_CCP1CONbits                      00000000
_CCP2CON                          00000000
_CCP2CONbits                      00000000
_CCPR1H                           00000000
_CCPR1L                           00000000
_CCPR2H                           00000000
_CCPR2L                           00000000
_CMCON                            00000000
_CMCONbits                        00000000
_CVRCON                           00000000
_CVRCONbits                       00000000
_Delayms                          00000000
_Delayus                          00000000
_ECCP1AS                          00000000
_ECCP1ASbits                      00000000
_ECCP1DEL                         00000000
_ECCP1DELbits                     00000000
_EEADR                            00000000
_EECON1                           00000000
_EECON1bits                       00000000
_EECON2                           00000000
_EEDATA                           00000000
_FSR0H                            00000000
_FSR0Hbits                        00000000
_FSR0L                            00000000
_FSR1H                            00000000
_FSR1Hbits                        00000000
_FSR1L                            00000000
_FSR2H                            00000000
_FSR2Hbits                        00000000
_FSR2L                            00000000
_HLVDCON                          00000000
_HLVDCONbits                      00000000
_INDF0                            00000000
_INDF1                            00000000
_INDF2                            00000000
_INTCON                           00000000
_INTCON2                          00000000
_INTCON2bits                      00000000
_INTCON3                          00000000
_INTCON3bits                      00000000
_INTCONbits                       00000000
_IO_digital                       00000000
_IO_init                          00000000
_IPR1                             00000000
_IPR1bits                         00000000
_IPR2                             00000000
_IPR2bits                         00000000
_LATA                             00000000
gpasm-1.4.2 #1169 (Aug  3 2017) /home/vbasel/   3-17-2018  14:24:43         PAGE 104


SYMBOL TABLE
  LABEL                             VALUE 

_LATAbits                         00000000
_LATB                             00000000
_LATBbits                         00000000
_LATC                             00000000
_LATCbits                         00000000
_LATD                             00000000
_LATDbits                         00000000
_LATE                             00000000
_LATEbits                         00000000
_OSCCON                           00000000
_OSCCONbits                       00000000
_OSCTUNE                          00000000
_OSCTUNEbits                      00000000
_PCL                              00000000
_PCLATH                           00000000
_PCLATHbits                       00000000
_PCLATU                           00000000
_PCLATUbits                       00000000
_PIE1                             00000000
_PIE1bits                         00000000
_PIE2                             00000000
_PIE2bits                         00000000
_PIR1                             00000000
_PIR1bits                         00000000
_PIR2                             00000000
_PIR2bits                         00000000
_PLUSW0                           00000000
_PLUSW1                           00000000
_PLUSW2                           00000000
_PORTA                            00000000
_PORTAbits                        00000000
_PORTB                            00000000
_PORTBbits                        00000000
_PORTC                            00000000
_PORTCbits                        00000000
_PORTD                            00000000
_PORTDbits                        00000000
_PORTE                            00000000
_PORTEbits                        00000000
_POSTDEC0                         00000000
_POSTDEC1                         00000000
_POSTDEC2                         00000000
_POSTINC0                         00000000
_POSTINC1                         00000000
_POSTINC2                         00000000
_PR2                              00000000
_PREINC0                          00000000
_PREINC1                          00000000
_PREINC2                          00000000
_PRODH                            00000000
_PRODL                            00000000
_RCON                             00000000
_RCONbits                         00000000
gpasm-1.4.2 #1169 (Aug  3 2017) /home/vbasel/   3-17-2018  14:24:43         PAGE 105


SYMBOL TABLE
  LABEL                             VALUE 

_RCREG                            00000000
_RCSTA                            00000000
_RCSTAbits                        00000000
_SPBRG                            00000000
_SPBRGH                           00000000
_SPPCFG                           00000000
_SPPCFGbits                       00000000
_SPPCON                           00000000
_SPPCONbits                       00000000
_SPPDATA                          00000000
_SPPDATAbits                      00000000
_SPPEPS                           00000000
_SPPEPSbits                       00000000
_SSPADD                           00000000
_SSPBUF                           00000000
_SSPCON1                          00000000
_SSPCON1bits                      00000000
_SSPCON2                          00000000
_SSPCON2bits                      00000000
_SSPSTAT                          00000000
_SSPSTATbits                      00000000
_STATUS                           00000000
_STATUSbits                       00000000
_STKPTR                           00000000
_STKPTRbits                       00000000
_ServoAttach                      00000000
_ServoDetach                      00000000
_ServoMaximumPulse                00000000
_ServoMinimumPulse                00000000
_ServoRead                        00000000
_ServoWrite                       00000000
_ServosPulseDown                  00000000
_ServosPulseDown_timingindex_1_28  00000000
_ServosPulseUp                    00000000
_SortServoTimings                 00000000
_SortServoTimings_numservos_1_32  00000000
_SortServoTimings_s_1_32          00000000
_SortServoTimings_t_1_32          00000000
_SortServoTimings_totalservos_1_32  00000000
_System_getCpuFrequency           00000000
_System_readFlashMemory           00000000
_T0CON                            00000000
_T0CONbits                        00000000
_T1CON                            00000000
_T1CONbits                        00000000
_T2CON                            00000000
_T2CONbits                        00000000
_T3CON                            00000000
_T3CONbits                        00000000
_TABLAT                           00000000
_TBLPTRH                          00000000
_TBLPTRL                          00000000
_TBLPTRU                          00000000
gpasm-1.4.2 #1169 (Aug  3 2017) /home/vbasel/   3-17-2018  14:24:43         PAGE 106


SYMBOL TABLE
  LABEL                             VALUE 

_TBLPTRUbits                      00000000
_TMR0H                            00000000
_TMR0L                            00000000
_TMR1H                            00000000
_TMR1L                            00000000
_TMR2                             00000000
_TMR3H                            00000000
_TMR3L                            00000000
_TOSH                             00000000
_TOSL                             00000000
_TOSU                             00000000
_TOSUbits                         00000000
_TRISA                            00000000
_TRISAbits                        00000000
_TRISB                            00000000
_TRISBbits                        00000000
_TRISC                            00000000
_TRISCbits                        00000000
_TRISD                            00000000
_TRISDbits                        00000000
_TRISE                            00000000
_TRISEbits                        00000000
_TXREG                            00000000
_TXSTA                            00000000
_TXSTAbits                        00000000
_UADDR                            00000000
_UADDRbits                        00000000
_UCFG                             00000000
_UCFGbits                         00000000
_UCON                             00000000
_UCONbits                         00000000
_UEIE                             00000000
_UEIEbits                         00000000
_UEIR                             00000000
_UEIRbits                         00000000
_UEP0                             00000000
_UEP0bits                         00000000
_UEP1                             00000000
_UEP10                            00000000
_UEP10bits                        00000000
_UEP11                            00000000
_UEP11bits                        00000000
_UEP12                            00000000
_UEP12bits                        00000000
_UEP13                            00000000
_UEP13bits                        00000000
_UEP14                            00000000
_UEP14bits                        00000000
_UEP15                            00000000
_UEP15bits                        00000000
_UEP1bits                         00000000
_UEP2                             00000000
_UEP2bits                         00000000
gpasm-1.4.2 #1169 (Aug  3 2017) /home/vbasel/   3-17-2018  14:24:43         PAGE 107


SYMBOL TABLE
  LABEL                             VALUE 

_UEP3                             00000000
_UEP3bits                         00000000
_UEP4                             00000000
_UEP4bits                         00000000
_UEP5                             00000000
_UEP5bits                         00000000
_UEP6                             00000000
_UEP6bits                         00000000
_UEP7                             00000000
_UEP7bits                         00000000
_UEP8                             00000000
_UEP8bits                         00000000
_UEP9                             00000000
_UEP9bits                         00000000
_UFRMH                            00000000
_UFRMHbits                        00000000
_UFRML                            00000000
_UFRMLbits                        00000000
_UIE                              00000000
_UIEbits                          00000000
_UIR                              00000000
_UIRbits                          00000000
_USTAT                            00000000
_USTATbits                        00000000
_WDTCON                           00000000
_WDTCONbits                       00000000
_WREG                             00000000
__18F4550                         00000001
__ACC_RAM_LOW_END                 0000005F
__ACC_RAM_LOW_START               00000000
__CODE_END                        00007FFF
__CODE_START                      00000000
__CONFIG_END                      0030000D
__CONFIG_START                    00300000
__EEPROM_END                      00F000FF
__EEPROM_START                    00F00000
__IDLOCS_END                      00200007
__IDLOCS_START                    00200000
__VECTOR_INT_HIGH                 00000008
__VECTOR_INT_LOW                  00000018
__VECTOR_RESET                    00000000
___uflags                         00000005
__cpu_clock_                      00000000
__divslong                        00000000
__divulong                        00000000
__entry                           00000C00
__i                               00000003
__mulint                          00000000
__startup                         00000000
_activatedservos                  00000000
_analog_init                      00000000
_analogread                       00000000
_analogreference                  00000000
gpasm-1.4.2 #1169 (Aug  3 2017) /home/vbasel/   3-17-2018  14:24:43         PAGE 108


SYMBOL TABLE
  LABEL                             VALUE 

_analogwrite                      00000000
_analogwrite_init                 00000000
_cinit                            00000000
_cpudiv                           00000000
_cpudiv_xtal                      00000004
_delay100tcy                      00000000
_digitalread                      00000000
_digitalwrite                     00000000
_high_priority_isr                00000000
_ircf                             00000008
_loop                             00000000
_loopvar                          00000000
_low_priority_isr                 00000000
_main                             00000000
_mascaratotal                     00000000
_mask                             00000028
_maxminpos                        00000000
_needreordering                   00000001
_phase                            00000000
_ping                             00000000
_pinmode                          00000000
_port                             00000046
_sensordigital                    00000000
_servos_init                      00000000
_servos_interrupt                 00000000
_servovalues                      00000000
_setup                            00000000
_stack_end                        00000000
_stdin                            00000000
_stdout                           00000000
_timedivision                     00000002
_timevalue                        00000000
_timingindex                      00000000
_timings                          00000000
_toggle                           00000000
bucle                             00000114
clear_loop                        00000018
copy_loop                         00000086
copy_loop_dec                     0000008C
entry_loop                        00000038
entry_loop_dec                    000000A0
ivec_0x1_high_priority_isr        00000C08
ivec_0x2_low_priority_isr         00000C18
lockup                            000000AC
r0x00                             00000000
r0x01                             00000001
r0x02                             00000002
r0x03                             00000003
r0x04                             00000004
r0x05                             00000005
r0x06                             00000006
r0x07                             00000007

gpasm-1.4.2 #1169 (Aug  3 2017) /home/vbasel/   3-17-2018  14:24:43         PAGE 109




Errors   :     0
Warnings :     0 reported,     0 suppressed
Messages :     0 reported,     0 suppressed

